
code.elf:     file format elf32-littleriscv


Disassembly of section .text:

00010094 <exit>:
   10094:	1141                	add	sp,sp,-16
   10096:	4581                	li	a1,0
   10098:	c422                	sw	s0,8(sp)
   1009a:	c606                	sw	ra,12(sp)
   1009c:	842a                	mv	s0,a0
   1009e:	3f6050ef          	jal	15494 <__call_exitprocs>
   100a2:	f441a783          	lw	a5,-188(gp) # 1d754 <__stdio_exit_handler>
   100a6:	c391                	beqz	a5,100aa <exit+0x16>
   100a8:	9782                	jalr	a5
   100aa:	8522                	mv	a0,s0
   100ac:	0eb090ef          	jal	19996 <_exit>

000100b0 <main>:
   100b0:	ff010113          	add	sp,sp,-16
   100b4:	00112623          	sw	ra,12(sp)
   100b8:	00812423          	sw	s0,8(sp)
   100bc:	00912223          	sw	s1,4(sp)
   100c0:	01212023          	sw	s2,0(sp)
   100c4:	0001c4b7          	lui	s1,0x1c
   100c8:	10c000ef          	jal	101d4 <get_cycles>
   100cc:	00050413          	mv	s0,a0
   100d0:	00058913          	mv	s2,a1
   100d4:	b5048513          	add	a0,s1,-1200 # 1bb50 <__clzsi2+0x70>
   100d8:	00200593          	li	a1,2
   100dc:	198000ef          	jal	10274 <printf>
   100e0:	00300593          	li	a1,3
   100e4:	b5048513          	add	a0,s1,-1200
   100e8:	18c000ef          	jal	10274 <printf>
   100ec:	00400593          	li	a1,4
   100f0:	b5048513          	add	a0,s1,-1200
   100f4:	180000ef          	jal	10274 <printf>
   100f8:	00500593          	li	a1,5
   100fc:	b5048513          	add	a0,s1,-1200
   10100:	174000ef          	jal	10274 <printf>
   10104:	0d0000ef          	jal	101d4 <get_cycles>
   10108:	40850633          	sub	a2,a0,s0
   1010c:	00c53533          	sltu	a0,a0,a2
   10110:	412586b3          	sub	a3,a1,s2
   10114:	40a686b3          	sub	a3,a3,a0
   10118:	0001c537          	lui	a0,0x1c
   1011c:	b5450513          	add	a0,a0,-1196 # 1bb54 <__clzsi2+0x74>
   10120:	154000ef          	jal	10274 <printf>
   10124:	00c12083          	lw	ra,12(sp)
   10128:	00812403          	lw	s0,8(sp)
   1012c:	00412483          	lw	s1,4(sp)
   10130:	00012903          	lw	s2,0(sp)
   10134:	00000513          	li	a0,0
   10138:	01010113          	add	sp,sp,16
   1013c:	00008067          	ret

00010140 <register_fini>:
   10140:	00000793          	li	a5,0
   10144:	c791                	beqz	a5,10150 <register_fini+0x10>
   10146:	00005517          	auipc	a0,0x5
   1014a:	11a50513          	add	a0,a0,282 # 15260 <__libc_fini_array>
   1014e:	a8ed                	j	10248 <atexit>
   10150:	8082                	ret

00010152 <_start>:
   10152:	0000d197          	auipc	gp,0xd
   10156:	6be18193          	add	gp,gp,1726 # 1d810 <__global_pointer$>
   1015a:	f4018513          	add	a0,gp,-192 # 1d750 <completed.1>
   1015e:	53818613          	add	a2,gp,1336 # 1dd48 <__BSS_END__>
   10162:	8e09                	sub	a2,a2,a0
   10164:	4581                	li	a1,0
   10166:	4a9040ef          	jal	14e0e <memset>
   1016a:	00005517          	auipc	a0,0x5
   1016e:	0f650513          	add	a0,a0,246 # 15260 <__libc_fini_array>
   10172:	28d9                	jal	10248 <atexit>
   10174:	082050ef          	jal	151f6 <__libc_init_array>
   10178:	4502                	lw	a0,0(sp)
   1017a:	004c                	add	a1,sp,4
   1017c:	4601                	li	a2,0
   1017e:	3f0d                	jal	100b0 <main>
   10180:	bf11                	j	10094 <exit>

00010182 <__do_global_dtors_aux>:
   10182:	1141                	add	sp,sp,-16
   10184:	c422                	sw	s0,8(sp)
   10186:	f4018413          	add	s0,gp,-192 # 1d750 <completed.1>
   1018a:	00044783          	lbu	a5,0(s0)
   1018e:	c606                	sw	ra,12(sp)
   10190:	ef99                	bnez	a5,101ae <__do_global_dtors_aux+0x2c>
   10192:	00000793          	li	a5,0
   10196:	cb89                	beqz	a5,101a8 <__do_global_dtors_aux+0x26>
   10198:	0000d517          	auipc	a0,0xd
   1019c:	e6850513          	add	a0,a0,-408 # 1d000 <__EH_FRAME_BEGIN__>
   101a0:	00000097          	auipc	ra,0x0
   101a4:	000000e7          	jalr	zero # 0 <exit-0x10094>
   101a8:	4785                	li	a5,1
   101aa:	00f40023          	sb	a5,0(s0)
   101ae:	40b2                	lw	ra,12(sp)
   101b0:	4422                	lw	s0,8(sp)
   101b2:	0141                	add	sp,sp,16
   101b4:	8082                	ret

000101b6 <frame_dummy>:
   101b6:	00000793          	li	a5,0
   101ba:	cb99                	beqz	a5,101d0 <frame_dummy+0x1a>
   101bc:	f8818593          	add	a1,gp,-120 # 1d798 <object.0>
   101c0:	0000d517          	auipc	a0,0xd
   101c4:	e4050513          	add	a0,a0,-448 # 1d000 <__EH_FRAME_BEGIN__>
   101c8:	00000317          	auipc	t1,0x0
   101cc:	00000067          	jr	zero # 0 <exit-0x10094>
   101d0:	8082                	ret
	...

000101d4 <get_cycles>:
   101d4:	c80025f3          	rdcycleh	a1
   101d8:	c0002573          	rdcycle	a0
   101dc:	c8002673          	rdcycleh	a2
   101e0:	fec59ae3          	bne	a1,a2,101d4 <get_cycles>
   101e4:	00008067          	ret

000101e8 <count_leading_zeros>:
   101e8:	02058e63          	beqz	a1,10224 <count_leading_zeros+0x3c>
   101ec:	00000793          	li	a5,0
   101f0:	00100693          	li	a3,1
   101f4:	01f59713          	sll	a4,a1,0x1f
   101f8:	00155513          	srl	a0,a0,0x1
   101fc:	00a76533          	or	a0,a4,a0
   10200:	0015d593          	srl	a1,a1,0x1
   10204:	00178793          	add	a5,a5,1
   10208:	fed516e3          	bne	a0,a3,101f4 <count_leading_zeros+0xc>
   1020c:	fe0594e3          	bnez	a1,101f4 <count_leading_zeros+0xc>
   10210:	04000513          	li	a0,64
   10214:	40f50533          	sub	a0,a0,a5
   10218:	01051513          	sll	a0,a0,0x10
   1021c:	01055513          	srl	a0,a0,0x10
   10220:	00008067          	ret
   10224:	00100793          	li	a5,1
   10228:	fca7e2e3          	bltu	a5,a0,101ec <count_leading_zeros+0x4>
   1022c:	00154513          	xor	a0,a0,1
   10230:	00153793          	seqz	a5,a0
   10234:	04000513          	li	a0,64
   10238:	40f50533          	sub	a0,a0,a5
   1023c:	01051513          	sll	a0,a0,0x10
   10240:	01055513          	srl	a0,a0,0x10
   10244:	00008067          	ret

00010248 <atexit>:
   10248:	85aa                	mv	a1,a0
   1024a:	4681                	li	a3,0
   1024c:	4601                	li	a2,0
   1024e:	4501                	li	a0,0
   10250:	1380506f          	j	15388 <__register_exitproc>

00010254 <_printf_r>:
   10254:	7139                	add	sp,sp,-64
   10256:	d432                	sw	a2,40(sp)
   10258:	d636                	sw	a3,44(sp)
   1025a:	d83a                	sw	a4,48(sp)
   1025c:	da3e                	sw	a5,52(sp)
   1025e:	dc42                	sw	a6,56(sp)
   10260:	de46                	sw	a7,60(sp)
   10262:	862e                	mv	a2,a1
   10264:	450c                	lw	a1,8(a0)
   10266:	1034                	add	a3,sp,40
   10268:	ce06                	sw	ra,28(sp)
   1026a:	c636                	sw	a3,12(sp)
   1026c:	280d                	jal	1029e <_vfprintf_r>
   1026e:	40f2                	lw	ra,28(sp)
   10270:	6121                	add	sp,sp,64
   10272:	8082                	ret

00010274 <printf>:
   10274:	7139                	add	sp,sp,-64
   10276:	d432                	sw	a2,40(sp)
   10278:	d636                	sw	a3,44(sp)
   1027a:	f2c1a303          	lw	t1,-212(gp) # 1d73c <_impure_ptr>
   1027e:	d22e                	sw	a1,36(sp)
   10280:	d83a                	sw	a4,48(sp)
   10282:	da3e                	sw	a5,52(sp)
   10284:	dc42                	sw	a6,56(sp)
   10286:	de46                	sw	a7,60(sp)
   10288:	00832583          	lw	a1,8(t1) # 101d0 <frame_dummy+0x1a>
   1028c:	1054                	add	a3,sp,36
   1028e:	862a                	mv	a2,a0
   10290:	851a                	mv	a0,t1
   10292:	ce06                	sw	ra,28(sp)
   10294:	c636                	sw	a3,12(sp)
   10296:	2021                	jal	1029e <_vfprintf_r>
   10298:	40f2                	lw	ra,28(sp)
   1029a:	6121                	add	sp,sp,64
   1029c:	8082                	ret

0001029e <_vfprintf_r>:
   1029e:	7165                	add	sp,sp,-400
   102a0:	18112623          	sw	ra,396(sp)
   102a4:	c42e                	sw	a1,8(sp)
   102a6:	c632                	sw	a2,12(sp)
   102a8:	ca36                	sw	a3,20(sp)
   102aa:	17312e23          	sw	s3,380(sp)
   102ae:	18812423          	sw	s0,392(sp)
   102b2:	89aa                	mv	s3,a0
   102b4:	283040ef          	jal	14d36 <_localeconv_r>
   102b8:	411c                	lw	a5,0(a0)
   102ba:	853e                	mv	a0,a5
   102bc:	da3e                	sw	a5,52(sp)
   102be:	53f040ef          	jal	14ffc <strlen>
   102c2:	872a                	mv	a4,a0
   102c4:	4621                	li	a2,8
   102c6:	4581                	li	a1,0
   102c8:	0908                	add	a0,sp,144
   102ca:	d83a                	sw	a4,48(sp)
   102cc:	343040ef          	jal	14e0e <memset>
   102d0:	47b2                	lw	a5,12(sp)
   102d2:	00098763          	beqz	s3,102e0 <_vfprintf_r+0x42>
   102d6:	0349a703          	lw	a4,52(s3)
   102da:	e319                	bnez	a4,102e0 <_vfprintf_r+0x42>
   102dc:	25a0106f          	j	11536 <_vfprintf_r+0x1298>
   102e0:	4722                	lw	a4,8(sp)
   102e2:	5374                	lw	a3,100(a4)
   102e4:	00c71703          	lh	a4,12(a4)
   102e8:	8a85                	and	a3,a3,1
   102ea:	e689                	bnez	a3,102f4 <_vfprintf_r+0x56>
   102ec:	20077693          	and	a3,a4,512
   102f0:	640686e3          	beqz	a3,1113c <_vfprintf_r+0xe9e>
   102f4:	01271693          	sll	a3,a4,0x12
   102f8:	0006ce63          	bltz	a3,10314 <_vfprintf_r+0x76>
   102fc:	4522                	lw	a0,8(sp)
   102fe:	6589                	lui	a1,0x2
   10300:	7679                	lui	a2,0xffffe
   10302:	5174                	lw	a3,100(a0)
   10304:	8f4d                	or	a4,a4,a1
   10306:	167d                	add	a2,a2,-1 # ffffdfff <__BSS_END__+0xfffe02b7>
   10308:	0742                	sll	a4,a4,0x10
   1030a:	8741                	sra	a4,a4,0x10
   1030c:	8ef1                	and	a3,a3,a2
   1030e:	00e51623          	sh	a4,12(a0)
   10312:	d174                	sw	a3,100(a0)
   10314:	00877693          	and	a3,a4,8
   10318:	1c068e63          	beqz	a3,104f4 <_vfprintf_r+0x256>
   1031c:	46a2                	lw	a3,8(sp)
   1031e:	4a94                	lw	a3,16(a3)
   10320:	1c068a63          	beqz	a3,104f4 <_vfprintf_r+0x256>
   10324:	01a77693          	and	a3,a4,26
   10328:	4629                	li	a2,10
   1032a:	1ec68663          	beq	a3,a2,10516 <_vfprintf_r+0x278>
   1032e:	1178                	add	a4,sp,172
   10330:	17712623          	sw	s7,364(sp)
   10334:	17812423          	sw	s8,360(sp)
   10338:	15b12e23          	sw	s11,348(sp)
   1033c:	18912223          	sw	s1,388(sp)
   10340:	19212023          	sw	s2,384(sp)
   10344:	17412c23          	sw	s4,376(sp)
   10348:	17512a23          	sw	s5,372(sp)
   1034c:	17612823          	sw	s6,368(sp)
   10350:	17912223          	sw	s9,356(sp)
   10354:	17a12023          	sw	s10,352(sp)
   10358:	d13a                	sw	a4,160(sp)
   1035a:	d502                	sw	zero,168(sp)
   1035c:	d302                	sw	zero,164(sp)
   1035e:	cc02                	sw	zero,24(sp)
   10360:	d402                	sw	zero,40(sp)
   10362:	d602                	sw	zero,44(sp)
   10364:	843a                	mv	s0,a4
   10366:	dc02                	sw	zero,56(sp)
   10368:	c082                	sw	zero,64(sp)
   1036a:	de02                	sw	zero,60(sp)
   1036c:	c882                	sw	zero,80(sp)
   1036e:	c682                	sw	zero,76(sp)
   10370:	c602                	sw	zero,12(sp)
   10372:	0000db97          	auipc	s7,0xd
   10376:	caab8b93          	add	s7,s7,-854 # 1d01c <__global_locale>
   1037a:	02500d93          	li	s11,37
   1037e:	8c3e                	mv	s8,a5
   10380:	8962                	mv	s2,s8
   10382:	0e4ba483          	lw	s1,228(s7)
   10386:	199040ef          	jal	14d1e <__locale_mb_cur_max>
   1038a:	86aa                	mv	a3,a0
   1038c:	0918                	add	a4,sp,144
   1038e:	864a                	mv	a2,s2
   10390:	010c                	add	a1,sp,128
   10392:	854e                	mv	a0,s3
   10394:	9482                	jalr	s1
   10396:	1e050a63          	beqz	a0,1058a <_vfprintf_r+0x2ec>
   1039a:	1e054063          	bltz	a0,1057a <_vfprintf_r+0x2dc>
   1039e:	478a                	lw	a5,128(sp)
   103a0:	01b78463          	beq	a5,s11,103a8 <_vfprintf_r+0x10a>
   103a4:	992a                	add	s2,s2,a0
   103a6:	bff1                	j	10382 <_vfprintf_r+0xe4>
   103a8:	84aa                	mv	s1,a0
   103aa:	41890cb3          	sub	s9,s2,s8
   103ae:	1f891363          	bne	s2,s8,10594 <_vfprintf_r+0x2f6>
   103b2:	537d                	li	t1,-1
   103b4:	4e81                	li	t4,0
   103b6:	4f01                	li	t5,0
   103b8:	00194e03          	lbu	t3,1(s2)
   103bc:	06010ba3          	sb	zero,119(sp)
   103c0:	0905                	add	s2,s2,1
   103c2:	05a00493          	li	s1,90
   103c6:	8a7a                	mv	s4,t5
   103c8:	8af6                	mv	s5,t4
   103ca:	8b1a                	mv	s6,t1
   103cc:	0905                	add	s2,s2,1
   103ce:	fe0e0793          	add	a5,t3,-32
   103d2:	04f4e063          	bltu	s1,a5,10412 <_vfprintf_r+0x174>
   103d6:	0000c717          	auipc	a4,0xc
   103da:	ac270713          	add	a4,a4,-1342 # 1be98 <__clzsi2+0x3b8>
   103de:	078a                	sll	a5,a5,0x2
   103e0:	97ba                	add	a5,a5,a4
   103e2:	439c                	lw	a5,0(a5)
   103e4:	97ba                	add	a5,a5,a4
   103e6:	8782                	jr	a5
   103e8:	4a81                	li	s5,0
   103ea:	fd0e0713          	add	a4,t3,-48
   103ee:	46a5                	li	a3,9
   103f0:	00094e03          	lbu	t3,0(s2)
   103f4:	002a9793          	sll	a5,s5,0x2
   103f8:	97d6                	add	a5,a5,s5
   103fa:	0786                	sll	a5,a5,0x1
   103fc:	00f70ab3          	add	s5,a4,a5
   10400:	fd0e0713          	add	a4,t3,-48
   10404:	0905                	add	s2,s2,1
   10406:	fee6f5e3          	bgeu	a3,a4,103f0 <_vfprintf_r+0x152>
   1040a:	fe0e0793          	add	a5,t3,-32
   1040e:	fcf4f4e3          	bgeu	s1,a5,103d6 <_vfprintf_r+0x138>
   10412:	8f52                	mv	t5,s4
   10414:	8ed6                	mv	t4,s5
   10416:	1a0e0263          	beqz	t3,105ba <_vfprintf_r+0x31c>
   1041a:	0fc10623          	sb	t3,236(sp)
   1041e:	06010ba3          	sb	zero,119(sp)
   10422:	4c85                	li	s9,1
   10424:	4601                	li	a2,0
   10426:	c802                	sw	zero,16(sp)
   10428:	4b05                	li	s6,1
   1042a:	4301                	li	t1,0
   1042c:	d202                	sw	zero,36(sp)
   1042e:	d002                	sw	zero,32(sp)
   10430:	4a01                	li	s4,0
   10432:	0ec10c13          	add	s8,sp,236
   10436:	002f7293          	and	t0,t5,2
   1043a:	00028363          	beqz	t0,10440 <_vfprintf_r+0x1a2>
   1043e:	0c89                	add	s9,s9,2
   10440:	084f7d13          	and	s10,t5,132
   10444:	54aa                	lw	s1,168(sp)
   10446:	000d1663          	bnez	s10,10452 <_vfprintf_r+0x1b4>
   1044a:	419e8733          	sub	a4,t4,s9
   1044e:	2ce04563          	bgtz	a4,10718 <_vfprintf_r+0x47a>
   10452:	ce19                	beqz	a2,10470 <_vfprintf_r+0x1d2>
   10454:	571a                	lw	a4,164(sp)
   10456:	07710613          	add	a2,sp,119
   1045a:	0485                	add	s1,s1,1
   1045c:	0705                	add	a4,a4,1
   1045e:	4785                	li	a5,1
   10460:	c010                	sw	a2,0(s0)
   10462:	c05c                	sw	a5,4(s0)
   10464:	d526                	sw	s1,168(sp)
   10466:	d33a                	sw	a4,164(sp)
   10468:	461d                	li	a2,7
   1046a:	0421                	add	s0,s0,8
   1046c:	32e64f63          	blt	a2,a4,107aa <_vfprintf_r+0x50c>
   10470:	00028f63          	beqz	t0,1048e <_vfprintf_r+0x1f0>
   10474:	571a                	lw	a4,164(sp)
   10476:	18b0                	add	a2,sp,120
   10478:	c010                	sw	a2,0(s0)
   1047a:	0489                	add	s1,s1,2
   1047c:	4609                	li	a2,2
   1047e:	0705                	add	a4,a4,1
   10480:	c050                	sw	a2,4(s0)
   10482:	d526                	sw	s1,168(sp)
   10484:	d33a                	sw	a4,164(sp)
   10486:	461d                	li	a2,7
   10488:	0421                	add	s0,s0,8
   1048a:	28e646e3          	blt	a2,a4,10f16 <_vfprintf_r+0xc78>
   1048e:	08000713          	li	a4,128
   10492:	06ed06e3          	beq	s10,a4,10cfe <_vfprintf_r+0xa60>
   10496:	41630ab3          	sub	s5,t1,s6
   1049a:	11504de3          	bgtz	s5,10db4 <_vfprintf_r+0xb16>
   1049e:	100f7713          	and	a4,t5,256
   104a2:	70071063          	bnez	a4,10ba2 <_vfprintf_r+0x904>
   104a6:	579a                	lw	a5,164(sp)
   104a8:	94da                	add	s1,s1,s6
   104aa:	01842023          	sw	s8,0(s0)
   104ae:	0785                	add	a5,a5,1
   104b0:	01642223          	sw	s6,4(s0)
   104b4:	d526                	sw	s1,168(sp)
   104b6:	d33e                	sw	a5,164(sp)
   104b8:	471d                	li	a4,7
   104ba:	34f74c63          	blt	a4,a5,10812 <_vfprintf_r+0x574>
   104be:	0421                	add	s0,s0,8
   104c0:	004f7f13          	and	t5,t5,4
   104c4:	000f0663          	beqz	t5,104d0 <_vfprintf_r+0x232>
   104c8:	419e8d33          	sub	s10,t4,s9
   104cc:	37a04163          	bgtz	s10,1082e <_vfprintf_r+0x590>
   104d0:	019ed363          	bge	t4,s9,104d6 <_vfprintf_r+0x238>
   104d4:	8ee6                	mv	t4,s9
   104d6:	47b2                	lw	a5,12(sp)
   104d8:	97f6                	add	a5,a5,t4
   104da:	c63e                	sw	a5,12(sp)
   104dc:	10049063          	bnez	s1,105dc <_vfprintf_r+0x33e>
   104e0:	47c2                	lw	a5,16(sp)
   104e2:	d302                	sw	zero,164(sp)
   104e4:	c789                	beqz	a5,104ee <_vfprintf_r+0x250>
   104e6:	45c2                	lw	a1,16(sp)
   104e8:	854e                	mv	a0,s3
   104ea:	1dc060ef          	jal	166c6 <_free_r>
   104ee:	1160                	add	s0,sp,172
   104f0:	8c4a                	mv	s8,s2
   104f2:	b579                	j	10380 <_vfprintf_r+0xe2>
   104f4:	4422                	lw	s0,8(sp)
   104f6:	854e                	mv	a0,s3
   104f8:	c63e                	sw	a5,12(sp)
   104fa:	85a2                	mv	a1,s0
   104fc:	283030ef          	jal	13f7e <__swsetup_r>
   10500:	c119                	beqz	a0,10506 <_vfprintf_r+0x268>
   10502:	2e50106f          	j	11fe6 <_vfprintf_r+0x1d48>
   10506:	00c41703          	lh	a4,12(s0)
   1050a:	4629                	li	a2,10
   1050c:	47b2                	lw	a5,12(sp)
   1050e:	01a77693          	and	a3,a4,26
   10512:	e0c69ee3          	bne	a3,a2,1032e <_vfprintf_r+0x90>
   10516:	4622                	lw	a2,8(sp)
   10518:	00e61683          	lh	a3,14(a2)
   1051c:	e006c9e3          	bltz	a3,1032e <_vfprintf_r+0x90>
   10520:	5274                	lw	a3,100(a2)
   10522:	8a85                	and	a3,a3,1
   10524:	e691                	bnez	a3,10530 <_vfprintf_r+0x292>
   10526:	20077713          	and	a4,a4,512
   1052a:	e319                	bnez	a4,10530 <_vfprintf_r+0x292>
   1052c:	4c80106f          	j	119f4 <_vfprintf_r+0x1756>
   10530:	46d2                	lw	a3,20(sp)
   10532:	45a2                	lw	a1,8(sp)
   10534:	854e                	mv	a0,s3
   10536:	863e                	mv	a2,a5
   10538:	56f010ef          	jal	122a6 <__sbprintf>
   1053c:	18c12083          	lw	ra,396(sp)
   10540:	18812403          	lw	s0,392(sp)
   10544:	c62a                	sw	a0,12(sp)
   10546:	4532                	lw	a0,12(sp)
   10548:	17c12983          	lw	s3,380(sp)
   1054c:	6159                	add	sp,sp,400
   1054e:	8082                	ret
   10550:	854e                	mv	a0,s3
   10552:	7e4040ef          	jal	14d36 <_localeconv_r>
   10556:	415c                	lw	a5,4(a0)
   10558:	853e                	mv	a0,a5
   1055a:	c6be                	sw	a5,76(sp)
   1055c:	2a1040ef          	jal	14ffc <strlen>
   10560:	87aa                	mv	a5,a0
   10562:	854e                	mv	a0,s3
   10564:	8cbe                	mv	s9,a5
   10566:	c8be                	sw	a5,80(sp)
   10568:	7ce040ef          	jal	14d36 <_localeconv_r>
   1056c:	4518                	lw	a4,8(a0)
   1056e:	de3a                	sw	a4,60(sp)
   10570:	480c93e3          	bnez	s9,111f6 <_vfprintf_r+0xf58>
   10574:	00094e03          	lbu	t3,0(s2)
   10578:	bd91                	j	103cc <_vfprintf_r+0x12e>
   1057a:	4621                	li	a2,8
   1057c:	4581                	li	a1,0
   1057e:	0908                	add	a0,sp,144
   10580:	08f040ef          	jal	14e0e <memset>
   10584:	4505                	li	a0,1
   10586:	992a                	add	s2,s2,a0
   10588:	bbed                	j	10382 <_vfprintf_r+0xe4>
   1058a:	84aa                	mv	s1,a0
   1058c:	41890cb3          	sub	s9,s2,s8
   10590:	03890563          	beq	s2,s8,105ba <_vfprintf_r+0x31c>
   10594:	56aa                	lw	a3,168(sp)
   10596:	571a                	lw	a4,164(sp)
   10598:	01842023          	sw	s8,0(s0)
   1059c:	96e6                	add	a3,a3,s9
   1059e:	0705                	add	a4,a4,1
   105a0:	01942223          	sw	s9,4(s0)
   105a4:	d536                	sw	a3,168(sp)
   105a6:	d33a                	sw	a4,164(sp)
   105a8:	469d                	li	a3,7
   105aa:	0421                	add	s0,s0,8
   105ac:	02e6c063          	blt	a3,a4,105cc <_vfprintf_r+0x32e>
   105b0:	47b2                	lw	a5,12(sp)
   105b2:	97e6                	add	a5,a5,s9
   105b4:	c63e                	sw	a5,12(sp)
   105b6:	de049ee3          	bnez	s1,103b2 <_vfprintf_r+0x114>
   105ba:	57aa                	lw	a5,168(sp)
   105bc:	c399                	beqz	a5,105c2 <_vfprintf_r+0x324>
   105be:	3c60106f          	j	11984 <_vfprintf_r+0x16e6>
   105c2:	47a2                	lw	a5,8(sp)
   105c4:	d302                	sw	zero,164(sp)
   105c6:	00c79783          	lh	a5,12(a5)
   105ca:	a815                	j	105fe <_vfprintf_r+0x360>
   105cc:	45a2                	lw	a1,8(sp)
   105ce:	1110                	add	a2,sp,160
   105d0:	854e                	mv	a0,s3
   105d2:	641010ef          	jal	12412 <__sprint_r>
   105d6:	e10d                	bnez	a0,105f8 <_vfprintf_r+0x35a>
   105d8:	1160                	add	s0,sp,172
   105da:	bfd9                	j	105b0 <_vfprintf_r+0x312>
   105dc:	45a2                	lw	a1,8(sp)
   105de:	1110                	add	a2,sp,160
   105e0:	854e                	mv	a0,s3
   105e2:	631010ef          	jal	12412 <__sprint_r>
   105e6:	ee050de3          	beqz	a0,104e0 <_vfprintf_r+0x242>
   105ea:	4f42                	lw	t5,16(sp)
   105ec:	000f0663          	beqz	t5,105f8 <_vfprintf_r+0x35a>
   105f0:	85fa                	mv	a1,t5
   105f2:	854e                	mv	a0,s3
   105f4:	0d2060ef          	jal	166c6 <_free_r>
   105f8:	47a2                	lw	a5,8(sp)
   105fa:	00c79783          	lh	a5,12(a5)
   105fe:	4722                	lw	a4,8(sp)
   10600:	5378                	lw	a4,100(a4)
   10602:	8b05                	and	a4,a4,1
   10604:	2a070563          	beqz	a4,108ae <_vfprintf_r+0x610>
   10608:	0407f793          	and	a5,a5,64
   1060c:	18412483          	lw	s1,388(sp)
   10610:	18012903          	lw	s2,384(sp)
   10614:	17812a03          	lw	s4,376(sp)
   10618:	17412a83          	lw	s5,372(sp)
   1061c:	17012b03          	lw	s6,368(sp)
   10620:	16c12b83          	lw	s7,364(sp)
   10624:	16812c03          	lw	s8,360(sp)
   10628:	16412c83          	lw	s9,356(sp)
   1062c:	16012d03          	lw	s10,352(sp)
   10630:	15c12d83          	lw	s11,348(sp)
   10634:	c399                	beqz	a5,1063a <_vfprintf_r+0x39c>
   10636:	1cd0106f          	j	12002 <_vfprintf_r+0x1d64>
   1063a:	18c12083          	lw	ra,396(sp)
   1063e:	18812403          	lw	s0,392(sp)
   10642:	4532                	lw	a0,12(sp)
   10644:	17c12983          	lw	s3,380(sp)
   10648:	6159                	add	sp,sp,400
   1064a:	8082                	ret
   1064c:	008a7713          	and	a4,s4,8
   10650:	8f52                	mv	t5,s4
   10652:	8ed6                	mv	t4,s5
   10654:	835a                	mv	t1,s6
   10656:	3a071de3          	bnez	a4,11210 <_vfprintf_r+0xf72>
   1065a:	47d2                	lw	a5,20(sp)
   1065c:	00778a93          	add	s5,a5,7
   10660:	ff8afa93          	and	s5,s5,-8
   10664:	000aa783          	lw	a5,0(s5)
   10668:	d43e                	sw	a5,40(sp)
   1066a:	004aa783          	lw	a5,4(s5)
   1066e:	d63e                	sw	a5,44(sp)
   10670:	008a8793          	add	a5,s5,8
   10674:	ca3e                	sw	a5,20(sp)
   10676:	5a32                	lw	s4,44(sp)
   10678:	0000d717          	auipc	a4,0xd
   1067c:	05870713          	add	a4,a4,88 # 1d6d0 <__SDATA_BEGIN__>
   10680:	00072c83          	lw	s9,0(a4)
   10684:	00472d03          	lw	s10,4(a4)
   10688:	5aa2                	lw	s5,40(sp)
   1068a:	001a1493          	sll	s1,s4,0x1
   1068e:	8085                	srl	s1,s1,0x1
   10690:	8556                	mv	a0,s5
   10692:	85a6                	mv	a1,s1
   10694:	8666                	mv	a2,s9
   10696:	86ea                	mv	a3,s10
   10698:	c29a                	sw	t1,68(sp)
   1069a:	d276                	sw	t4,36(sp)
   1069c:	d072                	sw	t3,32(sp)
   1069e:	c87a                	sw	t5,16(sp)
   106a0:	0180b0ef          	jal	1b6b8 <__unorddf2>
   106a4:	4f42                	lw	t5,16(sp)
   106a6:	5e02                	lw	t3,32(sp)
   106a8:	5e92                	lw	t4,36(sp)
   106aa:	4316                	lw	t1,68(sp)
   106ac:	68051be3          	bnez	a0,11542 <_vfprintf_r+0x12a4>
   106b0:	8556                	mv	a0,s5
   106b2:	85a6                	mv	a1,s1
   106b4:	8666                	mv	a2,s9
   106b6:	86ea                	mv	a3,s10
   106b8:	2d20a0ef          	jal	1a98a <__ledf2>
   106bc:	4f42                	lw	t5,16(sp)
   106be:	5e02                	lw	t3,32(sp)
   106c0:	5e92                	lw	t4,36(sp)
   106c2:	4316                	lw	t1,68(sp)
   106c4:	66a05fe3          	blez	a0,11542 <_vfprintf_r+0x12a4>
   106c8:	8556                	mv	a0,s5
   106ca:	85d2                	mv	a1,s4
   106cc:	4601                	li	a2,0
   106ce:	4681                	li	a3,0
   106d0:	2ba0a0ef          	jal	1a98a <__ledf2>
   106d4:	4f42                	lw	t5,16(sp)
   106d6:	5e02                	lw	t3,32(sp)
   106d8:	5e92                	lw	t4,36(sp)
   106da:	00055463          	bgez	a0,106e2 <_vfprintf_r+0x444>
   106de:	74e0106f          	j	11e2c <_vfprintf_r+0x1b8e>
   106e2:	07714603          	lbu	a2,119(sp)
   106e6:	04700713          	li	a4,71
   106ea:	0000bc17          	auipc	s8,0xb
   106ee:	476c0c13          	add	s8,s8,1142 # 1bb60 <__clzsi2+0x80>
   106f2:	01c74663          	blt	a4,t3,106fe <_vfprintf_r+0x460>
   106f6:	0000bc17          	auipc	s8,0xb
   106fa:	466c0c13          	add	s8,s8,1126 # 1bb5c <__clzsi2+0x7c>
   106fe:	c802                	sw	zero,16(sp)
   10700:	d202                	sw	zero,36(sp)
   10702:	d002                	sw	zero,32(sp)
   10704:	f7ff7f13          	and	t5,t5,-129
   10708:	4c8d                	li	s9,3
   1070a:	4b0d                	li	s6,3
   1070c:	4301                	li	t1,0
   1070e:	4a01                	li	s4,0
   10710:	d20603e3          	beqz	a2,10436 <_vfprintf_r+0x198>
   10714:	0c85                	add	s9,s9,1
   10716:	b305                	j	10436 <_vfprintf_r+0x198>
   10718:	45c1                	li	a1,16
   1071a:	561a                	lw	a2,164(sp)
   1071c:	0000ca97          	auipc	s5,0xc
   10720:	990a8a93          	add	s5,s5,-1648 # 1c0ac <blanks.1>
   10724:	06e5d563          	bge	a1,a4,1078e <_vfprintf_r+0x4f0>
   10728:	87a2                	mv	a5,s0
   1072a:	86a6                	mv	a3,s1
   1072c:	48c1                	li	a7,16
   1072e:	84d6                	mv	s1,s5
   10730:	439d                	li	t2,7
   10732:	8ad2                	mv	s5,s4
   10734:	c296                	sw	t0,68(sp)
   10736:	c4fa                	sw	t5,72(sp)
   10738:	caf2                	sw	t3,84(sp)
   1073a:	ccf6                	sw	t4,88(sp)
   1073c:	843a                	mv	s0,a4
   1073e:	8a1a                	mv	s4,t1
   10740:	a021                	j	10748 <_vfprintf_r+0x4aa>
   10742:	1441                	add	s0,s0,-16
   10744:	0288db63          	bge	a7,s0,1077a <_vfprintf_r+0x4dc>
   10748:	06c1                	add	a3,a3,16
   1074a:	0605                	add	a2,a2,1
   1074c:	c384                	sw	s1,0(a5)
   1074e:	0117a223          	sw	a7,4(a5)
   10752:	d536                	sw	a3,168(sp)
   10754:	d332                	sw	a2,164(sp)
   10756:	07a1                	add	a5,a5,8
   10758:	fec3d5e3          	bge	t2,a2,10742 <_vfprintf_r+0x4a4>
   1075c:	45a2                	lw	a1,8(sp)
   1075e:	1110                	add	a2,sp,160
   10760:	854e                	mv	a0,s3
   10762:	4b1010ef          	jal	12412 <__sprint_r>
   10766:	e80512e3          	bnez	a0,105ea <_vfprintf_r+0x34c>
   1076a:	48c1                	li	a7,16
   1076c:	1441                	add	s0,s0,-16
   1076e:	56aa                	lw	a3,168(sp)
   10770:	561a                	lw	a2,164(sp)
   10772:	117c                	add	a5,sp,172
   10774:	439d                	li	t2,7
   10776:	fc88c9e3          	blt	a7,s0,10748 <_vfprintf_r+0x4aa>
   1077a:	4296                	lw	t0,68(sp)
   1077c:	4f26                	lw	t5,72(sp)
   1077e:	4e56                	lw	t3,84(sp)
   10780:	4ee6                	lw	t4,88(sp)
   10782:	8352                	mv	t1,s4
   10784:	8722                	mv	a4,s0
   10786:	8a56                	mv	s4,s5
   10788:	843e                	mv	s0,a5
   1078a:	8aa6                	mv	s5,s1
   1078c:	84b6                	mv	s1,a3
   1078e:	94ba                	add	s1,s1,a4
   10790:	0605                	add	a2,a2,1
   10792:	c058                	sw	a4,4(s0)
   10794:	01542023          	sw	s5,0(s0)
   10798:	d526                	sw	s1,168(sp)
   1079a:	d332                	sw	a2,164(sp)
   1079c:	471d                	li	a4,7
   1079e:	56c745e3          	blt	a4,a2,11508 <_vfprintf_r+0x126a>
   107a2:	07714603          	lbu	a2,119(sp)
   107a6:	0421                	add	s0,s0,8
   107a8:	b16d                	j	10452 <_vfprintf_r+0x1b4>
   107aa:	45a2                	lw	a1,8(sp)
   107ac:	1110                	add	a2,sp,160
   107ae:	854e                	mv	a0,s3
   107b0:	ce9a                	sw	t1,92(sp)
   107b2:	ccf6                	sw	t4,88(sp)
   107b4:	caf2                	sw	t3,84(sp)
   107b6:	c4fa                	sw	t5,72(sp)
   107b8:	c296                	sw	t0,68(sp)
   107ba:	459010ef          	jal	12412 <__sprint_r>
   107be:	e20516e3          	bnez	a0,105ea <_vfprintf_r+0x34c>
   107c2:	54aa                	lw	s1,168(sp)
   107c4:	4376                	lw	t1,92(sp)
   107c6:	4ee6                	lw	t4,88(sp)
   107c8:	4e56                	lw	t3,84(sp)
   107ca:	4f26                	lw	t5,72(sp)
   107cc:	4296                	lw	t0,68(sp)
   107ce:	1160                	add	s0,sp,172
   107d0:	b145                	j	10470 <_vfprintf_r+0x1d2>
   107d2:	5752                	lw	a4,52(sp)
   107d4:	57c2                	lw	a5,48(sp)
   107d6:	469d                	li	a3,7
   107d8:	c018                	sw	a4,0(s0)
   107da:	571a                	lw	a4,164(sp)
   107dc:	009785b3          	add	a1,a5,s1
   107e0:	c05c                	sw	a5,4(s0)
   107e2:	0705                	add	a4,a4,1
   107e4:	d52e                	sw	a1,168(sp)
   107e6:	d33a                	sw	a4,164(sp)
   107e8:	0421                	add	s0,s0,8
   107ea:	00e6d463          	bge	a3,a4,107f2 <_vfprintf_r+0x554>
   107ee:	1e20106f          	j	119d0 <_vfprintf_r+0x1732>
   107f2:	00065463          	bgez	a2,107fa <_vfprintf_r+0x55c>
   107f6:	0150106f          	j	1200a <_vfprintf_r+0x1d6c>
   107fa:	47e2                	lw	a5,24(sp)
   107fc:	0705                	add	a4,a4,1
   107fe:	01842023          	sw	s8,0(s0)
   10802:	00b784b3          	add	s1,a5,a1
   10806:	c05c                	sw	a5,4(s0)
   10808:	d526                	sw	s1,168(sp)
   1080a:	d33a                	sw	a4,164(sp)
   1080c:	479d                	li	a5,7
   1080e:	cae7d8e3          	bge	a5,a4,104be <_vfprintf_r+0x220>
   10812:	45a2                	lw	a1,8(sp)
   10814:	1110                	add	a2,sp,160
   10816:	854e                	mv	a0,s3
   10818:	d276                	sw	t4,36(sp)
   1081a:	d07a                	sw	t5,32(sp)
   1081c:	3f7010ef          	jal	12412 <__sprint_r>
   10820:	dc0515e3          	bnez	a0,105ea <_vfprintf_r+0x34c>
   10824:	54aa                	lw	s1,168(sp)
   10826:	5f02                	lw	t5,32(sp)
   10828:	5e92                	lw	t4,36(sp)
   1082a:	1160                	add	s0,sp,172
   1082c:	b951                	j	104c0 <_vfprintf_r+0x222>
   1082e:	4741                	li	a4,16
   10830:	579a                	lw	a5,164(sp)
   10832:	0000ca97          	auipc	s5,0xc
   10836:	87aa8a93          	add	s5,s5,-1926 # 1c0ac <blanks.1>
   1083a:	05a75463          	bge	a4,s10,10882 <_vfprintf_r+0x5e4>
   1083e:	8c56                	mv	s8,s5
   10840:	4b41                	li	s6,16
   10842:	4a1d                	li	s4,7
   10844:	8af6                	mv	s5,t4
   10846:	a021                	j	1084e <_vfprintf_r+0x5b0>
   10848:	1d41                	add	s10,s10,-16
   1084a:	03ab5a63          	bge	s6,s10,1087e <_vfprintf_r+0x5e0>
   1084e:	04c1                	add	s1,s1,16
   10850:	0785                	add	a5,a5,1
   10852:	01842023          	sw	s8,0(s0)
   10856:	01642223          	sw	s6,4(s0)
   1085a:	d526                	sw	s1,168(sp)
   1085c:	d33e                	sw	a5,164(sp)
   1085e:	0421                	add	s0,s0,8
   10860:	fefa54e3          	bge	s4,a5,10848 <_vfprintf_r+0x5aa>
   10864:	45a2                	lw	a1,8(sp)
   10866:	1110                	add	a2,sp,160
   10868:	854e                	mv	a0,s3
   1086a:	3a9010ef          	jal	12412 <__sprint_r>
   1086e:	d6051ee3          	bnez	a0,105ea <_vfprintf_r+0x34c>
   10872:	1d41                	add	s10,s10,-16
   10874:	54aa                	lw	s1,168(sp)
   10876:	579a                	lw	a5,164(sp)
   10878:	1160                	add	s0,sp,172
   1087a:	fdab4ae3          	blt	s6,s10,1084e <_vfprintf_r+0x5b0>
   1087e:	8ed6                	mv	t4,s5
   10880:	8ae2                	mv	s5,s8
   10882:	94ea                	add	s1,s1,s10
   10884:	0785                	add	a5,a5,1
   10886:	01542023          	sw	s5,0(s0)
   1088a:	01a42223          	sw	s10,4(s0)
   1088e:	d526                	sw	s1,168(sp)
   10890:	d33e                	sw	a5,164(sp)
   10892:	471d                	li	a4,7
   10894:	c2f75ee3          	bge	a4,a5,104d0 <_vfprintf_r+0x232>
   10898:	45a2                	lw	a1,8(sp)
   1089a:	1110                	add	a2,sp,160
   1089c:	854e                	mv	a0,s3
   1089e:	d076                	sw	t4,32(sp)
   108a0:	373010ef          	jal	12412 <__sprint_r>
   108a4:	d40513e3          	bnez	a0,105ea <_vfprintf_r+0x34c>
   108a8:	54aa                	lw	s1,168(sp)
   108aa:	5e82                	lw	t4,32(sp)
   108ac:	b115                	j	104d0 <_vfprintf_r+0x232>
   108ae:	2007f713          	and	a4,a5,512
   108b2:	d4071be3          	bnez	a4,10608 <_vfprintf_r+0x36a>
   108b6:	4422                	lw	s0,8(sp)
   108b8:	4c28                	lw	a0,88(s0)
   108ba:	1f5040ef          	jal	152ae <__retarget_lock_release_recursive>
   108be:	00c41783          	lh	a5,12(s0)
   108c2:	b399                	j	10608 <_vfprintf_r+0x36a>
   108c4:	00094e03          	lbu	t3,0(s2)
   108c8:	020a6a13          	or	s4,s4,32
   108cc:	b601                	j	103cc <_vfprintf_r+0x12e>
   108ce:	4752                	lw	a4,20(sp)
   108d0:	04300793          	li	a5,67
   108d4:	8f52                	mv	t5,s4
   108d6:	8ed6                	mv	t4,s5
   108d8:	00470493          	add	s1,a4,4
   108dc:	26fe07e3          	beq	t3,a5,1134a <_vfprintf_r+0x10ac>
   108e0:	010a7793          	and	a5,s4,16
   108e4:	260793e3          	bnez	a5,1134a <_vfprintf_r+0x10ac>
   108e8:	47d2                	lw	a5,20(sp)
   108ea:	4c85                	li	s9,1
   108ec:	4b05                	li	s6,1
   108ee:	439c                	lw	a5,0(a5)
   108f0:	0ec10c13          	add	s8,sp,236
   108f4:	0ef10623          	sb	a5,236(sp)
   108f8:	06010ba3          	sb	zero,119(sp)
   108fc:	ca26                	sw	s1,20(sp)
   108fe:	4601                	li	a2,0
   10900:	c802                	sw	zero,16(sp)
   10902:	4301                	li	t1,0
   10904:	d202                	sw	zero,36(sp)
   10906:	d002                	sw	zero,32(sp)
   10908:	4a01                	li	s4,0
   1090a:	b635                	j	10436 <_vfprintf_r+0x198>
   1090c:	47d2                	lw	a5,20(sp)
   1090e:	06010ba3          	sb	zero,119(sp)
   10912:	8ed6                	mv	t4,s5
   10914:	0007ac03          	lw	s8,0(a5)
   10918:	8f52                	mv	t5,s4
   1091a:	835a                	mv	t1,s6
   1091c:	00478a93          	add	s5,a5,4
   10920:	200c03e3          	beqz	s8,11326 <_vfprintf_r+0x1088>
   10924:	05300713          	li	a4,83
   10928:	52ee07e3          	beq	t3,a4,11656 <_vfprintf_r+0x13b8>
   1092c:	010a7a13          	and	s4,s4,16
   10930:	520a13e3          	bnez	s4,11656 <_vfprintf_r+0x13b8>
   10934:	000b5463          	bgez	s6,1093c <_vfprintf_r+0x69e>
   10938:	0600106f          	j	11998 <_vfprintf_r+0x16fa>
   1093c:	865a                	mv	a2,s6
   1093e:	4581                	li	a1,0
   10940:	8562                	mv	a0,s8
   10942:	d276                	sw	t4,36(sp)
   10944:	d07a                	sw	t5,32(sp)
   10946:	ca5a                	sw	s6,20(sp)
   10948:	710030ef          	jal	14058 <memchr>
   1094c:	c82a                	sw	a0,16(sp)
   1094e:	4352                	lw	t1,20(sp)
   10950:	5f02                	lw	t5,32(sp)
   10952:	5e92                	lw	t4,36(sp)
   10954:	e119                	bnez	a0,1095a <_vfprintf_r+0x6bc>
   10956:	03f0106f          	j	12194 <_vfprintf_r+0x1ef6>
   1095a:	47c2                	lw	a5,16(sp)
   1095c:	07714603          	lbu	a2,119(sp)
   10960:	ca56                	sw	s5,20(sp)
   10962:	41878b33          	sub	s6,a5,s8
   10966:	fffb4813          	not	a6,s6
   1096a:	41f85813          	sra	a6,a6,0x1f
   1096e:	d202                	sw	zero,36(sp)
   10970:	d002                	sw	zero,32(sp)
   10972:	c802                	sw	zero,16(sp)
   10974:	010b7cb3          	and	s9,s6,a6
   10978:	4301                	li	t1,0
   1097a:	07300e13          	li	t3,115
   1097e:	aa060ce3          	beqz	a2,10436 <_vfprintf_r+0x198>
   10982:	bb49                	j	10714 <_vfprintf_r+0x476>
   10984:	47d2                	lw	a5,20(sp)
   10986:	0007aa83          	lw	s5,0(a5)
   1098a:	0791                	add	a5,a5,4
   1098c:	7c0adb63          	bgez	s5,11162 <_vfprintf_r+0xec4>
   10990:	41500ab3          	neg	s5,s5
   10994:	ca3e                	sw	a5,20(sp)
   10996:	00094e03          	lbu	t3,0(s2)
   1099a:	004a6a13          	or	s4,s4,4
   1099e:	b43d                	j	103cc <_vfprintf_r+0x12e>
   109a0:	00094e03          	lbu	t3,0(s2)
   109a4:	06c00793          	li	a5,108
   109a8:	12fe05e3          	beq	t3,a5,112d2 <_vfprintf_r+0x1034>
   109ac:	010a6a13          	or	s4,s4,16
   109b0:	bc31                	j	103cc <_vfprintf_r+0x12e>
   109b2:	00094e03          	lbu	t3,0(s2)
   109b6:	06800793          	li	a5,104
   109ba:	12fe03e3          	beq	t3,a5,112e0 <_vfprintf_r+0x1042>
   109be:	040a6a13          	or	s4,s4,64
   109c2:	b429                	j	103cc <_vfprintf_r+0x12e>
   109c4:	02b00793          	li	a5,43
   109c8:	00094e03          	lbu	t3,0(s2)
   109cc:	06f10ba3          	sb	a5,119(sp)
   109d0:	baf5                	j	103cc <_vfprintf_r+0x12e>
   109d2:	00094e03          	lbu	t3,0(s2)
   109d6:	080a6a13          	or	s4,s4,128
   109da:	bacd                	j	103cc <_vfprintf_r+0x12e>
   109dc:	00094e03          	lbu	t3,0(s2)
   109e0:	02a00793          	li	a5,42
   109e4:	00190693          	add	a3,s2,1
   109e8:	00fe1463          	bne	t3,a5,109f0 <_vfprintf_r+0x752>
   109ec:	05d0106f          	j	12248 <_vfprintf_r+0x1faa>
   109f0:	fd0e0713          	add	a4,t3,-48
   109f4:	47a5                	li	a5,9
   109f6:	4b01                	li	s6,0
   109f8:	4625                	li	a2,9
   109fa:	02e7e163          	bltu	a5,a4,10a1c <_vfprintf_r+0x77e>
   109fe:	0006ce03          	lbu	t3,0(a3)
   10a02:	002b1793          	sll	a5,s6,0x2
   10a06:	97da                	add	a5,a5,s6
   10a08:	0786                	sll	a5,a5,0x1
   10a0a:	00e78b33          	add	s6,a5,a4
   10a0e:	fd0e0713          	add	a4,t3,-48
   10a12:	0685                	add	a3,a3,1
   10a14:	fee675e3          	bgeu	a2,a4,109fe <_vfprintf_r+0x760>
   10a18:	040b4ae3          	bltz	s6,1126c <_vfprintf_r+0xfce>
   10a1c:	8936                	mv	s2,a3
   10a1e:	ba45                	j	103ce <_vfprintf_r+0x130>
   10a20:	00094e03          	lbu	t3,0(s2)
   10a24:	001a6a13          	or	s4,s4,1
   10a28:	b255                	j	103cc <_vfprintf_r+0x12e>
   10a2a:	07714783          	lbu	a5,119(sp)
   10a2e:	00094e03          	lbu	t3,0(s2)
   10a32:	98079de3          	bnez	a5,103cc <_vfprintf_r+0x12e>
   10a36:	02000793          	li	a5,32
   10a3a:	06f10ba3          	sb	a5,119(sp)
   10a3e:	b279                	j	103cc <_vfprintf_r+0x12e>
   10a40:	8ed6                	mv	t4,s5
   10a42:	835a                	mv	t1,s6
   10a44:	010a6f13          	or	t5,s4,16
   10a48:	020f7793          	and	a5,t5,32
   10a4c:	6c078a63          	beqz	a5,11120 <_vfprintf_r+0xe82>
   10a50:	47d2                	lw	a5,20(sp)
   10a52:	00778a93          	add	s5,a5,7
   10a56:	ff8afa93          	and	s5,s5,-8
   10a5a:	000aa483          	lw	s1,0(s5)
   10a5e:	004aac83          	lw	s9,4(s5)
   10a62:	008a8793          	add	a5,s5,8
   10a66:	ca3e                	sw	a5,20(sp)
   10a68:	bfff7d13          	and	s10,t5,-1025
   10a6c:	4781                	li	a5,0
   10a6e:	4701                	li	a4,0
   10a70:	06e10ba3          	sb	a4,119(sp)
   10a74:	1e034a63          	bltz	t1,10c68 <_vfprintf_r+0x9ca>
   10a78:	0194e733          	or	a4,s1,s9
   10a7c:	f7fd7f13          	and	t5,s10,-129
   10a80:	1e071363          	bnez	a4,10c66 <_vfprintf_r+0x9c8>
   10a84:	22031b63          	bnez	t1,10cba <_vfprintf_r+0xa1c>
   10a88:	14079be3          	bnez	a5,113de <_vfprintf_r+0x1140>
   10a8c:	001d7b13          	and	s6,s10,1
   10a90:	15010c13          	add	s8,sp,336
   10a94:	720b1463          	bnez	s6,111bc <_vfprintf_r+0xf1e>
   10a98:	07714603          	lbu	a2,119(sp)
   10a9c:	8c9a                	mv	s9,t1
   10a9e:	01635363          	bge	t1,s6,10aa4 <_vfprintf_r+0x806>
   10aa2:	8cda                	mv	s9,s6
   10aa4:	c802                	sw	zero,16(sp)
   10aa6:	d202                	sw	zero,36(sp)
   10aa8:	d002                	sw	zero,32(sp)
   10aaa:	4a01                	li	s4,0
   10aac:	980605e3          	beqz	a2,10436 <_vfprintf_r+0x198>
   10ab0:	b195                	j	10714 <_vfprintf_r+0x476>
   10ab2:	8ed6                	mv	t4,s5
   10ab4:	835a                	mv	t1,s6
   10ab6:	010a6d13          	or	s10,s4,16
   10aba:	020d7793          	and	a5,s10,32
   10abe:	64078263          	beqz	a5,11102 <_vfprintf_r+0xe64>
   10ac2:	47d2                	lw	a5,20(sp)
   10ac4:	00778a93          	add	s5,a5,7
   10ac8:	ff8afa93          	and	s5,s5,-8
   10acc:	008a8793          	add	a5,s5,8
   10ad0:	ca3e                	sw	a5,20(sp)
   10ad2:	000aa483          	lw	s1,0(s5)
   10ad6:	004aac83          	lw	s9,4(s5)
   10ada:	4785                	li	a5,1
   10adc:	bf49                	j	10a6e <_vfprintf_r+0x7d0>
   10ade:	00094e03          	lbu	t3,0(s2)
   10ae2:	008a6a13          	or	s4,s4,8
   10ae6:	b0dd                	j	103cc <_vfprintf_r+0x12e>
   10ae8:	8ed6                	mv	t4,s5
   10aea:	835a                	mv	t1,s6
   10aec:	010a6f13          	or	t5,s4,16
   10af0:	020f7793          	and	a5,t5,32
   10af4:	5c078763          	beqz	a5,110c2 <_vfprintf_r+0xe24>
   10af8:	47d2                	lw	a5,20(sp)
   10afa:	00778a93          	add	s5,a5,7
   10afe:	ff8afa93          	and	s5,s5,-8
   10b02:	004aa783          	lw	a5,4(s5)
   10b06:	000aa483          	lw	s1,0(s5)
   10b0a:	008a8713          	add	a4,s5,8
   10b0e:	ca3a                	sw	a4,20(sp)
   10b10:	8cbe                	mv	s9,a5
   10b12:	5c07cb63          	bltz	a5,110e8 <_vfprintf_r+0xe4a>
   10b16:	8d7a                	mv	s10,t5
   10b18:	00034e63          	bltz	t1,10b34 <_vfprintf_r+0x896>
   10b1c:	0194e7b3          	or	a5,s1,s9
   10b20:	f7ff7d13          	and	s10,t5,-129
   10b24:	eb81                	bnez	a5,10b34 <_vfprintf_r+0x896>
   10b26:	00031c63          	bnez	t1,10b3e <_vfprintf_r+0x8a0>
   10b2a:	4b01                	li	s6,0
   10b2c:	8f6a                	mv	t5,s10
   10b2e:	15010c13          	add	s8,sp,336
   10b32:	b79d                	j	10a98 <_vfprintf_r+0x7fa>
   10b34:	100c90e3          	bnez	s9,11434 <_vfprintf_r+0x1196>
   10b38:	47a5                	li	a5,9
   10b3a:	0e97ede3          	bltu	a5,s1,11434 <_vfprintf_r+0x1196>
   10b3e:	03048493          	add	s1,s1,48
   10b42:	149107a3          	sb	s1,335(sp)
   10b46:	8f6a                	mv	t5,s10
   10b48:	4b05                	li	s6,1
   10b4a:	14f10c13          	add	s8,sp,335
   10b4e:	b7a9                	j	10a98 <_vfprintf_r+0x7fa>
   10b50:	4752                	lw	a4,20(sp)
   10b52:	67a1                	lui	a5,0x8
   10b54:	83078793          	add	a5,a5,-2000 # 7830 <exit-0x8864>
   10b58:	06f11c23          	sh	a5,120(sp)
   10b5c:	00470793          	add	a5,a4,4
   10b60:	ca3e                	sw	a5,20(sp)
   10b62:	0000b797          	auipc	a5,0xb
   10b66:	00a78793          	add	a5,a5,10 # 1bb6c <__clzsi2+0x8c>
   10b6a:	dc3e                	sw	a5,56(sp)
   10b6c:	4304                	lw	s1,0(a4)
   10b6e:	8ed6                	mv	t4,s5
   10b70:	835a                	mv	t1,s6
   10b72:	4c81                	li	s9,0
   10b74:	002a6d13          	or	s10,s4,2
   10b78:	4789                	li	a5,2
   10b7a:	07800e13          	li	t3,120
   10b7e:	bdc5                	j	10a6e <_vfprintf_r+0x7d0>
   10b80:	020a7793          	and	a5,s4,32
   10b84:	6c078263          	beqz	a5,11248 <_vfprintf_r+0xfaa>
   10b88:	47d2                	lw	a5,20(sp)
   10b8a:	46b2                	lw	a3,12(sp)
   10b8c:	439c                	lw	a5,0(a5)
   10b8e:	41f6d713          	sra	a4,a3,0x1f
   10b92:	c394                	sw	a3,0(a5)
   10b94:	c3d8                	sw	a4,4(a5)
   10b96:	47d2                	lw	a5,20(sp)
   10b98:	8c4a                	mv	s8,s2
   10b9a:	0791                	add	a5,a5,4
   10b9c:	ca3e                	sw	a5,20(sp)
   10b9e:	fe2ff06f          	j	10380 <_vfprintf_r+0xe2>
   10ba2:	06500713          	li	a4,101
   10ba6:	2bc75b63          	bge	a4,t3,10e5c <_vfprintf_r+0xbbe>
   10baa:	56a2                	lw	a3,40(sp)
   10bac:	5732                	lw	a4,44(sp)
   10bae:	4601                	li	a2,0
   10bb0:	8536                	mv	a0,a3
   10bb2:	85ba                	mv	a1,a4
   10bb4:	4681                	li	a3,0
   10bb6:	c4f6                	sw	t4,72(sp)
   10bb8:	c2fa                	sw	t5,68(sp)
   10bba:	4a7090ef          	jal	1a860 <__eqdf2>
   10bbe:	4f16                	lw	t5,68(sp)
   10bc0:	4ea6                	lw	t4,72(sp)
   10bc2:	36051d63          	bnez	a0,10f3c <_vfprintf_r+0xc9e>
   10bc6:	579a                	lw	a5,164(sp)
   10bc8:	0000b717          	auipc	a4,0xb
   10bcc:	fd470713          	add	a4,a4,-44 # 1bb9c <__clzsi2+0xbc>
   10bd0:	c018                	sw	a4,0(s0)
   10bd2:	0485                	add	s1,s1,1
   10bd4:	4705                	li	a4,1
   10bd6:	0785                	add	a5,a5,1
   10bd8:	c058                	sw	a4,4(s0)
   10bda:	d526                	sw	s1,168(sp)
   10bdc:	d33e                	sw	a5,164(sp)
   10bde:	471d                	li	a4,7
   10be0:	0421                	add	s0,s0,8
   10be2:	24f74ae3          	blt	a4,a5,11636 <_vfprintf_r+0x1398>
   10be6:	57f6                	lw	a5,124(sp)
   10be8:	4762                	lw	a4,24(sp)
   10bea:	56e7d363          	bge	a5,a4,11150 <_vfprintf_r+0xeb2>
   10bee:	57d2                	lw	a5,52(sp)
   10bf0:	5742                	lw	a4,48(sp)
   10bf2:	0421                	add	s0,s0,8
   10bf4:	fef42c23          	sw	a5,-8(s0)
   10bf8:	579a                	lw	a5,164(sp)
   10bfa:	94ba                	add	s1,s1,a4
   10bfc:	fee42e23          	sw	a4,-4(s0)
   10c00:	0785                	add	a5,a5,1
   10c02:	d526                	sw	s1,168(sp)
   10c04:	d33e                	sw	a5,164(sp)
   10c06:	471d                	li	a4,7
   10c08:	70f74163          	blt	a4,a5,1130a <_vfprintf_r+0x106c>
   10c0c:	47e2                	lw	a5,24(sp)
   10c0e:	fff78d13          	add	s10,a5,-1
   10c12:	8ba057e3          	blez	s10,104c0 <_vfprintf_r+0x222>
   10c16:	4741                	li	a4,16
   10c18:	579a                	lw	a5,164(sp)
   10c1a:	0000b297          	auipc	t0,0xb
   10c1e:	48228293          	add	t0,t0,1154 # 1c09c <zeroes.0>
   10c22:	33a753e3          	bge	a4,s10,11748 <_vfprintf_r+0x14aa>
   10c26:	8726                	mv	a4,s1
   10c28:	4b41                	li	s6,16
   10c2a:	4a9d                	li	s5,7
   10c2c:	8c7a                	mv	s8,t5
   10c2e:	84f6                	mv	s1,t4
   10c30:	8a16                	mv	s4,t0
   10c32:	a021                	j	10c3a <_vfprintf_r+0x99c>
   10c34:	1d41                	add	s10,s10,-16
   10c36:	31ab55e3          	bge	s6,s10,11740 <_vfprintf_r+0x14a2>
   10c3a:	0741                	add	a4,a4,16
   10c3c:	0785                	add	a5,a5,1
   10c3e:	01442023          	sw	s4,0(s0)
   10c42:	01642223          	sw	s6,4(s0)
   10c46:	d53a                	sw	a4,168(sp)
   10c48:	d33e                	sw	a5,164(sp)
   10c4a:	0421                	add	s0,s0,8
   10c4c:	fefad4e3          	bge	s5,a5,10c34 <_vfprintf_r+0x996>
   10c50:	45a2                	lw	a1,8(sp)
   10c52:	1110                	add	a2,sp,160
   10c54:	854e                	mv	a0,s3
   10c56:	7bc010ef          	jal	12412 <__sprint_r>
   10c5a:	980518e3          	bnez	a0,105ea <_vfprintf_r+0x34c>
   10c5e:	572a                	lw	a4,168(sp)
   10c60:	579a                	lw	a5,164(sp)
   10c62:	1160                	add	s0,sp,172
   10c64:	bfc1                	j	10c34 <_vfprintf_r+0x996>
   10c66:	8d7a                	mv	s10,t5
   10c68:	4705                	li	a4,1
   10c6a:	ece785e3          	beq	a5,a4,10b34 <_vfprintf_r+0x896>
   10c6e:	4709                	li	a4,2
   10c70:	04e78e63          	beq	a5,a4,10ccc <_vfprintf_r+0xa2e>
   10c74:	15010c13          	add	s8,sp,336
   10c78:	01dc9793          	sll	a5,s9,0x1d
   10c7c:	0074f713          	and	a4,s1,7
   10c80:	808d                	srl	s1,s1,0x3
   10c82:	03070713          	add	a4,a4,48
   10c86:	8cdd                	or	s1,s1,a5
   10c88:	003cdc93          	srl	s9,s9,0x3
   10c8c:	feec0fa3          	sb	a4,-1(s8)
   10c90:	0194e7b3          	or	a5,s1,s9
   10c94:	8662                	mv	a2,s8
   10c96:	1c7d                	add	s8,s8,-1
   10c98:	f3e5                	bnez	a5,10c78 <_vfprintf_r+0x9da>
   10c9a:	001d7693          	and	a3,s10,1
   10c9e:	cab9                	beqz	a3,10cf4 <_vfprintf_r+0xa56>
   10ca0:	03000693          	li	a3,48
   10ca4:	04d70863          	beq	a4,a3,10cf4 <_vfprintf_r+0xa56>
   10ca8:	1679                	add	a2,a2,-2
   10caa:	0a9c                	add	a5,sp,336
   10cac:	fedc0fa3          	sb	a3,-1(s8)
   10cb0:	40c78b33          	sub	s6,a5,a2
   10cb4:	8f6a                	mv	t5,s10
   10cb6:	8c32                	mv	s8,a2
   10cb8:	b3c5                	j	10a98 <_vfprintf_r+0x7fa>
   10cba:	4705                	li	a4,1
   10cbc:	00e79463          	bne	a5,a4,10cc4 <_vfprintf_r+0xa26>
   10cc0:	2f00106f          	j	11fb0 <_vfprintf_r+0x1d12>
   10cc4:	4709                	li	a4,2
   10cc6:	8d7a                	mv	s10,t5
   10cc8:	fae796e3          	bne	a5,a4,10c74 <_vfprintf_r+0x9d6>
   10ccc:	56e2                	lw	a3,56(sp)
   10cce:	15010c13          	add	s8,sp,336
   10cd2:	00f4f793          	and	a5,s1,15
   10cd6:	97b6                	add	a5,a5,a3
   10cd8:	0007c703          	lbu	a4,0(a5)
   10cdc:	8091                	srl	s1,s1,0x4
   10cde:	01cc9793          	sll	a5,s9,0x1c
   10ce2:	8cdd                	or	s1,s1,a5
   10ce4:	004cdc93          	srl	s9,s9,0x4
   10ce8:	feec0fa3          	sb	a4,-1(s8)
   10cec:	0194e7b3          	or	a5,s1,s9
   10cf0:	1c7d                	add	s8,s8,-1
   10cf2:	f3e5                	bnez	a5,10cd2 <_vfprintf_r+0xa34>
   10cf4:	0a9c                	add	a5,sp,336
   10cf6:	41878b33          	sub	s6,a5,s8
   10cfa:	8f6a                	mv	t5,s10
   10cfc:	bb71                	j	10a98 <_vfprintf_r+0x7fa>
   10cfe:	419e8ab3          	sub	s5,t4,s9
   10d02:	f9505a63          	blez	s5,10496 <_vfprintf_r+0x1f8>
   10d06:	45c1                	li	a1,16
   10d08:	561a                	lw	a2,164(sp)
   10d0a:	0000b297          	auipc	t0,0xb
   10d0e:	39228293          	add	t0,t0,914 # 1c09c <zeroes.0>
   10d12:	0755d263          	bge	a1,s5,10d76 <_vfprintf_r+0xad8>
   10d16:	87a2                	mv	a5,s0
   10d18:	8726                	mv	a4,s1
   10d1a:	8456                	mv	s0,s5
   10d1c:	48c1                	li	a7,16
   10d1e:	8ad2                	mv	s5,s4
   10d20:	4d1d                	li	s10,7
   10d22:	c2fa                	sw	t5,68(sp)
   10d24:	c4f2                	sw	t3,72(sp)
   10d26:	caf6                	sw	t4,84(sp)
   10d28:	8a1a                	mv	s4,t1
   10d2a:	8496                	mv	s1,t0
   10d2c:	a021                	j	10d34 <_vfprintf_r+0xa96>
   10d2e:	1441                	add	s0,s0,-16
   10d30:	0288da63          	bge	a7,s0,10d64 <_vfprintf_r+0xac6>
   10d34:	0741                	add	a4,a4,16
   10d36:	0605                	add	a2,a2,1
   10d38:	c384                	sw	s1,0(a5)
   10d3a:	0117a223          	sw	a7,4(a5)
   10d3e:	d53a                	sw	a4,168(sp)
   10d40:	d332                	sw	a2,164(sp)
   10d42:	07a1                	add	a5,a5,8
   10d44:	fecd55e3          	bge	s10,a2,10d2e <_vfprintf_r+0xa90>
   10d48:	45a2                	lw	a1,8(sp)
   10d4a:	1110                	add	a2,sp,160
   10d4c:	854e                	mv	a0,s3
   10d4e:	6c4010ef          	jal	12412 <__sprint_r>
   10d52:	88051ce3          	bnez	a0,105ea <_vfprintf_r+0x34c>
   10d56:	48c1                	li	a7,16
   10d58:	1441                	add	s0,s0,-16
   10d5a:	572a                	lw	a4,168(sp)
   10d5c:	561a                	lw	a2,164(sp)
   10d5e:	117c                	add	a5,sp,172
   10d60:	fc88cae3          	blt	a7,s0,10d34 <_vfprintf_r+0xa96>
   10d64:	4f16                	lw	t5,68(sp)
   10d66:	4e26                	lw	t3,72(sp)
   10d68:	4ed6                	lw	t4,84(sp)
   10d6a:	8352                	mv	t1,s4
   10d6c:	82a6                	mv	t0,s1
   10d6e:	8a56                	mv	s4,s5
   10d70:	84ba                	mv	s1,a4
   10d72:	8aa2                	mv	s5,s0
   10d74:	843e                	mv	s0,a5
   10d76:	94d6                	add	s1,s1,s5
   10d78:	0605                	add	a2,a2,1
   10d7a:	00542023          	sw	t0,0(s0)
   10d7e:	01542223          	sw	s5,4(s0)
   10d82:	d526                	sw	s1,168(sp)
   10d84:	d332                	sw	a2,164(sp)
   10d86:	471d                	li	a4,7
   10d88:	0421                	add	s0,s0,8
   10d8a:	f0c75663          	bge	a4,a2,10496 <_vfprintf_r+0x1f8>
   10d8e:	45a2                	lw	a1,8(sp)
   10d90:	1110                	add	a2,sp,160
   10d92:	854e                	mv	a0,s3
   10d94:	cc9a                	sw	t1,88(sp)
   10d96:	caf6                	sw	t4,84(sp)
   10d98:	c4f2                	sw	t3,72(sp)
   10d9a:	c2fa                	sw	t5,68(sp)
   10d9c:	676010ef          	jal	12412 <__sprint_r>
   10da0:	840515e3          	bnez	a0,105ea <_vfprintf_r+0x34c>
   10da4:	54aa                	lw	s1,168(sp)
   10da6:	4366                	lw	t1,88(sp)
   10da8:	4ed6                	lw	t4,84(sp)
   10daa:	4e26                	lw	t3,72(sp)
   10dac:	4f16                	lw	t5,68(sp)
   10dae:	1160                	add	s0,sp,172
   10db0:	ee6ff06f          	j	10496 <_vfprintf_r+0x1f8>
   10db4:	4741                	li	a4,16
   10db6:	561a                	lw	a2,164(sp)
   10db8:	0000b297          	auipc	t0,0xb
   10dbc:	2e428293          	add	t0,t0,740 # 1c09c <zeroes.0>
   10dc0:	07575163          	bge	a4,s5,10e22 <_vfprintf_r+0xb84>
   10dc4:	87a2                	mv	a5,s0
   10dc6:	86a6                	mv	a3,s1
   10dc8:	8456                	mv	s0,s5
   10dca:	4741                	li	a4,16
   10dcc:	4d1d                	li	s10,7
   10dce:	c2fa                	sw	t5,68(sp)
   10dd0:	c4f2                	sw	t3,72(sp)
   10dd2:	84f6                	mv	s1,t4
   10dd4:	8a96                	mv	s5,t0
   10dd6:	a021                	j	10dde <_vfprintf_r+0xb40>
   10dd8:	1441                	add	s0,s0,-16
   10dda:	02875d63          	bge	a4,s0,10e14 <_vfprintf_r+0xb76>
   10dde:	06c1                	add	a3,a3,16
   10de0:	0605                	add	a2,a2,1
   10de2:	0000b597          	auipc	a1,0xb
   10de6:	2ba58593          	add	a1,a1,698 # 1c09c <zeroes.0>
   10dea:	c38c                	sw	a1,0(a5)
   10dec:	c3d8                	sw	a4,4(a5)
   10dee:	d536                	sw	a3,168(sp)
   10df0:	d332                	sw	a2,164(sp)
   10df2:	07a1                	add	a5,a5,8
   10df4:	fecd52e3          	bge	s10,a2,10dd8 <_vfprintf_r+0xb3a>
   10df8:	45a2                	lw	a1,8(sp)
   10dfa:	1110                	add	a2,sp,160
   10dfc:	854e                	mv	a0,s3
   10dfe:	614010ef          	jal	12412 <__sprint_r>
   10e02:	fe051463          	bnez	a0,105ea <_vfprintf_r+0x34c>
   10e06:	4741                	li	a4,16
   10e08:	1441                	add	s0,s0,-16
   10e0a:	56aa                	lw	a3,168(sp)
   10e0c:	561a                	lw	a2,164(sp)
   10e0e:	117c                	add	a5,sp,172
   10e10:	fc8747e3          	blt	a4,s0,10dde <_vfprintf_r+0xb40>
   10e14:	4f16                	lw	t5,68(sp)
   10e16:	4e26                	lw	t3,72(sp)
   10e18:	8ea6                	mv	t4,s1
   10e1a:	82d6                	mv	t0,s5
   10e1c:	84b6                	mv	s1,a3
   10e1e:	8aa2                	mv	s5,s0
   10e20:	843e                	mv	s0,a5
   10e22:	94d6                	add	s1,s1,s5
   10e24:	0605                	add	a2,a2,1
   10e26:	00542023          	sw	t0,0(s0)
   10e2a:	01542223          	sw	s5,4(s0)
   10e2e:	d526                	sw	s1,168(sp)
   10e30:	d332                	sw	a2,164(sp)
   10e32:	471d                	li	a4,7
   10e34:	0421                	add	s0,s0,8
   10e36:	e6c75463          	bge	a4,a2,1049e <_vfprintf_r+0x200>
   10e3a:	45a2                	lw	a1,8(sp)
   10e3c:	1110                	add	a2,sp,160
   10e3e:	854e                	mv	a0,s3
   10e40:	caf6                	sw	t4,84(sp)
   10e42:	c4f2                	sw	t3,72(sp)
   10e44:	c2fa                	sw	t5,68(sp)
   10e46:	5cc010ef          	jal	12412 <__sprint_r>
   10e4a:	fa051063          	bnez	a0,105ea <_vfprintf_r+0x34c>
   10e4e:	54aa                	lw	s1,168(sp)
   10e50:	4ed6                	lw	t4,84(sp)
   10e52:	4e26                	lw	t3,72(sp)
   10e54:	4f16                	lw	t5,68(sp)
   10e56:	1160                	add	s0,sp,172
   10e58:	e46ff06f          	j	1049e <_vfprintf_r+0x200>
   10e5c:	5d1a                	lw	s10,164(sp)
   10e5e:	47e2                	lw	a5,24(sp)
   10e60:	4685                	li	a3,1
   10e62:	01842023          	sw	s8,0(s0)
   10e66:	0485                	add	s1,s1,1
   10e68:	0d05                	add	s10,s10,1
   10e6a:	00840a93          	add	s5,s0,8
   10e6e:	1cf6d363          	bge	a3,a5,11034 <_vfprintf_r+0xd96>
   10e72:	4685                	li	a3,1
   10e74:	c054                	sw	a3,4(s0)
   10e76:	d526                	sw	s1,168(sp)
   10e78:	d36a                	sw	s10,164(sp)
   10e7a:	469d                	li	a3,7
   10e7c:	59a6c663          	blt	a3,s10,11408 <_vfprintf_r+0x116a>
   10e80:	57c2                	lw	a5,48(sp)
   10e82:	5752                	lw	a4,52(sp)
   10e84:	0d05                	add	s10,s10,1
   10e86:	94be                	add	s1,s1,a5
   10e88:	00eaa023          	sw	a4,0(s5)
   10e8c:	00faa223          	sw	a5,4(s5)
   10e90:	d526                	sw	s1,168(sp)
   10e92:	d36a                	sw	s10,164(sp)
   10e94:	469d                	li	a3,7
   10e96:	0aa1                	add	s5,s5,8
   10e98:	55a6c863          	blt	a3,s10,113e8 <_vfprintf_r+0x114a>
   10e9c:	5622                	lw	a2,40(sp)
   10e9e:	56b2                	lw	a3,44(sp)
   10ea0:	47e2                	lw	a5,24(sp)
   10ea2:	8532                	mv	a0,a2
   10ea4:	85b6                	mv	a1,a3
   10ea6:	4601                	li	a2,0
   10ea8:	4681                	li	a3,0
   10eaa:	d276                	sw	t4,36(sp)
   10eac:	d07a                	sw	t5,32(sp)
   10eae:	fff78413          	add	s0,a5,-1
   10eb2:	1af090ef          	jal	1a860 <__eqdf2>
   10eb6:	5f02                	lw	t5,32(sp)
   10eb8:	5e92                	lw	t4,36(sp)
   10eba:	1a050763          	beqz	a0,11068 <_vfprintf_r+0xdca>
   10ebe:	001c0793          	add	a5,s8,1
   10ec2:	0d05                	add	s10,s10,1
   10ec4:	94a2                	add	s1,s1,s0
   10ec6:	00faa023          	sw	a5,0(s5)
   10eca:	008aa223          	sw	s0,4(s5)
   10ece:	d526                	sw	s1,168(sp)
   10ed0:	d36a                	sw	s10,164(sp)
   10ed2:	479d                	li	a5,7
   10ed4:	0aa1                	add	s5,s5,8
   10ed6:	73a7cf63          	blt	a5,s10,11614 <_vfprintf_r+0x1376>
   10eda:	4706                	lw	a4,64(sp)
   10edc:	013c                	add	a5,sp,136
   10ede:	0d05                	add	s10,s10,1
   10ee0:	94ba                	add	s1,s1,a4
   10ee2:	00faa023          	sw	a5,0(s5)
   10ee6:	00eaa223          	sw	a4,4(s5)
   10eea:	d526                	sw	s1,168(sp)
   10eec:	d36a                	sw	s10,164(sp)
   10eee:	479d                	li	a5,7
   10ef0:	008a8413          	add	s0,s5,8
   10ef4:	dda7d663          	bge	a5,s10,104c0 <_vfprintf_r+0x222>
   10ef8:	45a2                	lw	a1,8(sp)
   10efa:	1110                	add	a2,sp,160
   10efc:	854e                	mv	a0,s3
   10efe:	d276                	sw	t4,36(sp)
   10f00:	d07a                	sw	t5,32(sp)
   10f02:	510010ef          	jal	12412 <__sprint_r>
   10f06:	ee051263          	bnez	a0,105ea <_vfprintf_r+0x34c>
   10f0a:	54aa                	lw	s1,168(sp)
   10f0c:	5e92                	lw	t4,36(sp)
   10f0e:	5f02                	lw	t5,32(sp)
   10f10:	1160                	add	s0,sp,172
   10f12:	daeff06f          	j	104c0 <_vfprintf_r+0x222>
   10f16:	45a2                	lw	a1,8(sp)
   10f18:	1110                	add	a2,sp,160
   10f1a:	854e                	mv	a0,s3
   10f1c:	cc9a                	sw	t1,88(sp)
   10f1e:	caf6                	sw	t4,84(sp)
   10f20:	c4f2                	sw	t3,72(sp)
   10f22:	c2fa                	sw	t5,68(sp)
   10f24:	4ee010ef          	jal	12412 <__sprint_r>
   10f28:	ec051163          	bnez	a0,105ea <_vfprintf_r+0x34c>
   10f2c:	54aa                	lw	s1,168(sp)
   10f2e:	4366                	lw	t1,88(sp)
   10f30:	4ed6                	lw	t4,84(sp)
   10f32:	4e26                	lw	t3,72(sp)
   10f34:	4f16                	lw	t5,68(sp)
   10f36:	1160                	add	s0,sp,172
   10f38:	d56ff06f          	j	1048e <_vfprintf_r+0x1f0>
   10f3c:	5676                	lw	a2,124(sp)
   10f3e:	22c05763          	blez	a2,1116c <_vfprintf_r+0xece>
   10f42:	47e2                	lw	a5,24(sp)
   10f44:	8ad2                	mv	s5,s4
   10f46:	0147d363          	bge	a5,s4,10f4c <_vfprintf_r+0xcae>
   10f4a:	8abe                	mv	s5,a5
   10f4c:	03505163          	blez	s5,10f6e <_vfprintf_r+0xcd0>
   10f50:	569a                	lw	a3,164(sp)
   10f52:	94d6                	add	s1,s1,s5
   10f54:	01842023          	sw	s8,0(s0)
   10f58:	0685                	add	a3,a3,1
   10f5a:	01542223          	sw	s5,4(s0)
   10f5e:	d526                	sw	s1,168(sp)
   10f60:	d336                	sw	a3,164(sp)
   10f62:	461d                	li	a2,7
   10f64:	0421                	add	s0,s0,8
   10f66:	00d65463          	bge	a2,a3,10f6e <_vfprintf_r+0xcd0>
   10f6a:	7890006f          	j	11ef2 <_vfprintf_r+0x1c54>
   10f6e:	fffac693          	not	a3,s5
   10f72:	86fd                	sra	a3,a3,0x1f
   10f74:	00daf733          	and	a4,s5,a3
   10f78:	40ea0ab3          	sub	s5,s4,a4
   10f7c:	015046e3          	bgtz	s5,11788 <_vfprintf_r+0x14ea>
   10f80:	400f7713          	and	a4,t5,1024
   10f84:	014c0b33          	add	s6,s8,s4
   10f88:	500714e3          	bnez	a4,11c90 <_vfprintf_r+0x19f2>
   10f8c:	5d76                	lw	s10,124(sp)
   10f8e:	47e2                	lw	a5,24(sp)
   10f90:	3efd4d63          	blt	s10,a5,1138a <_vfprintf_r+0x10ec>
   10f94:	001f7713          	and	a4,t5,1
   10f98:	3e071963          	bnez	a4,1138a <_vfprintf_r+0x10ec>
   10f9c:	4762                	lw	a4,24(sp)
   10f9e:	00ec07b3          	add	a5,s8,a4
   10fa2:	41a70d33          	sub	s10,a4,s10
   10fa6:	41678ab3          	sub	s5,a5,s6
   10faa:	015d5363          	bge	s10,s5,10fb0 <_vfprintf_r+0xd12>
   10fae:	8aea                	mv	s5,s10
   10fb0:	03505163          	blez	s5,10fd2 <_vfprintf_r+0xd34>
   10fb4:	571a                	lw	a4,164(sp)
   10fb6:	94d6                	add	s1,s1,s5
   10fb8:	01642023          	sw	s6,0(s0)
   10fbc:	0705                	add	a4,a4,1
   10fbe:	01542223          	sw	s5,4(s0)
   10fc2:	d526                	sw	s1,168(sp)
   10fc4:	d33a                	sw	a4,164(sp)
   10fc6:	469d                	li	a3,7
   10fc8:	0421                	add	s0,s0,8
   10fca:	00e6d463          	bge	a3,a4,10fd2 <_vfprintf_r+0xd34>
   10fce:	75d0006f          	j	11f2a <_vfprintf_r+0x1c8c>
   10fd2:	fffac713          	not	a4,s5
   10fd6:	877d                	sra	a4,a4,0x1f
   10fd8:	00eaf7b3          	and	a5,s5,a4
   10fdc:	40fd0d33          	sub	s10,s10,a5
   10fe0:	cfa05063          	blez	s10,104c0 <_vfprintf_r+0x222>
   10fe4:	4741                	li	a4,16
   10fe6:	579a                	lw	a5,164(sp)
   10fe8:	0000b297          	auipc	t0,0xb
   10fec:	0b428293          	add	t0,t0,180 # 1c09c <zeroes.0>
   10ff0:	75a75c63          	bge	a4,s10,11748 <_vfprintf_r+0x14aa>
   10ff4:	8726                	mv	a4,s1
   10ff6:	4b41                	li	s6,16
   10ff8:	4a9d                	li	s5,7
   10ffa:	8c7a                	mv	s8,t5
   10ffc:	84f6                	mv	s1,t4
   10ffe:	8a16                	mv	s4,t0
   11000:	a021                	j	11008 <_vfprintf_r+0xd6a>
   11002:	1d41                	add	s10,s10,-16
   11004:	73ab5e63          	bge	s6,s10,11740 <_vfprintf_r+0x14a2>
   11008:	0741                	add	a4,a4,16
   1100a:	0785                	add	a5,a5,1
   1100c:	01442023          	sw	s4,0(s0)
   11010:	01642223          	sw	s6,4(s0)
   11014:	d53a                	sw	a4,168(sp)
   11016:	d33e                	sw	a5,164(sp)
   11018:	0421                	add	s0,s0,8
   1101a:	fefad4e3          	bge	s5,a5,11002 <_vfprintf_r+0xd64>
   1101e:	45a2                	lw	a1,8(sp)
   11020:	1110                	add	a2,sp,160
   11022:	854e                	mv	a0,s3
   11024:	3ee010ef          	jal	12412 <__sprint_r>
   11028:	dc051163          	bnez	a0,105ea <_vfprintf_r+0x34c>
   1102c:	572a                	lw	a4,168(sp)
   1102e:	579a                	lw	a5,164(sp)
   11030:	1160                	add	s0,sp,172
   11032:	bfc1                	j	11002 <_vfprintf_r+0xd64>
   11034:	001f7613          	and	a2,t5,1
   11038:	e2061de3          	bnez	a2,10e72 <_vfprintf_r+0xbd4>
   1103c:	c054                	sw	a3,4(s0)
   1103e:	d526                	sw	s1,168(sp)
   11040:	d36a                	sw	s10,164(sp)
   11042:	479d                	li	a5,7
   11044:	e9a7dbe3          	bge	a5,s10,10eda <_vfprintf_r+0xc3c>
   11048:	45a2                	lw	a1,8(sp)
   1104a:	1110                	add	a2,sp,160
   1104c:	854e                	mv	a0,s3
   1104e:	d276                	sw	t4,36(sp)
   11050:	d07a                	sw	t5,32(sp)
   11052:	3c0010ef          	jal	12412 <__sprint_r>
   11056:	d8051a63          	bnez	a0,105ea <_vfprintf_r+0x34c>
   1105a:	54aa                	lw	s1,168(sp)
   1105c:	5d1a                	lw	s10,164(sp)
   1105e:	5e92                	lw	t4,36(sp)
   11060:	5f02                	lw	t5,32(sp)
   11062:	0ac10a93          	add	s5,sp,172
   11066:	bd95                	j	10eda <_vfprintf_r+0xc3c>
   11068:	4762                	lw	a4,24(sp)
   1106a:	4785                	li	a5,1
   1106c:	e6e7d7e3          	bge	a5,a4,10eda <_vfprintf_r+0xc3c>
   11070:	47c5                	li	a5,17
   11072:	0000b297          	auipc	t0,0xb
   11076:	02a28293          	add	t0,t0,42 # 1c09c <zeroes.0>
   1107a:	70e7d163          	bge	a5,a4,1177c <_vfprintf_r+0x14de>
   1107e:	8a22                	mv	s4,s0
   11080:	87a6                	mv	a5,s1
   11082:	4c41                	li	s8,16
   11084:	4b1d                	li	s6,7
   11086:	d07a                	sw	t5,32(sp)
   11088:	84f6                	mv	s1,t4
   1108a:	8416                	mv	s0,t0
   1108c:	a021                	j	11094 <_vfprintf_r+0xdf6>
   1108e:	1a41                	add	s4,s4,-16
   11090:	6f4c5163          	bge	s8,s4,11772 <_vfprintf_r+0x14d4>
   11094:	07c1                	add	a5,a5,16
   11096:	0d05                	add	s10,s10,1
   11098:	008aa023          	sw	s0,0(s5)
   1109c:	018aa223          	sw	s8,4(s5)
   110a0:	d53e                	sw	a5,168(sp)
   110a2:	d36a                	sw	s10,164(sp)
   110a4:	0aa1                	add	s5,s5,8
   110a6:	ffab54e3          	bge	s6,s10,1108e <_vfprintf_r+0xdf0>
   110aa:	45a2                	lw	a1,8(sp)
   110ac:	1110                	add	a2,sp,160
   110ae:	854e                	mv	a0,s3
   110b0:	362010ef          	jal	12412 <__sprint_r>
   110b4:	d2051b63          	bnez	a0,105ea <_vfprintf_r+0x34c>
   110b8:	57aa                	lw	a5,168(sp)
   110ba:	5d1a                	lw	s10,164(sp)
   110bc:	0ac10a93          	add	s5,sp,172
   110c0:	b7f9                	j	1108e <_vfprintf_r+0xdf0>
   110c2:	4752                	lw	a4,20(sp)
   110c4:	010f7793          	and	a5,t5,16
   110c8:	4304                	lw	s1,0(a4)
   110ca:	0711                	add	a4,a4,4
   110cc:	ca3a                	sw	a4,20(sp)
   110ce:	12079063          	bnez	a5,111ee <_vfprintf_r+0xf50>
   110d2:	040f7793          	and	a5,t5,64
   110d6:	10078863          	beqz	a5,111e6 <_vfprintf_r+0xf48>
   110da:	04c2                	sll	s1,s1,0x10
   110dc:	84c1                	sra	s1,s1,0x10
   110de:	41f4dc93          	sra	s9,s1,0x1f
   110e2:	87e6                	mv	a5,s9
   110e4:	a207d9e3          	bgez	a5,10b16 <_vfprintf_r+0x878>
   110e8:	009037b3          	snez	a5,s1
   110ec:	41900cb3          	neg	s9,s9
   110f0:	40fc8cb3          	sub	s9,s9,a5
   110f4:	409004b3          	neg	s1,s1
   110f8:	8d7a                	mv	s10,t5
   110fa:	02d00713          	li	a4,45
   110fe:	4785                	li	a5,1
   11100:	ba85                	j	10a70 <_vfprintf_r+0x7d2>
   11102:	4752                	lw	a4,20(sp)
   11104:	010d7793          	and	a5,s10,16
   11108:	4304                	lw	s1,0(a4)
   1110a:	0711                	add	a4,a4,4
   1110c:	ca3a                	sw	a4,20(sp)
   1110e:	e3f9                	bnez	a5,111d4 <_vfprintf_r+0xf36>
   11110:	040d7793          	and	a5,s10,64
   11114:	cbdd                	beqz	a5,111ca <_vfprintf_r+0xf2c>
   11116:	04c2                	sll	s1,s1,0x10
   11118:	80c1                	srl	s1,s1,0x10
   1111a:	4c81                	li	s9,0
   1111c:	4785                	li	a5,1
   1111e:	ba81                	j	10a6e <_vfprintf_r+0x7d0>
   11120:	4752                	lw	a4,20(sp)
   11122:	010f7793          	and	a5,t5,16
   11126:	4304                	lw	s1,0(a4)
   11128:	0711                	add	a4,a4,4
   1112a:	ca3a                	sw	a4,20(sp)
   1112c:	ebdd                	bnez	a5,111e2 <_vfprintf_r+0xf44>
   1112e:	040f7793          	and	a5,t5,64
   11132:	c7c5                	beqz	a5,111da <_vfprintf_r+0xf3c>
   11134:	04c2                	sll	s1,s1,0x10
   11136:	80c1                	srl	s1,s1,0x10
   11138:	4c81                	li	s9,0
   1113a:	b23d                	j	10a68 <_vfprintf_r+0x7ca>
   1113c:	4422                	lw	s0,8(sp)
   1113e:	c63e                	sw	a5,12(sp)
   11140:	4c28                	lw	a0,88(s0)
   11142:	160040ef          	jal	152a2 <__retarget_lock_acquire_recursive>
   11146:	00c41703          	lh	a4,12(s0)
   1114a:	47b2                	lw	a5,12(sp)
   1114c:	9a8ff06f          	j	102f4 <_vfprintf_r+0x56>
   11150:	001f7793          	and	a5,t5,1
   11154:	b6078663          	beqz	a5,104c0 <_vfprintf_r+0x222>
   11158:	bc59                	j	10bee <_vfprintf_r+0x950>
   1115a:	8f52                	mv	t5,s4
   1115c:	8ed6                	mv	t4,s5
   1115e:	835a                	mv	t1,s6
   11160:	ba41                	j	10af0 <_vfprintf_r+0x852>
   11162:	00094e03          	lbu	t3,0(s2)
   11166:	ca3e                	sw	a5,20(sp)
   11168:	a64ff06f          	j	103cc <_vfprintf_r+0x12e>
   1116c:	571a                	lw	a4,164(sp)
   1116e:	0000b697          	auipc	a3,0xb
   11172:	a2e68693          	add	a3,a3,-1490 # 1bb9c <__clzsi2+0xbc>
   11176:	c014                	sw	a3,0(s0)
   11178:	0485                	add	s1,s1,1
   1117a:	4685                	li	a3,1
   1117c:	0705                	add	a4,a4,1
   1117e:	c054                	sw	a3,4(s0)
   11180:	d526                	sw	s1,168(sp)
   11182:	d33a                	sw	a4,164(sp)
   11184:	469d                	li	a3,7
   11186:	0421                	add	s0,s0,8
   11188:	7ae6c463          	blt	a3,a4,11930 <_vfprintf_r+0x1692>
   1118c:	e4061363          	bnez	a2,107d2 <_vfprintf_r+0x534>
   11190:	47e2                	lw	a5,24(sp)
   11192:	001f7713          	and	a4,t5,1
   11196:	8f5d                	or	a4,a4,a5
   11198:	b2070463          	beqz	a4,104c0 <_vfprintf_r+0x222>
   1119c:	5752                	lw	a4,52(sp)
   1119e:	57c2                	lw	a5,48(sp)
   111a0:	469d                	li	a3,7
   111a2:	c018                	sw	a4,0(s0)
   111a4:	571a                	lw	a4,164(sp)
   111a6:	009785b3          	add	a1,a5,s1
   111aa:	c05c                	sw	a5,4(s0)
   111ac:	0705                	add	a4,a4,1
   111ae:	d52e                	sw	a1,168(sp)
   111b0:	d33a                	sw	a4,164(sp)
   111b2:	00e6cfe3          	blt	a3,a4,119d0 <_vfprintf_r+0x1732>
   111b6:	0421                	add	s0,s0,8
   111b8:	e42ff06f          	j	107fa <_vfprintf_r+0x55c>
   111bc:	03000793          	li	a5,48
   111c0:	14f107a3          	sb	a5,335(sp)
   111c4:	14f10c13          	add	s8,sp,335
   111c8:	b8c1                	j	10a98 <_vfprintf_r+0x7fa>
   111ca:	200d7793          	and	a5,s10,512
   111ce:	c399                	beqz	a5,111d4 <_vfprintf_r+0xf36>
   111d0:	0ff4f493          	zext.b	s1,s1
   111d4:	4c81                	li	s9,0
   111d6:	4785                	li	a5,1
   111d8:	b859                	j	10a6e <_vfprintf_r+0x7d0>
   111da:	200f7793          	and	a5,t5,512
   111de:	78079e63          	bnez	a5,1197a <_vfprintf_r+0x16dc>
   111e2:	4c81                	li	s9,0
   111e4:	b051                	j	10a68 <_vfprintf_r+0x7ca>
   111e6:	200f7793          	and	a5,t5,512
   111ea:	78079163          	bnez	a5,1196c <_vfprintf_r+0x16ce>
   111ee:	41f4dc93          	sra	s9,s1,0x1f
   111f2:	87e6                	mv	a5,s9
   111f4:	ba39                	j	10b12 <_vfprintf_r+0x874>
   111f6:	57f2                	lw	a5,60(sp)
   111f8:	00094e03          	lbu	t3,0(s2)
   111fc:	9c078863          	beqz	a5,103cc <_vfprintf_r+0x12e>
   11200:	0007c783          	lbu	a5,0(a5)
   11204:	9c078463          	beqz	a5,103cc <_vfprintf_r+0x12e>
   11208:	400a6a13          	or	s4,s4,1024
   1120c:	9c0ff06f          	j	103cc <_vfprintf_r+0x12e>
   11210:	47d2                	lw	a5,20(sp)
   11212:	1088                	add	a0,sp,96
   11214:	d256                	sw	s5,36(sp)
   11216:	4398                	lw	a4,0(a5)
   11218:	d072                	sw	t3,32(sp)
   1121a:	00478a93          	add	s5,a5,4
   1121e:	4314                	lw	a3,0(a4)
   11220:	c2da                	sw	s6,68(sp)
   11222:	c852                	sw	s4,16(sp)
   11224:	d0b6                	sw	a3,96(sp)
   11226:	4354                	lw	a3,4(a4)
   11228:	d2b6                	sw	a3,100(sp)
   1122a:	4714                	lw	a3,8(a4)
   1122c:	d4b6                	sw	a3,104(sp)
   1122e:	4758                	lw	a4,12(a4)
   11230:	d6ba                	sw	a4,108(sp)
   11232:	6040a0ef          	jal	1b836 <__trunctfdf2>
   11236:	5e02                	lw	t3,32(sp)
   11238:	5e92                	lw	t4,36(sp)
   1123a:	d42a                	sw	a0,40(sp)
   1123c:	d62e                	sw	a1,44(sp)
   1123e:	ca56                	sw	s5,20(sp)
   11240:	8f52                	mv	t5,s4
   11242:	835a                	mv	t1,s6
   11244:	c32ff06f          	j	10676 <_vfprintf_r+0x3d8>
   11248:	010a7793          	and	a5,s4,16
   1124c:	50079d63          	bnez	a5,11766 <_vfprintf_r+0x14c8>
   11250:	040a7793          	and	a5,s4,64
   11254:	70079163          	bnez	a5,11956 <_vfprintf_r+0x16b8>
   11258:	200a7f13          	and	t5,s4,512
   1125c:	500f0563          	beqz	t5,11766 <_vfprintf_r+0x14c8>
   11260:	47d2                	lw	a5,20(sp)
   11262:	4732                	lw	a4,12(sp)
   11264:	439c                	lw	a5,0(a5)
   11266:	00e78023          	sb	a4,0(a5)
   1126a:	b235                	j	10b96 <_vfprintf_r+0x8f8>
   1126c:	5b7d                	li	s6,-1
   1126e:	8936                	mv	s2,a3
   11270:	95eff06f          	j	103ce <_vfprintf_r+0x130>
   11274:	8ed6                	mv	t4,s5
   11276:	835a                	mv	t1,s6
   11278:	8d52                	mv	s10,s4
   1127a:	b081                	j	10aba <_vfprintf_r+0x81c>
   1127c:	0000b797          	auipc	a5,0xb
   11280:	90478793          	add	a5,a5,-1788 # 1bb80 <__clzsi2+0xa0>
   11284:	8f52                	mv	t5,s4
   11286:	8ed6                	mv	t4,s5
   11288:	835a                	mv	t1,s6
   1128a:	dc3e                	sw	a5,56(sp)
   1128c:	020f7793          	and	a5,t5,32
   11290:	12078963          	beqz	a5,113c2 <_vfprintf_r+0x1124>
   11294:	47d2                	lw	a5,20(sp)
   11296:	00778a93          	add	s5,a5,7
   1129a:	ff8afa93          	and	s5,s5,-8
   1129e:	000aa483          	lw	s1,0(s5)
   112a2:	004aac83          	lw	s9,4(s5)
   112a6:	008a8793          	add	a5,s5,8
   112aa:	ca3e                	sw	a5,20(sp)
   112ac:	001f7793          	and	a5,t5,1
   112b0:	cf81                	beqz	a5,112c8 <_vfprintf_r+0x102a>
   112b2:	0194e7b3          	or	a5,s1,s9
   112b6:	cb89                	beqz	a5,112c8 <_vfprintf_r+0x102a>
   112b8:	03000793          	li	a5,48
   112bc:	06f10c23          	sb	a5,120(sp)
   112c0:	07c10ca3          	sb	t3,121(sp)
   112c4:	002f6f13          	or	t5,t5,2
   112c8:	bfff7d13          	and	s10,t5,-1025
   112cc:	4789                	li	a5,2
   112ce:	fa0ff06f          	j	10a6e <_vfprintf_r+0x7d0>
   112d2:	00194e03          	lbu	t3,1(s2)
   112d6:	020a6a13          	or	s4,s4,32
   112da:	0905                	add	s2,s2,1
   112dc:	8f0ff06f          	j	103cc <_vfprintf_r+0x12e>
   112e0:	00194e03          	lbu	t3,1(s2)
   112e4:	200a6a13          	or	s4,s4,512
   112e8:	0905                	add	s2,s2,1
   112ea:	8e2ff06f          	j	103cc <_vfprintf_r+0x12e>
   112ee:	0000b797          	auipc	a5,0xb
   112f2:	87e78793          	add	a5,a5,-1922 # 1bb6c <__clzsi2+0x8c>
   112f6:	8f52                	mv	t5,s4
   112f8:	8ed6                	mv	t4,s5
   112fa:	835a                	mv	t1,s6
   112fc:	dc3e                	sw	a5,56(sp)
   112fe:	b779                	j	1128c <_vfprintf_r+0xfee>
   11300:	8f52                	mv	t5,s4
   11302:	8ed6                	mv	t4,s5
   11304:	835a                	mv	t1,s6
   11306:	f42ff06f          	j	10a48 <_vfprintf_r+0x7aa>
   1130a:	45a2                	lw	a1,8(sp)
   1130c:	1110                	add	a2,sp,160
   1130e:	854e                	mv	a0,s3
   11310:	d276                	sw	t4,36(sp)
   11312:	d07a                	sw	t5,32(sp)
   11314:	0fe010ef          	jal	12412 <__sprint_r>
   11318:	ac051963          	bnez	a0,105ea <_vfprintf_r+0x34c>
   1131c:	54aa                	lw	s1,168(sp)
   1131e:	5e92                	lw	t4,36(sp)
   11320:	5f02                	lw	t5,32(sp)
   11322:	1160                	add	s0,sp,172
   11324:	b0e5                	j	10c0c <_vfprintf_r+0x96e>
   11326:	4799                	li	a5,6
   11328:	8cda                	mv	s9,s6
   1132a:	6367e463          	bltu	a5,s6,11952 <_vfprintf_r+0x16b4>
   1132e:	ca56                	sw	s5,20(sp)
   11330:	c802                	sw	zero,16(sp)
   11332:	8b66                	mv	s6,s9
   11334:	4601                	li	a2,0
   11336:	4301                	li	t1,0
   11338:	d202                	sw	zero,36(sp)
   1133a:	d002                	sw	zero,32(sp)
   1133c:	4a01                	li	s4,0
   1133e:	0000bc17          	auipc	s8,0xb
   11342:	856c0c13          	add	s8,s8,-1962 # 1bb94 <__clzsi2+0xb4>
   11346:	8f0ff06f          	j	10436 <_vfprintf_r+0x198>
   1134a:	4621                	li	a2,8
   1134c:	4581                	li	a1,0
   1134e:	0928                	add	a0,sp,152
   11350:	d276                	sw	t4,36(sp)
   11352:	d072                	sw	t3,32(sp)
   11354:	c87a                	sw	t5,16(sp)
   11356:	2b9030ef          	jal	14e0e <memset>
   1135a:	47d2                	lw	a5,20(sp)
   1135c:	0ec10c13          	add	s8,sp,236
   11360:	0934                	add	a3,sp,152
   11362:	4390                	lw	a2,0(a5)
   11364:	85e2                	mv	a1,s8
   11366:	854e                	mv	a0,s3
   11368:	749030ef          	jal	152b0 <_wcrtomb_r>
   1136c:	57fd                	li	a5,-1
   1136e:	4f42                	lw	t5,16(sp)
   11370:	5e02                	lw	t3,32(sp)
   11372:	5e92                	lw	t4,36(sp)
   11374:	8b2a                	mv	s6,a0
   11376:	6ef50ae3          	beq	a0,a5,1226a <_vfprintf_r+0x1fcc>
   1137a:	fff54813          	not	a6,a0
   1137e:	41f85813          	sra	a6,a6,0x1f
   11382:	01057cb3          	and	s9,a0,a6
   11386:	d72ff06f          	j	108f8 <_vfprintf_r+0x65a>
   1138a:	5752                	lw	a4,52(sp)
   1138c:	57c2                	lw	a5,48(sp)
   1138e:	469d                	li	a3,7
   11390:	c018                	sw	a4,0(s0)
   11392:	571a                	lw	a4,164(sp)
   11394:	94be                	add	s1,s1,a5
   11396:	c05c                	sw	a5,4(s0)
   11398:	0705                	add	a4,a4,1
   1139a:	d526                	sw	s1,168(sp)
   1139c:	d33a                	sw	a4,164(sp)
   1139e:	0421                	add	s0,s0,8
   113a0:	bee6dee3          	bge	a3,a4,10f9c <_vfprintf_r+0xcfe>
   113a4:	45a2                	lw	a1,8(sp)
   113a6:	1110                	add	a2,sp,160
   113a8:	854e                	mv	a0,s3
   113aa:	d276                	sw	t4,36(sp)
   113ac:	d07a                	sw	t5,32(sp)
   113ae:	064010ef          	jal	12412 <__sprint_r>
   113b2:	a2051c63          	bnez	a0,105ea <_vfprintf_r+0x34c>
   113b6:	5d76                	lw	s10,124(sp)
   113b8:	54aa                	lw	s1,168(sp)
   113ba:	5e92                	lw	t4,36(sp)
   113bc:	5f02                	lw	t5,32(sp)
   113be:	1160                	add	s0,sp,172
   113c0:	bef1                	j	10f9c <_vfprintf_r+0xcfe>
   113c2:	4752                	lw	a4,20(sp)
   113c4:	010f7793          	and	a5,t5,16
   113c8:	4304                	lw	s1,0(a4)
   113ca:	0711                	add	a4,a4,4
   113cc:	ca3a                	sw	a4,20(sp)
   113ce:	e3ad                	bnez	a5,11430 <_vfprintf_r+0x1192>
   113d0:	040f7793          	and	a5,t5,64
   113d4:	cbb1                	beqz	a5,11428 <_vfprintf_r+0x118a>
   113d6:	04c2                	sll	s1,s1,0x10
   113d8:	80c1                	srl	s1,s1,0x10
   113da:	4c81                	li	s9,0
   113dc:	bdc1                	j	112ac <_vfprintf_r+0x100e>
   113de:	4b01                	li	s6,0
   113e0:	15010c13          	add	s8,sp,336
   113e4:	eb4ff06f          	j	10a98 <_vfprintf_r+0x7fa>
   113e8:	45a2                	lw	a1,8(sp)
   113ea:	1110                	add	a2,sp,160
   113ec:	854e                	mv	a0,s3
   113ee:	d276                	sw	t4,36(sp)
   113f0:	d07a                	sw	t5,32(sp)
   113f2:	020010ef          	jal	12412 <__sprint_r>
   113f6:	9e051a63          	bnez	a0,105ea <_vfprintf_r+0x34c>
   113fa:	54aa                	lw	s1,168(sp)
   113fc:	5d1a                	lw	s10,164(sp)
   113fe:	5e92                	lw	t4,36(sp)
   11400:	5f02                	lw	t5,32(sp)
   11402:	0ac10a93          	add	s5,sp,172
   11406:	bc59                	j	10e9c <_vfprintf_r+0xbfe>
   11408:	45a2                	lw	a1,8(sp)
   1140a:	1110                	add	a2,sp,160
   1140c:	854e                	mv	a0,s3
   1140e:	d276                	sw	t4,36(sp)
   11410:	d07a                	sw	t5,32(sp)
   11412:	000010ef          	jal	12412 <__sprint_r>
   11416:	9c051a63          	bnez	a0,105ea <_vfprintf_r+0x34c>
   1141a:	54aa                	lw	s1,168(sp)
   1141c:	5d1a                	lw	s10,164(sp)
   1141e:	5e92                	lw	t4,36(sp)
   11420:	5f02                	lw	t5,32(sp)
   11422:	0ac10a93          	add	s5,sp,172
   11426:	bca9                	j	10e80 <_vfprintf_r+0xbe2>
   11428:	200f7793          	and	a5,t5,512
   1142c:	52079c63          	bnez	a5,11964 <_vfprintf_r+0x16c6>
   11430:	4c81                	li	s9,0
   11432:	bdad                	j	112ac <_vfprintf_r+0x100e>
   11434:	ccccdb37          	lui	s6,0xccccd
   11438:	ccccdab7          	lui	s5,0xccccd
   1143c:	5772                	lw	a4,60(sp)
   1143e:	400d7f13          	and	t5,s10,1024
   11442:	4581                	li	a1,0
   11444:	0a90                	add	a2,sp,336
   11446:	4895                	li	a7,5
   11448:	ccdb0b13          	add	s6,s6,-819 # cccccccd <__BSS_END__+0xcccaef85>
   1144c:	ccca8a93          	add	s5,s5,-820 # cccccccc <__BSS_END__+0xcccaef84>
   11450:	0ff00a13          	li	s4,255
   11454:	a081                	j	11494 <_vfprintf_r+0x11f6>
   11456:	009c37b3          	sltu	a5,s8,s1
   1145a:	97e2                	add	a5,a5,s8
   1145c:	0317f7b3          	remu	a5,a5,a7
   11460:	40f487b3          	sub	a5,s1,a5
   11464:	00f4b633          	sltu	a2,s1,a5
   11468:	40cc8633          	sub	a2,s9,a2
   1146c:	03578833          	mul	a6,a5,s5
   11470:	03660633          	mul	a2,a2,s6
   11474:	0367b533          	mulhu	a0,a5,s6
   11478:	9642                	add	a2,a2,a6
   1147a:	036787b3          	mul	a5,a5,s6
   1147e:	962a                	add	a2,a2,a0
   11480:	01f61513          	sll	a0,a2,0x1f
   11484:	8205                	srl	a2,a2,0x1
   11486:	8385                	srl	a5,a5,0x1
   11488:	8fc9                	or	a5,a5,a0
   1148a:	280c83e3          	beqz	s9,11f10 <_vfprintf_r+0x1c72>
   1148e:	8cb2                	mv	s9,a2
   11490:	84be                	mv	s1,a5
   11492:	8636                	mv	a2,a3
   11494:	01948c33          	add	s8,s1,s9
   11498:	009c37b3          	sltu	a5,s8,s1
   1149c:	97e2                	add	a5,a5,s8
   1149e:	0317f7b3          	remu	a5,a5,a7
   114a2:	fff60693          	add	a3,a2,-1
   114a6:	0585                	add	a1,a1,1
   114a8:	40f487b3          	sub	a5,s1,a5
   114ac:	00f4b533          	sltu	a0,s1,a5
   114b0:	40ac8533          	sub	a0,s9,a0
   114b4:	0367b833          	mulhu	a6,a5,s6
   114b8:	03650533          	mul	a0,a0,s6
   114bc:	036787b3          	mul	a5,a5,s6
   114c0:	9542                	add	a0,a0,a6
   114c2:	057e                	sll	a0,a0,0x1f
   114c4:	8385                	srl	a5,a5,0x1
   114c6:	8fc9                	or	a5,a5,a0
   114c8:	00279513          	sll	a0,a5,0x2
   114cc:	97aa                	add	a5,a5,a0
   114ce:	0786                	sll	a5,a5,0x1
   114d0:	40f487b3          	sub	a5,s1,a5
   114d4:	03078793          	add	a5,a5,48
   114d8:	fef60fa3          	sb	a5,-1(a2)
   114dc:	f60f0de3          	beqz	t5,11456 <_vfprintf_r+0x11b8>
   114e0:	00074783          	lbu	a5,0(a4)
   114e4:	f6f599e3          	bne	a1,a5,11456 <_vfprintf_r+0x11b8>
   114e8:	f74587e3          	beq	a1,s4,11456 <_vfprintf_r+0x11b8>
   114ec:	140c98e3          	bnez	s9,11e3c <_vfprintf_r+0x1b9e>
   114f0:	47a5                	li	a5,9
   114f2:	1497e5e3          	bltu	a5,s1,11e3c <_vfprintf_r+0x1b9e>
   114f6:	8c36                	mv	s8,a3
   114f8:	0a9c                	add	a5,sp,336
   114fa:	de3a                	sw	a4,60(sp)
   114fc:	cc2e                	sw	a1,24(sp)
   114fe:	41878b33          	sub	s6,a5,s8
   11502:	8f6a                	mv	t5,s10
   11504:	d94ff06f          	j	10a98 <_vfprintf_r+0x7fa>
   11508:	45a2                	lw	a1,8(sp)
   1150a:	1110                	add	a2,sp,160
   1150c:	854e                	mv	a0,s3
   1150e:	ce9a                	sw	t1,92(sp)
   11510:	ccf6                	sw	t4,88(sp)
   11512:	caf2                	sw	t3,84(sp)
   11514:	c4fa                	sw	t5,72(sp)
   11516:	c296                	sw	t0,68(sp)
   11518:	6fb000ef          	jal	12412 <__sprint_r>
   1151c:	8c051763          	bnez	a0,105ea <_vfprintf_r+0x34c>
   11520:	07714603          	lbu	a2,119(sp)
   11524:	54aa                	lw	s1,168(sp)
   11526:	4376                	lw	t1,92(sp)
   11528:	4ee6                	lw	t4,88(sp)
   1152a:	4e56                	lw	t3,84(sp)
   1152c:	4f26                	lw	t5,72(sp)
   1152e:	4296                	lw	t0,68(sp)
   11530:	1160                	add	s0,sp,172
   11532:	f21fe06f          	j	10452 <_vfprintf_r+0x1b4>
   11536:	854e                	mv	a0,s3
   11538:	5e2020ef          	jal	13b1a <__sinit>
   1153c:	47b2                	lw	a5,12(sp)
   1153e:	da3fe06f          	j	102e0 <_vfprintf_r+0x42>
   11542:	58a2                	lw	a7,40(sp)
   11544:	5732                	lw	a4,44(sp)
   11546:	c29a                	sw	t1,68(sp)
   11548:	8646                	mv	a2,a7
   1154a:	8546                	mv	a0,a7
   1154c:	86ba                	mv	a3,a4
   1154e:	85ba                	mv	a1,a4
   11550:	d276                	sw	t4,36(sp)
   11552:	d072                	sw	t3,32(sp)
   11554:	c87a                	sw	t5,16(sp)
   11556:	1620a0ef          	jal	1b6b8 <__unorddf2>
   1155a:	4f42                	lw	t5,16(sp)
   1155c:	5e02                	lw	t3,32(sp)
   1155e:	5e92                	lw	t4,36(sp)
   11560:	4316                	lw	t1,68(sp)
   11562:	380515e3          	bnez	a0,120ec <_vfprintf_r+0x1e4e>
   11566:	06100713          	li	a4,97
   1156a:	06ee0263          	beq	t3,a4,115ce <_vfprintf_r+0x1330>
   1156e:	04100713          	li	a4,65
   11572:	05800793          	li	a5,88
   11576:	04ee0e63          	beq	t3,a4,115d2 <_vfprintf_r+0x1334>
   1157a:	577d                	li	a4,-1
   1157c:	34e303e3          	beq	t1,a4,120c2 <_vfprintf_r+0x1e24>
   11580:	fdfe7713          	and	a4,t3,-33
   11584:	04700693          	li	a3,71
   11588:	c802                	sw	zero,16(sp)
   1158a:	00d71563          	bne	a4,a3,11594 <_vfprintf_r+0x12f6>
   1158e:	00031363          	bnez	t1,11594 <_vfprintf_r+0x12f6>
   11592:	4305                	li	t1,1
   11594:	100f6793          	or	a5,t5,256
   11598:	8abe                	mv	s5,a5
   1159a:	57b2                	lw	a5,44(sp)
   1159c:	c282                	sw	zero,68(sp)
   1159e:	84be                	mv	s1,a5
   115a0:	0007d863          	bgez	a5,115b0 <_vfprintf_r+0x1312>
   115a4:	800004b7          	lui	s1,0x80000
   115a8:	8cbd                	xor	s1,s1,a5
   115aa:	02d00793          	li	a5,45
   115ae:	c2be                	sw	a5,68(sp)
   115b0:	fbfe0713          	add	a4,t3,-65
   115b4:	02500693          	li	a3,37
   115b8:	26e6e463          	bltu	a3,a4,11820 <_vfprintf_r+0x1582>
   115bc:	0000b697          	auipc	a3,0xb
   115c0:	a4868693          	add	a3,a3,-1464 # 1c004 <__clzsi2+0x524>
   115c4:	070a                	sll	a4,a4,0x2
   115c6:	9736                	add	a4,a4,a3
   115c8:	4318                	lw	a4,0(a4)
   115ca:	9736                	add	a4,a4,a3
   115cc:	8702                	jr	a4
   115ce:	07800793          	li	a5,120
   115d2:	03000713          	li	a4,48
   115d6:	06e10c23          	sb	a4,120(sp)
   115da:	06f10ca3          	sb	a5,121(sp)
   115de:	06300713          	li	a4,99
   115e2:	c802                	sw	zero,16(sp)
   115e4:	002f6f13          	or	t5,t5,2
   115e8:	0ec10c13          	add	s8,sp,236
   115ec:	fa6754e3          	bge	a4,t1,11594 <_vfprintf_r+0x12f6>
   115f0:	00130593          	add	a1,t1,1
   115f4:	854e                	mv	a0,s3
   115f6:	d276                	sw	t4,36(sp)
   115f8:	d072                	sw	t3,32(sp)
   115fa:	cc7a                	sw	t5,24(sp)
   115fc:	c81a                	sw	t1,16(sp)
   115fe:	3c2050ef          	jal	169c0 <_malloc_r>
   11602:	4342                	lw	t1,16(sp)
   11604:	4f62                	lw	t5,24(sp)
   11606:	5e02                	lw	t3,32(sp)
   11608:	5e92                	lw	t4,36(sp)
   1160a:	8c2a                	mv	s8,a0
   1160c:	44050fe3          	beqz	a0,1226a <_vfprintf_r+0x1fcc>
   11610:	c82a                	sw	a0,16(sp)
   11612:	b749                	j	11594 <_vfprintf_r+0x12f6>
   11614:	45a2                	lw	a1,8(sp)
   11616:	1110                	add	a2,sp,160
   11618:	854e                	mv	a0,s3
   1161a:	d276                	sw	t4,36(sp)
   1161c:	d07a                	sw	t5,32(sp)
   1161e:	5f5000ef          	jal	12412 <__sprint_r>
   11622:	c119                	beqz	a0,11628 <_vfprintf_r+0x138a>
   11624:	fc7fe06f          	j	105ea <_vfprintf_r+0x34c>
   11628:	54aa                	lw	s1,168(sp)
   1162a:	5d1a                	lw	s10,164(sp)
   1162c:	5f02                	lw	t5,32(sp)
   1162e:	5e92                	lw	t4,36(sp)
   11630:	0ac10a93          	add	s5,sp,172
   11634:	b05d                	j	10eda <_vfprintf_r+0xc3c>
   11636:	45a2                	lw	a1,8(sp)
   11638:	1110                	add	a2,sp,160
   1163a:	854e                	mv	a0,s3
   1163c:	d276                	sw	t4,36(sp)
   1163e:	d07a                	sw	t5,32(sp)
   11640:	5d3000ef          	jal	12412 <__sprint_r>
   11644:	c119                	beqz	a0,1164a <_vfprintf_r+0x13ac>
   11646:	fa5fe06f          	j	105ea <_vfprintf_r+0x34c>
   1164a:	54aa                	lw	s1,168(sp)
   1164c:	5e92                	lw	t4,36(sp)
   1164e:	5f02                	lw	t5,32(sp)
   11650:	1160                	add	s0,sp,172
   11652:	d94ff06f          	j	10be6 <_vfprintf_r+0x948>
   11656:	4621                	li	a2,8
   11658:	4581                	li	a1,0
   1165a:	0928                	add	a0,sp,152
   1165c:	d21a                	sw	t1,36(sp)
   1165e:	d076                	sw	t4,32(sp)
   11660:	ca72                	sw	t3,20(sp)
   11662:	c87a                	sw	t5,16(sp)
   11664:	c362                	sw	s8,132(sp)
   11666:	7a8030ef          	jal	14e0e <memset>
   1166a:	5312                	lw	t1,36(sp)
   1166c:	4f42                	lw	t5,16(sp)
   1166e:	4e52                	lw	t3,20(sp)
   11670:	5e82                	lw	t4,32(sp)
   11672:	5e034c63          	bltz	t1,11c6a <_vfprintf_r+0x19cc>
   11676:	4b01                	li	s6,0
   11678:	c84a                	sw	s2,16(sp)
   1167a:	4c81                	li	s9,0
   1167c:	895a                	mv	s2,s6
   1167e:	54fd                	li	s1,-1
   11680:	8b56                	mv	s6,s5
   11682:	8a7a                	mv	s4,t5
   11684:	8aa2                	mv	s5,s0
   11686:	8d72                	mv	s10,t3
   11688:	ca76                	sw	t4,20(sp)
   1168a:	841a                	mv	s0,t1
   1168c:	a005                	j	116ac <_vfprintf_r+0x140e>
   1168e:	0934                	add	a3,sp,152
   11690:	11ec                	add	a1,sp,236
   11692:	854e                	mv	a0,s3
   11694:	41d030ef          	jal	152b0 <_wcrtomb_r>
   11698:	229509e3          	beq	a0,s1,120ca <_vfprintf_r+0x1e2c>
   1169c:	00a907b3          	add	a5,s2,a0
   116a0:	00f44a63          	blt	s0,a5,116b4 <_vfprintf_r+0x1416>
   116a4:	0c91                	add	s9,s9,4
   116a6:	2c878de3          	beq	a5,s0,12180 <_vfprintf_r+0x1ee2>
   116aa:	893e                	mv	s2,a5
   116ac:	479a                	lw	a5,132(sp)
   116ae:	97e6                	add	a5,a5,s9
   116b0:	4390                	lw	a2,0(a5)
   116b2:	fe71                	bnez	a2,1168e <_vfprintf_r+0x13f0>
   116b4:	8456                	mv	s0,s5
   116b6:	4ed2                	lw	t4,20(sp)
   116b8:	8ada                	mv	s5,s6
   116ba:	8b4a                	mv	s6,s2
   116bc:	4942                	lw	s2,16(sp)
   116be:	8f52                	mv	t5,s4
   116c0:	8e6a                	mv	t3,s10
   116c2:	7e0b0c63          	beqz	s6,11eba <_vfprintf_r+0x1c1c>
   116c6:	06300793          	li	a5,99
   116ca:	0f67d6e3          	bge	a5,s6,11fb6 <_vfprintf_r+0x1d18>
   116ce:	001b0593          	add	a1,s6,1
   116d2:	854e                	mv	a0,s3
   116d4:	d076                	sw	t4,32(sp)
   116d6:	ca72                	sw	t3,20(sp)
   116d8:	c87a                	sw	t5,16(sp)
   116da:	2e6050ef          	jal	169c0 <_malloc_r>
   116de:	4f42                	lw	t5,16(sp)
   116e0:	4e52                	lw	t3,20(sp)
   116e2:	5e82                	lw	t4,32(sp)
   116e4:	8c2a                	mv	s8,a0
   116e6:	1e0502e3          	beqz	a0,120ca <_vfprintf_r+0x1e2c>
   116ea:	c82a                	sw	a0,16(sp)
   116ec:	4621                	li	a2,8
   116ee:	4581                	li	a1,0
   116f0:	0928                	add	a0,sp,152
   116f2:	d276                	sw	t4,36(sp)
   116f4:	d072                	sw	t3,32(sp)
   116f6:	ca7a                	sw	t5,20(sp)
   116f8:	716030ef          	jal	14e0e <memset>
   116fc:	0938                	add	a4,sp,152
   116fe:	86da                	mv	a3,s6
   11700:	0150                	add	a2,sp,132
   11702:	85e2                	mv	a1,s8
   11704:	854e                	mv	a0,s3
   11706:	459030ef          	jal	1535e <_wcsrtombs_r>
   1170a:	4f52                	lw	t5,20(sp)
   1170c:	5e02                	lw	t3,32(sp)
   1170e:	5e92                	lw	t4,36(sp)
   11710:	36ab1ae3          	bne	s6,a0,12284 <_vfprintf_r+0x1fe6>
   11714:	016c0733          	add	a4,s8,s6
   11718:	00070023          	sb	zero,0(a4)
   1171c:	07714603          	lbu	a2,119(sp)
   11720:	fffb4813          	not	a6,s6
   11724:	41f85813          	sra	a6,a6,0x1f
   11728:	ca56                	sw	s5,20(sp)
   1172a:	d202                	sw	zero,36(sp)
   1172c:	d002                	sw	zero,32(sp)
   1172e:	010b7cb3          	and	s9,s6,a6
   11732:	4301                	li	t1,0
   11734:	4a01                	li	s4,0
   11736:	e219                	bnez	a2,1173c <_vfprintf_r+0x149e>
   11738:	cfffe06f          	j	10436 <_vfprintf_r+0x198>
   1173c:	fd9fe06f          	j	10714 <_vfprintf_r+0x476>
   11740:	8ea6                	mv	t4,s1
   11742:	8f62                	mv	t5,s8
   11744:	84ba                	mv	s1,a4
   11746:	82d2                	mv	t0,s4
   11748:	00542023          	sw	t0,0(s0)
   1174c:	01a42223          	sw	s10,4(s0)
   11750:	94ea                	add	s1,s1,s10
   11752:	0785                	add	a5,a5,1
   11754:	d526                	sw	s1,168(sp)
   11756:	d33e                	sw	a5,164(sp)
   11758:	471d                	li	a4,7
   1175a:	00f74463          	blt	a4,a5,11762 <_vfprintf_r+0x14c4>
   1175e:	d61fe06f          	j	104be <_vfprintf_r+0x220>
   11762:	8b0ff06f          	j	10812 <_vfprintf_r+0x574>
   11766:	47d2                	lw	a5,20(sp)
   11768:	4732                	lw	a4,12(sp)
   1176a:	439c                	lw	a5,0(a5)
   1176c:	c398                	sw	a4,0(a5)
   1176e:	c28ff06f          	j	10b96 <_vfprintf_r+0x8f8>
   11772:	5f02                	lw	t5,32(sp)
   11774:	8ea6                	mv	t4,s1
   11776:	82a2                	mv	t0,s0
   11778:	84be                	mv	s1,a5
   1177a:	8452                	mv	s0,s4
   1177c:	94a2                	add	s1,s1,s0
   1177e:	0d05                	add	s10,s10,1
   11780:	005aa023          	sw	t0,0(s5)
   11784:	f46ff06f          	j	10eca <_vfprintf_r+0xc2c>
   11788:	4641                	li	a2,16
   1178a:	569a                	lw	a3,164(sp)
   1178c:	0000b297          	auipc	t0,0xb
   11790:	91028293          	add	t0,t0,-1776 # 1c09c <zeroes.0>
   11794:	05565a63          	bge	a2,s5,117e8 <_vfprintf_r+0x154a>
   11798:	87a2                	mv	a5,s0
   1179a:	8726                	mv	a4,s1
   1179c:	4d22                	lw	s10,8(sp)
   1179e:	48c1                	li	a7,16
   117a0:	4b1d                	li	s6,7
   117a2:	c2fa                	sw	t5,68(sp)
   117a4:	84f6                	mv	s1,t4
   117a6:	8416                	mv	s0,t0
   117a8:	a021                	j	117b0 <_vfprintf_r+0x1512>
   117aa:	1ac1                	add	s5,s5,-16
   117ac:	0358d963          	bge	a7,s5,117de <_vfprintf_r+0x1540>
   117b0:	0741                	add	a4,a4,16
   117b2:	0685                	add	a3,a3,1
   117b4:	c380                	sw	s0,0(a5)
   117b6:	0117a223          	sw	a7,4(a5)
   117ba:	d53a                	sw	a4,168(sp)
   117bc:	d336                	sw	a3,164(sp)
   117be:	07a1                	add	a5,a5,8
   117c0:	fedb55e3          	bge	s6,a3,117aa <_vfprintf_r+0x150c>
   117c4:	1110                	add	a2,sp,160
   117c6:	85ea                	mv	a1,s10
   117c8:	854e                	mv	a0,s3
   117ca:	449000ef          	jal	12412 <__sprint_r>
   117ce:	c119                	beqz	a0,117d4 <_vfprintf_r+0x1536>
   117d0:	e1bfe06f          	j	105ea <_vfprintf_r+0x34c>
   117d4:	572a                	lw	a4,168(sp)
   117d6:	569a                	lw	a3,164(sp)
   117d8:	117c                	add	a5,sp,172
   117da:	48c1                	li	a7,16
   117dc:	b7f9                	j	117aa <_vfprintf_r+0x150c>
   117de:	4f16                	lw	t5,68(sp)
   117e0:	8ea6                	mv	t4,s1
   117e2:	82a2                	mv	t0,s0
   117e4:	84ba                	mv	s1,a4
   117e6:	843e                	mv	s0,a5
   117e8:	94d6                	add	s1,s1,s5
   117ea:	0685                	add	a3,a3,1
   117ec:	00542023          	sw	t0,0(s0)
   117f0:	01542223          	sw	s5,4(s0)
   117f4:	d526                	sw	s1,168(sp)
   117f6:	d336                	sw	a3,164(sp)
   117f8:	471d                	li	a4,7
   117fa:	0421                	add	s0,s0,8
   117fc:	f8d75263          	bge	a4,a3,10f80 <_vfprintf_r+0xce2>
   11800:	45a2                	lw	a1,8(sp)
   11802:	1110                	add	a2,sp,160
   11804:	854e                	mv	a0,s3
   11806:	c4f6                	sw	t4,72(sp)
   11808:	c2fa                	sw	t5,68(sp)
   1180a:	409000ef          	jal	12412 <__sprint_r>
   1180e:	c119                	beqz	a0,11814 <_vfprintf_r+0x1576>
   11810:	ddbfe06f          	j	105ea <_vfprintf_r+0x34c>
   11814:	54aa                	lw	s1,168(sp)
   11816:	4ea6                	lw	t4,72(sp)
   11818:	4f16                	lw	t5,68(sp)
   1181a:	1160                	add	s0,sp,172
   1181c:	f64ff06f          	j	10f80 <_vfprintf_r+0xce2>
   11820:	5722                	lw	a4,40(sp)
   11822:	09810893          	add	a7,sp,152
   11826:	08410813          	add	a6,sp,132
   1182a:	853a                	mv	a0,a4
   1182c:	85aa                	mv	a1,a0
   1182e:	871a                	mv	a4,t1
   11830:	18fc                	add	a5,sp,124
   11832:	4689                	li	a3,2
   11834:	8626                	mv	a2,s1
   11836:	854e                	mv	a0,s3
   11838:	c4f6                	sw	t4,72(sp)
   1183a:	d272                	sw	t3,36(sp)
   1183c:	d07a                	sw	t5,32(sp)
   1183e:	cc1a                	sw	t1,24(sp)
   11840:	685030ef          	jal	156c4 <_dtoa_r>
   11844:	5f02                	lw	t5,32(sp)
   11846:	4362                	lw	t1,24(sp)
   11848:	5e12                	lw	t3,36(sp)
   1184a:	001f7713          	and	a4,t5,1
   1184e:	4ea6                	lw	t4,72(sp)
   11850:	8c2a                	mv	s8,a0
   11852:	6c071463          	bnez	a4,11f1a <_vfprintf_r+0x1c7c>
   11856:	4b6a                	lw	s6,152(sp)
   11858:	5a76                	lw	s4,124(sp)
   1185a:	40ab07b3          	sub	a5,s6,a0
   1185e:	cc3e                	sw	a5,24(sp)
   11860:	5775                	li	a4,-3
   11862:	00ea4463          	blt	s4,a4,1186a <_vfprintf_r+0x15cc>
   11866:	59435763          	bge	t1,s4,11df4 <_vfprintf_r+0x1b56>
   1186a:	1e79                	add	t3,t3,-2
   1186c:	fffa0313          	add	t1,s4,-1
   11870:	de9a                	sw	t1,124(sp)
   11872:	0ffe7713          	zext.b	a4,t3
   11876:	4681                	li	a3,0
   11878:	08e10423          	sb	a4,136(sp)
   1187c:	02b00713          	li	a4,43
   11880:	00035763          	bgez	t1,1188e <_vfprintf_r+0x15f0>
   11884:	4305                	li	t1,1
   11886:	41430333          	sub	t1,t1,s4
   1188a:	02d00713          	li	a4,45
   1188e:	08e104a3          	sb	a4,137(sp)
   11892:	4725                	li	a4,9
   11894:	006752e3          	bge	a4,t1,12098 <_vfprintf_r+0x1dfa>
   11898:	09f10893          	add	a7,sp,159
   1189c:	8fc6                	mv	t6,a7
   1189e:	4629                	li	a2,10
   118a0:	06300513          	li	a0,99
   118a4:	02c367b3          	rem	a5,t1,a2
   118a8:	887e                	mv	a6,t6
   118aa:	871a                	mv	a4,t1
   118ac:	1ffd                	add	t6,t6,-1
   118ae:	03078793          	add	a5,a5,48
   118b2:	fef80fa3          	sb	a5,-1(a6)
   118b6:	02c34333          	div	t1,t1,a2
   118ba:	fee545e3          	blt	a0,a4,118a4 <_vfprintf_r+0x1606>
   118be:	03030313          	add	t1,t1,48
   118c2:	ffe80713          	add	a4,a6,-2
   118c6:	fe6f8fa3          	sb	t1,-1(t6)
   118ca:	19177ce3          	bgeu	a4,a7,12262 <_vfprintf_r+0x1fc4>
   118ce:	08a10693          	add	a3,sp,138
   118d2:	00074783          	lbu	a5,0(a4)
   118d6:	0705                	add	a4,a4,1
   118d8:	0685                	add	a3,a3,1
   118da:	fef68fa3          	sb	a5,-1(a3)
   118de:	ff171ae3          	bne	a4,a7,118d2 <_vfprintf_r+0x1634>
   118e2:	0a9c                	add	a5,sp,336
   118e4:	41078733          	sub	a4,a5,a6
   118e8:	f5370793          	add	a5,a4,-173
   118ec:	c0be                	sw	a5,64(sp)
   118ee:	47e2                	lw	a5,24(sp)
   118f0:	4686                	lw	a3,64(sp)
   118f2:	4705                	li	a4,1
   118f4:	00d78b33          	add	s6,a5,a3
   118f8:	7ef75463          	bge	a4,a5,120e0 <_vfprintf_r+0x1e42>
   118fc:	57c2                	lw	a5,48(sp)
   118fe:	9b3e                	add	s6,s6,a5
   11900:	fffb4813          	not	a6,s6
   11904:	bfff7f13          	and	t5,t5,-1025
   11908:	41f85813          	sra	a6,a6,0x1f
   1190c:	100f6f13          	or	t5,t5,256
   11910:	010b7cb3          	and	s9,s6,a6
   11914:	d202                	sw	zero,36(sp)
   11916:	d002                	sw	zero,32(sp)
   11918:	4a01                	li	s4,0
   1191a:	4796                	lw	a5,68(sp)
   1191c:	32079d63          	bnez	a5,11c56 <_vfprintf_r+0x19b8>
   11920:	07714603          	lbu	a2,119(sp)
   11924:	4301                	li	t1,0
   11926:	e219                	bnez	a2,1192c <_vfprintf_r+0x168e>
   11928:	b0ffe06f          	j	10436 <_vfprintf_r+0x198>
   1192c:	de9fe06f          	j	10714 <_vfprintf_r+0x476>
   11930:	45a2                	lw	a1,8(sp)
   11932:	1110                	add	a2,sp,160
   11934:	854e                	mv	a0,s3
   11936:	d276                	sw	t4,36(sp)
   11938:	d07a                	sw	t5,32(sp)
   1193a:	2d9000ef          	jal	12412 <__sprint_r>
   1193e:	c119                	beqz	a0,11944 <_vfprintf_r+0x16a6>
   11940:	cabfe06f          	j	105ea <_vfprintf_r+0x34c>
   11944:	5676                	lw	a2,124(sp)
   11946:	54aa                	lw	s1,168(sp)
   11948:	5e92                	lw	t4,36(sp)
   1194a:	5f02                	lw	t5,32(sp)
   1194c:	1160                	add	s0,sp,172
   1194e:	83fff06f          	j	1118c <_vfprintf_r+0xeee>
   11952:	4c99                	li	s9,6
   11954:	bae9                	j	1132e <_vfprintf_r+0x1090>
   11956:	47d2                	lw	a5,20(sp)
   11958:	4732                	lw	a4,12(sp)
   1195a:	439c                	lw	a5,0(a5)
   1195c:	00e79023          	sh	a4,0(a5)
   11960:	a36ff06f          	j	10b96 <_vfprintf_r+0x8f8>
   11964:	0ff4f493          	zext.b	s1,s1
   11968:	4c81                	li	s9,0
   1196a:	b289                	j	112ac <_vfprintf_r+0x100e>
   1196c:	04e2                	sll	s1,s1,0x18
   1196e:	84e1                	sra	s1,s1,0x18
   11970:	41f4dc93          	sra	s9,s1,0x1f
   11974:	87e6                	mv	a5,s9
   11976:	99cff06f          	j	10b12 <_vfprintf_r+0x874>
   1197a:	0ff4f493          	zext.b	s1,s1
   1197e:	4c81                	li	s9,0
   11980:	8e8ff06f          	j	10a68 <_vfprintf_r+0x7ca>
   11984:	45a2                	lw	a1,8(sp)
   11986:	1110                	add	a2,sp,160
   11988:	854e                	mv	a0,s3
   1198a:	289000ef          	jal	12412 <__sprint_r>
   1198e:	e119                	bnez	a0,11994 <_vfprintf_r+0x16f6>
   11990:	c33fe06f          	j	105c2 <_vfprintf_r+0x324>
   11994:	c65fe06f          	j	105f8 <_vfprintf_r+0x35a>
   11998:	8562                	mv	a0,s8
   1199a:	c4f6                	sw	t4,72(sp)
   1199c:	c2fa                	sw	t5,68(sp)
   1199e:	65e030ef          	jal	14ffc <strlen>
   119a2:	07714603          	lbu	a2,119(sp)
   119a6:	fff54813          	not	a6,a0
   119aa:	41f85813          	sra	a6,a6,0x1f
   119ae:	ca56                	sw	s5,20(sp)
   119b0:	d202                	sw	zero,36(sp)
   119b2:	d002                	sw	zero,32(sp)
   119b4:	c802                	sw	zero,16(sp)
   119b6:	4f16                	lw	t5,68(sp)
   119b8:	4ea6                	lw	t4,72(sp)
   119ba:	8b2a                	mv	s6,a0
   119bc:	01057cb3          	and	s9,a0,a6
   119c0:	4301                	li	t1,0
   119c2:	07300e13          	li	t3,115
   119c6:	e219                	bnez	a2,119cc <_vfprintf_r+0x172e>
   119c8:	a6ffe06f          	j	10436 <_vfprintf_r+0x198>
   119cc:	d49fe06f          	j	10714 <_vfprintf_r+0x476>
   119d0:	45a2                	lw	a1,8(sp)
   119d2:	1110                	add	a2,sp,160
   119d4:	854e                	mv	a0,s3
   119d6:	d276                	sw	t4,36(sp)
   119d8:	d07a                	sw	t5,32(sp)
   119da:	239000ef          	jal	12412 <__sprint_r>
   119de:	c119                	beqz	a0,119e4 <_vfprintf_r+0x1746>
   119e0:	c0bfe06f          	j	105ea <_vfprintf_r+0x34c>
   119e4:	5676                	lw	a2,124(sp)
   119e6:	55aa                	lw	a1,168(sp)
   119e8:	571a                	lw	a4,164(sp)
   119ea:	5e92                	lw	t4,36(sp)
   119ec:	5f02                	lw	t5,32(sp)
   119ee:	1160                	add	s0,sp,172
   119f0:	e03fe06f          	j	107f2 <_vfprintf_r+0x554>
   119f4:	4e28                	lw	a0,88(a2)
   119f6:	c63e                	sw	a5,12(sp)
   119f8:	0b7030ef          	jal	152ae <__retarget_lock_release_recursive>
   119fc:	47b2                	lw	a5,12(sp)
   119fe:	b33fe06f          	j	10530 <_vfprintf_r+0x292>
   11a02:	00130b13          	add	s6,t1,1
   11a06:	4689                	li	a3,2
   11a08:	5722                	lw	a4,40(sp)
   11a0a:	08410813          	add	a6,sp,132
   11a0e:	09810893          	add	a7,sp,152
   11a12:	853a                	mv	a0,a4
   11a14:	85aa                	mv	a1,a0
   11a16:	875a                	mv	a4,s6
   11a18:	18fc                	add	a5,sp,124
   11a1a:	8626                	mv	a2,s1
   11a1c:	854e                	mv	a0,s3
   11a1e:	c49a                	sw	t1,72(sp)
   11a20:	d276                	sw	t4,36(sp)
   11a22:	d072                	sw	t3,32(sp)
   11a24:	cc7a                	sw	t5,24(sp)
   11a26:	49f030ef          	jal	156c4 <_dtoa_r>
   11a2a:	5e02                	lw	t3,32(sp)
   11a2c:	04600693          	li	a3,70
   11a30:	4f62                	lw	t5,24(sp)
   11a32:	fdfe7813          	and	a6,t3,-33
   11a36:	5e92                	lw	t4,36(sp)
   11a38:	4326                	lw	t1,72(sp)
   11a3a:	8c2a                	mv	s8,a0
   11a3c:	01650733          	add	a4,a0,s6
   11a40:	02d81ee3          	bne	a6,a3,1227c <_vfprintf_r+0x1fde>
   11a44:	000c4603          	lbu	a2,0(s8)
   11a48:	03000693          	li	a3,48
   11a4c:	50d60263          	beq	a2,a3,11f50 <_vfprintf_r+0x1cb2>
   11a50:	56f6                	lw	a3,124(sp)
   11a52:	9736                	add	a4,a4,a3
   11a54:	56a2                	lw	a3,40(sp)
   11a56:	85a6                	mv	a1,s1
   11a58:	4601                	li	a2,0
   11a5a:	8536                	mv	a0,a3
   11a5c:	4681                	li	a3,0
   11a5e:	ccba                	sw	a4,88(sp)
   11a60:	ca9a                	sw	t1,84(sp)
   11a62:	c4f6                	sw	t4,72(sp)
   11a64:	d272                	sw	t3,36(sp)
   11a66:	d07a                	sw	t5,32(sp)
   11a68:	cc42                	sw	a6,24(sp)
   11a6a:	5f7080ef          	jal	1a860 <__eqdf2>
   11a6e:	4862                	lw	a6,24(sp)
   11a70:	5f02                	lw	t5,32(sp)
   11a72:	5e12                	lw	t3,36(sp)
   11a74:	4ea6                	lw	t4,72(sp)
   11a76:	4356                	lw	t1,84(sp)
   11a78:	4766                	lw	a4,88(sp)
   11a7a:	4a050563          	beqz	a0,11f24 <_vfprintf_r+0x1c86>
   11a7e:	4b6a                	lw	s6,152(sp)
   11a80:	00eb7c63          	bgeu	s6,a4,11a98 <_vfprintf_r+0x17fa>
   11a84:	03000613          	li	a2,48
   11a88:	001b0793          	add	a5,s6,1
   11a8c:	cd3e                	sw	a5,152(sp)
   11a8e:	00cb0023          	sb	a2,0(s6)
   11a92:	4b6a                	lw	s6,152(sp)
   11a94:	feeb6ae3          	bltu	s6,a4,11a88 <_vfprintf_r+0x17ea>
   11a98:	5a76                	lw	s4,124(sp)
   11a9a:	418b07b3          	sub	a5,s6,s8
   11a9e:	04700713          	li	a4,71
   11aa2:	cc3e                	sw	a5,24(sp)
   11aa4:	dae80ee3          	beq	a6,a4,11860 <_vfprintf_r+0x15c2>
   11aa8:	04600713          	li	a4,70
   11aac:	4ce80c63          	beq	a6,a4,11f84 <_vfprintf_r+0x1ce6>
   11ab0:	fffa0313          	add	t1,s4,-1
   11ab4:	bb75                	j	11870 <_vfprintf_r+0x15d2>
   11ab6:	5722                	lw	a4,40(sp)
   11ab8:	18f0                	add	a2,sp,124
   11aba:	85a6                	mv	a1,s1
   11abc:	853a                	mv	a0,a4
   11abe:	c09a                	sw	t1,64(sp)
   11ac0:	d276                	sw	t4,36(sp)
   11ac2:	d072                	sw	t3,32(sp)
   11ac4:	cc7a                	sw	t5,24(sp)
   11ac6:	155030ef          	jal	1541a <frexp>
   11aca:	0000c717          	auipc	a4,0xc
   11ace:	c0e70713          	add	a4,a4,-1010 # 1d6d8 <__SDATA_BEGIN__+0x8>
   11ad2:	4310                	lw	a2,0(a4)
   11ad4:	4354                	lw	a3,4(a4)
   11ad6:	777080ef          	jal	1aa4c <__muldf3>
   11ada:	4601                	li	a2,0
   11adc:	4681                	li	a3,0
   11ade:	8b2a                	mv	s6,a0
   11ae0:	8d2e                	mv	s10,a1
   11ae2:	57f080ef          	jal	1a860 <__eqdf2>
   11ae6:	4f62                	lw	t5,24(sp)
   11ae8:	5e02                	lw	t3,32(sp)
   11aea:	5e92                	lw	t4,36(sp)
   11aec:	4306                	lw	t1,64(sp)
   11aee:	e119                	bnez	a0,11af4 <_vfprintf_r+0x1856>
   11af0:	4705                	li	a4,1
   11af2:	deba                	sw	a4,124(sp)
   11af4:	0000a797          	auipc	a5,0xa
   11af8:	08c78793          	add	a5,a5,140 # 1bb80 <__clzsi2+0xa0>
   11afc:	06100713          	li	a4,97
   11b00:	d03e                	sw	a5,32(sp)
   11b02:	00ee1763          	bne	t3,a4,11b10 <_vfprintf_r+0x1872>
   11b06:	0000a797          	auipc	a5,0xa
   11b0a:	06678793          	add	a5,a5,102 # 1bb6c <__clzsi2+0x8c>
   11b0e:	d03e                	sw	a5,32(sp)
   11b10:	0000c717          	auipc	a4,0xc
   11b14:	bd070713          	add	a4,a4,-1072 # 1d6e0 <__SDATA_BEGIN__+0x10>
   11b18:	431c                	lw	a5,0(a4)
   11b1a:	00472803          	lw	a6,4(a4)
   11b1e:	d24a                	sw	s2,36(sp)
   11b20:	cc3e                	sw	a5,24(sp)
   11b22:	87ea                	mv	a5,s10
   11b24:	895a                	mv	s2,s6
   11b26:	8d62                	mv	s10,s8
   11b28:	8b22                	mv	s6,s0
   11b2a:	5482                	lw	s1,32(sp)
   11b2c:	8462                	mv	s0,s8
   11b2e:	ce42                	sw	a6,28(sp)
   11b30:	8c4e                	mv	s8,s3
   11b32:	fff30a93          	add	s5,t1,-1
   11b36:	5cfd                	li	s9,-1
   11b38:	c0fa                	sw	t5,64(sp)
   11b3a:	c4f2                	sw	t3,72(sp)
   11b3c:	caf6                	sw	t4,84(sp)
   11b3e:	89be                	mv	s3,a5
   11b40:	a811                	j	11b54 <_vfprintf_r+0x18b6>
   11b42:	4601                	li	a2,0
   11b44:	4681                	li	a3,0
   11b46:	fffa8a13          	add	s4,s5,-1
   11b4a:	517080ef          	jal	1a860 <__eqdf2>
   11b4e:	66050263          	beqz	a0,121b2 <_vfprintf_r+0x1f14>
   11b52:	8ad2                	mv	s5,s4
   11b54:	4662                	lw	a2,24(sp)
   11b56:	46f2                	lw	a3,28(sp)
   11b58:	854a                	mv	a0,s2
   11b5a:	85ce                	mv	a1,s3
   11b5c:	6f1080ef          	jal	1aa4c <__muldf3>
   11b60:	892e                	mv	s2,a1
   11b62:	89aa                	mv	s3,a0
   11b64:	391090ef          	jal	1b6f4 <__fixdfsi>
   11b68:	8a2a                	mv	s4,a0
   11b6a:	3f1090ef          	jal	1b75a <__floatsidf>
   11b6e:	86ae                	mv	a3,a1
   11b70:	862a                	mv	a2,a0
   11b72:	85ca                	mv	a1,s2
   11b74:	854e                	mv	a0,s3
   11b76:	3f4090ef          	jal	1af6a <__subdf3>
   11b7a:	01448733          	add	a4,s1,s4
   11b7e:	00074683          	lbu	a3,0(a4)
   11b82:	8822                	mv	a6,s0
   11b84:	892a                	mv	s2,a0
   11b86:	00d40023          	sb	a3,0(s0)
   11b8a:	89ae                	mv	s3,a1
   11b8c:	0405                	add	s0,s0,1
   11b8e:	fb9a9ae3          	bne	s5,s9,11b42 <_vfprintf_r+0x18a4>
   11b92:	0000c697          	auipc	a3,0xc
   11b96:	b5668693          	add	a3,a3,-1194 # 1d6e8 <__SDATA_BEGIN__+0x18>
   11b9a:	0006a303          	lw	t1,0(a3)
   11b9e:	0046a383          	lw	t2,4(a3)
   11ba2:	4f06                	lw	t5,64(sp)
   11ba4:	4ed6                	lw	t4,84(sp)
   11ba6:	861a                	mv	a2,t1
   11ba8:	869e                	mv	a3,t2
   11baa:	ccfa                	sw	t5,88(sp)
   11bac:	c0f6                	sw	t4,64(sp)
   11bae:	cc42                	sw	a6,24(sp)
   11bb0:	84a2                	mv	s1,s0
   11bb2:	89e2                	mv	s3,s8
   11bb4:	845a                	mv	s0,s6
   11bb6:	8c6a                	mv	s8,s10
   11bb8:	8b2a                	mv	s6,a0
   11bba:	8d2e                	mv	s10,a1
   11bbc:	511080ef          	jal	1a8cc <__gedf2>
   11bc0:	0000c797          	auipc	a5,0xc
   11bc4:	b2878793          	add	a5,a5,-1240 # 1d6e8 <__SDATA_BEGIN__+0x18>
   11bc8:	5912                	lw	s2,36(sp)
   11bca:	0007a303          	lw	t1,0(a5)
   11bce:	0047a383          	lw	t2,4(a5)
   11bd2:	4862                	lw	a6,24(sp)
   11bd4:	4e86                	lw	t4,64(sp)
   11bd6:	4e26                	lw	t3,72(sp)
   11bd8:	4f66                	lw	t5,88(sp)
   11bda:	60a05e63          	blez	a0,121f6 <_vfprintf_r+0x1f58>
   11bde:	5782                	lw	a5,32(sp)
   11be0:	cd42                	sw	a6,152(sp)
   11be2:	fff4c603          	lbu	a2,-1(s1) # 7fffffff <__BSS_END__+0x7ffe22b7>
   11be6:	00f7c583          	lbu	a1,15(a5)
   11bea:	86a6                	mv	a3,s1
   11bec:	00b61e63          	bne	a2,a1,11c08 <_vfprintf_r+0x196a>
   11bf0:	03000513          	li	a0,48
   11bf4:	fea68fa3          	sb	a0,-1(a3)
   11bf8:	46ea                	lw	a3,152(sp)
   11bfa:	fff68793          	add	a5,a3,-1
   11bfe:	cd3e                	sw	a5,152(sp)
   11c00:	fff6c603          	lbu	a2,-1(a3)
   11c04:	feb608e3          	beq	a2,a1,11bf4 <_vfprintf_r+0x1956>
   11c08:	00160593          	add	a1,a2,1
   11c0c:	03900513          	li	a0,57
   11c10:	0ff5f593          	zext.b	a1,a1
   11c14:	02a60b63          	beq	a2,a0,11c4a <_vfprintf_r+0x19ac>
   11c18:	feb68fa3          	sb	a1,-1(a3)
   11c1c:	8b26                	mv	s6,s1
   11c1e:	5a76                	lw	s4,124(sp)
   11c20:	418b07b3          	sub	a5,s6,s8
   11c24:	06100693          	li	a3,97
   11c28:	fffa0313          	add	t1,s4,-1
   11c2c:	cc3e                	sw	a5,24(sp)
   11c2e:	de9a                	sw	t1,124(sp)
   11c30:	07000713          	li	a4,112
   11c34:	00de0663          	beq	t3,a3,11c40 <_vfprintf_r+0x19a2>
   11c38:	05000713          	li	a4,80
   11c3c:	04100e13          	li	t3,65
   11c40:	4685                	li	a3,1
   11c42:	b91d                	j	11878 <_vfprintf_r+0x15da>
   11c44:	8b1a                	mv	s6,t1
   11c46:	468d                	li	a3,3
   11c48:	b3c1                	j	11a08 <_vfprintf_r+0x176a>
   11c4a:	5782                	lw	a5,32(sp)
   11c4c:	00a7c583          	lbu	a1,10(a5)
   11c50:	feb68fa3          	sb	a1,-1(a3)
   11c54:	b7e1                	j	11c1c <_vfprintf_r+0x197e>
   11c56:	02d00713          	li	a4,45
   11c5a:	06e10ba3          	sb	a4,119(sp)
   11c5e:	02d00613          	li	a2,45
   11c62:	4301                	li	t1,0
   11c64:	0c85                	add	s9,s9,1
   11c66:	fd0fe06f          	j	10436 <_vfprintf_r+0x198>
   11c6a:	0938                	add	a4,sp,152
   11c6c:	4681                	li	a3,0
   11c6e:	0150                	add	a2,sp,132
   11c70:	4581                	li	a1,0
   11c72:	854e                	mv	a0,s3
   11c74:	d076                	sw	t4,32(sp)
   11c76:	ca72                	sw	t3,20(sp)
   11c78:	c87a                	sw	t5,16(sp)
   11c7a:	6e4030ef          	jal	1535e <_wcsrtombs_r>
   11c7e:	577d                	li	a4,-1
   11c80:	4f42                	lw	t5,16(sp)
   11c82:	4e52                	lw	t3,20(sp)
   11c84:	5e82                	lw	t4,32(sp)
   11c86:	8b2a                	mv	s6,a0
   11c88:	44e50163          	beq	a0,a4,120ca <_vfprintf_r+0x1e2c>
   11c8c:	c362                	sw	s8,132(sp)
   11c8e:	bc15                	j	116c2 <_vfprintf_r+0x1424>
   11c90:	47e2                	lw	a5,24(sp)
   11c92:	8722                	mv	a4,s0
   11c94:	5402                	lw	s0,32(sp)
   11c96:	97e2                	add	a5,a5,s8
   11c98:	cee6                	sw	s9,92(sp)
   11c9a:	8626                	mv	a2,s1
   11c9c:	c2be                	sw	a5,68(sp)
   11c9e:	5492                	lw	s1,36(sp)
   11ca0:	c4ca                	sw	s2,72(sp)
   11ca2:	d262                	sw	s8,36(sp)
   11ca4:	cafa                	sw	t5,84(sp)
   11ca6:	ccf6                	sw	t4,88(sp)
   11ca8:	8c5a                	mv	s8,s6
   11caa:	4cc6                	lw	s9,80(sp)
   11cac:	4a22                	lw	s4,8(sp)
   11cae:	5b72                	lw	s6,60(sp)
   11cb0:	469d                	li	a3,7
   11cb2:	4d41                	li	s10,16
   11cb4:	0000aa97          	auipc	s5,0xa
   11cb8:	3e8a8a93          	add	s5,s5,1000 # 1c09c <zeroes.0>
   11cbc:	06805563          	blez	s0,11d26 <_vfprintf_r+0x1a88>
   11cc0:	0e905f63          	blez	s1,11dbe <_vfprintf_r+0x1b20>
   11cc4:	14fd                	add	s1,s1,-1
   11cc6:	47b6                	lw	a5,76(sp)
   11cc8:	9666                	add	a2,a2,s9
   11cca:	01972223          	sw	s9,4(a4)
   11cce:	c31c                	sw	a5,0(a4)
   11cd0:	579a                	lw	a5,164(sp)
   11cd2:	d532                	sw	a2,168(sp)
   11cd4:	0721                	add	a4,a4,8
   11cd6:	0785                	add	a5,a5,1
   11cd8:	d33e                	sw	a5,164(sp)
   11cda:	0ef6c563          	blt	a3,a5,11dc4 <_vfprintf_r+0x1b26>
   11cde:	4796                	lw	a5,68(sp)
   11ce0:	000b4583          	lbu	a1,0(s6)
   11ce4:	41878933          	sub	s2,a5,s8
   11ce8:	0125d363          	bge	a1,s2,11cee <_vfprintf_r+0x1a50>
   11cec:	892e                	mv	s2,a1
   11cee:	03205063          	blez	s2,11d0e <_vfprintf_r+0x1a70>
   11cf2:	559a                	lw	a1,164(sp)
   11cf4:	964a                	add	a2,a2,s2
   11cf6:	01872023          	sw	s8,0(a4)
   11cfa:	0585                	add	a1,a1,1
   11cfc:	01272223          	sw	s2,4(a4)
   11d00:	d532                	sw	a2,168(sp)
   11d02:	d32e                	sw	a1,164(sp)
   11d04:	0cb6cb63          	blt	a3,a1,11dda <_vfprintf_r+0x1b3c>
   11d08:	000b4583          	lbu	a1,0(s6)
   11d0c:	0721                	add	a4,a4,8
   11d0e:	fff94513          	not	a0,s2
   11d12:	857d                	sra	a0,a0,0x1f
   11d14:	00a977b3          	and	a5,s2,a0
   11d18:	40f58933          	sub	s2,a1,a5
   11d1c:	03204863          	bgtz	s2,11d4c <_vfprintf_r+0x1aae>
   11d20:	9c2e                	add	s8,s8,a1
   11d22:	f8804fe3          	bgtz	s0,11cc0 <_vfprintf_r+0x1a22>
   11d26:	f8904fe3          	bgtz	s1,11cc4 <_vfprintf_r+0x1a26>
   11d2a:	47e2                	lw	a5,24(sp)
   11d2c:	de5a                	sw	s6,60(sp)
   11d2e:	8b62                	mv	s6,s8
   11d30:	5c12                	lw	s8,36(sp)
   11d32:	843a                	mv	s0,a4
   11d34:	4926                	lw	s2,72(sp)
   11d36:	00fc0733          	add	a4,s8,a5
   11d3a:	4f56                	lw	t5,84(sp)
   11d3c:	4ee6                	lw	t4,88(sp)
   11d3e:	4cf6                	lw	s9,92(sp)
   11d40:	84b2                	mv	s1,a2
   11d42:	a5677563          	bgeu	a4,s6,10f8c <_vfprintf_r+0xcee>
   11d46:	8b3a                	mv	s6,a4
   11d48:	a44ff06f          	j	10f8c <_vfprintf_r+0xcee>
   11d4c:	559a                	lw	a1,164(sp)
   11d4e:	0000ae97          	auipc	t4,0xa
   11d52:	34ee8e93          	add	t4,t4,846 # 1c09c <zeroes.0>
   11d56:	052d5563          	bge	s10,s2,11da0 <_vfprintf_r+0x1b02>
   11d5a:	d022                	sw	s0,32(sp)
   11d5c:	844a                	mv	s0,s2
   11d5e:	8956                	mv	s2,s5
   11d60:	a021                	j	11d68 <_vfprintf_r+0x1aca>
   11d62:	1441                	add	s0,s0,-16
   11d64:	028d5b63          	bge	s10,s0,11d9a <_vfprintf_r+0x1afc>
   11d68:	0641                	add	a2,a2,16
   11d6a:	0585                	add	a1,a1,1
   11d6c:	01572023          	sw	s5,0(a4)
   11d70:	01a72223          	sw	s10,4(a4)
   11d74:	d532                	sw	a2,168(sp)
   11d76:	d32e                	sw	a1,164(sp)
   11d78:	0721                	add	a4,a4,8
   11d7a:	feb6d4e3          	bge	a3,a1,11d62 <_vfprintf_r+0x1ac4>
   11d7e:	1110                	add	a2,sp,160
   11d80:	85d2                	mv	a1,s4
   11d82:	854e                	mv	a0,s3
   11d84:	2579                	jal	12412 <__sprint_r>
   11d86:	c119                	beqz	a0,11d8c <_vfprintf_r+0x1aee>
   11d88:	863fe06f          	j	105ea <_vfprintf_r+0x34c>
   11d8c:	1441                	add	s0,s0,-16
   11d8e:	562a                	lw	a2,168(sp)
   11d90:	559a                	lw	a1,164(sp)
   11d92:	1178                	add	a4,sp,172
   11d94:	469d                	li	a3,7
   11d96:	fc8d49e3          	blt	s10,s0,11d68 <_vfprintf_r+0x1aca>
   11d9a:	8eca                	mv	t4,s2
   11d9c:	8922                	mv	s2,s0
   11d9e:	5402                	lw	s0,32(sp)
   11da0:	964a                	add	a2,a2,s2
   11da2:	0585                	add	a1,a1,1
   11da4:	01d72023          	sw	t4,0(a4)
   11da8:	01272223          	sw	s2,4(a4)
   11dac:	d532                	sw	a2,168(sp)
   11dae:	d32e                	sw	a1,164(sp)
   11db0:	12b6c363          	blt	a3,a1,11ed6 <_vfprintf_r+0x1c38>
   11db4:	000b4583          	lbu	a1,0(s6)
   11db8:	0721                	add	a4,a4,8
   11dba:	9c2e                	add	s8,s8,a1
   11dbc:	b79d                	j	11d22 <_vfprintf_r+0x1a84>
   11dbe:	1b7d                	add	s6,s6,-1
   11dc0:	147d                	add	s0,s0,-1
   11dc2:	b711                	j	11cc6 <_vfprintf_r+0x1a28>
   11dc4:	1110                	add	a2,sp,160
   11dc6:	85d2                	mv	a1,s4
   11dc8:	854e                	mv	a0,s3
   11dca:	25a1                	jal	12412 <__sprint_r>
   11dcc:	c119                	beqz	a0,11dd2 <_vfprintf_r+0x1b34>
   11dce:	81dfe06f          	j	105ea <_vfprintf_r+0x34c>
   11dd2:	562a                	lw	a2,168(sp)
   11dd4:	1178                	add	a4,sp,172
   11dd6:	469d                	li	a3,7
   11dd8:	b719                	j	11cde <_vfprintf_r+0x1a40>
   11dda:	1110                	add	a2,sp,160
   11ddc:	85d2                	mv	a1,s4
   11dde:	854e                	mv	a0,s3
   11de0:	2d0d                	jal	12412 <__sprint_r>
   11de2:	c119                	beqz	a0,11de8 <_vfprintf_r+0x1b4a>
   11de4:	807fe06f          	j	105ea <_vfprintf_r+0x34c>
   11de8:	000b4583          	lbu	a1,0(s6)
   11dec:	562a                	lw	a2,168(sp)
   11dee:	1178                	add	a4,sp,172
   11df0:	469d                	li	a3,7
   11df2:	bf31                	j	11d0e <_vfprintf_r+0x1a70>
   11df4:	47e2                	lw	a5,24(sp)
   11df6:	1cfa4563          	blt	s4,a5,11fc0 <_vfprintf_r+0x1d22>
   11dfa:	001f7713          	and	a4,t5,1
   11dfe:	8b52                	mv	s6,s4
   11e00:	c701                	beqz	a4,11e08 <_vfprintf_r+0x1b6a>
   11e02:	57c2                	lw	a5,48(sp)
   11e04:	00fa0b33          	add	s6,s4,a5
   11e08:	400f7f13          	and	t5,t5,1024
   11e0c:	000f0463          	beqz	t5,11e14 <_vfprintf_r+0x1b76>
   11e10:	31404363          	bgtz	s4,12116 <_vfprintf_r+0x1e78>
   11e14:	fffb4813          	not	a6,s6
   11e18:	41f85813          	sra	a6,a6,0x1f
   11e1c:	010b7cb3          	and	s9,s6,a6
   11e20:	06700e13          	li	t3,103
   11e24:	8f56                	mv	t5,s5
   11e26:	d202                	sw	zero,36(sp)
   11e28:	d002                	sw	zero,32(sp)
   11e2a:	bcc5                	j	1191a <_vfprintf_r+0x167c>
   11e2c:	02d00793          	li	a5,45
   11e30:	06f10ba3          	sb	a5,119(sp)
   11e34:	02d00613          	li	a2,45
   11e38:	8affe06f          	j	106e6 <_vfprintf_r+0x448>
   11e3c:	47c6                	lw	a5,80(sp)
   11e3e:	45b6                	lw	a1,76(sp)
   11e40:	c2fa                	sw	t5,68(sp)
   11e42:	8e9d                	sub	a3,a3,a5
   11e44:	863e                	mv	a2,a5
   11e46:	8536                	mv	a0,a3
   11e48:	de1a                	sw	t1,60(sp)
   11e4a:	d276                	sw	t4,36(sp)
   11e4c:	d072                	sw	t3,32(sp)
   11e4e:	cc3a                	sw	a4,24(sp)
   11e50:	c836                	sw	a3,16(sp)
   11e52:	47a020ef          	jal	142cc <strncpy>
   11e56:	009c37b3          	sltu	a5,s8,s1
   11e5a:	4615                	li	a2,5
   11e5c:	97e2                	add	a5,a5,s8
   11e5e:	02c7f7b3          	remu	a5,a5,a2
   11e62:	4762                	lw	a4,24(sp)
   11e64:	ccccd537          	lui	a0,0xccccd
   11e68:	ccccd837          	lui	a6,0xccccd
   11e6c:	00174603          	lbu	a2,1(a4)
   11e70:	ccd50513          	add	a0,a0,-819 # cccccccd <__BSS_END__+0xcccaef85>
   11e74:	ccc80813          	add	a6,a6,-820 # cccccccc <__BSS_END__+0xcccaef84>
   11e78:	00c03633          	snez	a2,a2
   11e7c:	9732                	add	a4,a4,a2
   11e7e:	46c2                	lw	a3,16(sp)
   11e80:	5e02                	lw	t3,32(sp)
   11e82:	5e92                	lw	t4,36(sp)
   11e84:	5372                	lw	t1,60(sp)
   11e86:	4f16                	lw	t5,68(sp)
   11e88:	4581                	li	a1,0
   11e8a:	4895                	li	a7,5
   11e8c:	40f487b3          	sub	a5,s1,a5
   11e90:	00f4b633          	sltu	a2,s1,a5
   11e94:	40cc8633          	sub	a2,s9,a2
   11e98:	02a60633          	mul	a2,a2,a0
   11e9c:	03078833          	mul	a6,a5,a6
   11ea0:	02a7bfb3          	mulhu	t6,a5,a0
   11ea4:	9642                	add	a2,a2,a6
   11ea6:	02a78533          	mul	a0,a5,a0
   11eaa:	967e                	add	a2,a2,t6
   11eac:	01f61793          	sll	a5,a2,0x1f
   11eb0:	8205                	srl	a2,a2,0x1
   11eb2:	8105                	srl	a0,a0,0x1
   11eb4:	8fc9                	or	a5,a5,a0
   11eb6:	dd8ff06f          	j	1148e <_vfprintf_r+0x11f0>
   11eba:	07714603          	lbu	a2,119(sp)
   11ebe:	ca56                	sw	s5,20(sp)
   11ec0:	d202                	sw	zero,36(sp)
   11ec2:	d002                	sw	zero,32(sp)
   11ec4:	c802                	sw	zero,16(sp)
   11ec6:	4c81                	li	s9,0
   11ec8:	4301                	li	t1,0
   11eca:	4a01                	li	s4,0
   11ecc:	e219                	bnez	a2,11ed2 <_vfprintf_r+0x1c34>
   11ece:	d68fe06f          	j	10436 <_vfprintf_r+0x198>
   11ed2:	843fe06f          	j	10714 <_vfprintf_r+0x476>
   11ed6:	1110                	add	a2,sp,160
   11ed8:	85d2                	mv	a1,s4
   11eda:	854e                	mv	a0,s3
   11edc:	2b1d                	jal	12412 <__sprint_r>
   11ede:	c119                	beqz	a0,11ee4 <_vfprintf_r+0x1c46>
   11ee0:	f0afe06f          	j	105ea <_vfprintf_r+0x34c>
   11ee4:	000b4583          	lbu	a1,0(s6)
   11ee8:	562a                	lw	a2,168(sp)
   11eea:	1178                	add	a4,sp,172
   11eec:	469d                	li	a3,7
   11eee:	9c2e                	add	s8,s8,a1
   11ef0:	bd0d                	j	11d22 <_vfprintf_r+0x1a84>
   11ef2:	45a2                	lw	a1,8(sp)
   11ef4:	1110                	add	a2,sp,160
   11ef6:	854e                	mv	a0,s3
   11ef8:	c4f6                	sw	t4,72(sp)
   11efa:	c2fa                	sw	t5,68(sp)
   11efc:	2b19                	jal	12412 <__sprint_r>
   11efe:	c119                	beqz	a0,11f04 <_vfprintf_r+0x1c66>
   11f00:	eeafe06f          	j	105ea <_vfprintf_r+0x34c>
   11f04:	54aa                	lw	s1,168(sp)
   11f06:	4ea6                	lw	t4,72(sp)
   11f08:	4f16                	lw	t5,68(sp)
   11f0a:	1160                	add	s0,sp,172
   11f0c:	862ff06f          	j	10f6e <_vfprintf_r+0xcd0>
   11f10:	4525                	li	a0,9
   11f12:	d6956e63          	bltu	a0,s1,1148e <_vfprintf_r+0x11f0>
   11f16:	de0ff06f          	j	114f6 <_vfprintf_r+0x1258>
   11f1a:	00650733          	add	a4,a0,t1
   11f1e:	04700813          	li	a6,71
   11f22:	be0d                	j	11a54 <_vfprintf_r+0x17b6>
   11f24:	5a76                	lw	s4,124(sp)
   11f26:	8b3a                	mv	s6,a4
   11f28:	be8d                	j	11a9a <_vfprintf_r+0x17fc>
   11f2a:	45a2                	lw	a1,8(sp)
   11f2c:	1110                	add	a2,sp,160
   11f2e:	854e                	mv	a0,s3
   11f30:	d276                	sw	t4,36(sp)
   11f32:	d07a                	sw	t5,32(sp)
   11f34:	29f9                	jal	12412 <__sprint_r>
   11f36:	c119                	beqz	a0,11f3c <_vfprintf_r+0x1c9e>
   11f38:	eb2fe06f          	j	105ea <_vfprintf_r+0x34c>
   11f3c:	5d76                	lw	s10,124(sp)
   11f3e:	47e2                	lw	a5,24(sp)
   11f40:	54aa                	lw	s1,168(sp)
   11f42:	5e92                	lw	t4,36(sp)
   11f44:	5f02                	lw	t5,32(sp)
   11f46:	1160                	add	s0,sp,172
   11f48:	41a78d33          	sub	s10,a5,s10
   11f4c:	886ff06f          	j	10fd2 <_vfprintf_r+0xd34>
   11f50:	5622                	lw	a2,40(sp)
   11f52:	85a6                	mv	a1,s1
   11f54:	4681                	li	a3,0
   11f56:	8532                	mv	a0,a2
   11f58:	4601                	li	a2,0
   11f5a:	ccba                	sw	a4,88(sp)
   11f5c:	ca9a                	sw	t1,84(sp)
   11f5e:	c4f6                	sw	t4,72(sp)
   11f60:	d272                	sw	t3,36(sp)
   11f62:	d07a                	sw	t5,32(sp)
   11f64:	cc42                	sw	a6,24(sp)
   11f66:	0fb080ef          	jal	1a860 <__eqdf2>
   11f6a:	4862                	lw	a6,24(sp)
   11f6c:	5f02                	lw	t5,32(sp)
   11f6e:	5e12                	lw	t3,36(sp)
   11f70:	4ea6                	lw	t4,72(sp)
   11f72:	4356                	lw	t1,84(sp)
   11f74:	4766                	lw	a4,88(sp)
   11f76:	26051a63          	bnez	a0,121ea <_vfprintf_r+0x1f4c>
   11f7a:	5a76                	lw	s4,124(sp)
   11f7c:	9752                	add	a4,a4,s4
   11f7e:	418707b3          	sub	a5,a4,s8
   11f82:	cc3e                	sw	a5,24(sp)
   11f84:	001f7713          	and	a4,t5,1
   11f88:	00676733          	or	a4,a4,t1
   11f8c:	29405a63          	blez	s4,12220 <_vfprintf_r+0x1f82>
   11f90:	1e071063          	bnez	a4,12170 <_vfprintf_r+0x1ed2>
   11f94:	8b52                	mv	s6,s4
   11f96:	06600e13          	li	t3,102
   11f9a:	400f7f13          	and	t5,t5,1024
   11f9e:	160f1e63          	bnez	t5,1211a <_vfprintf_r+0x1e7c>
   11fa2:	fffb4813          	not	a6,s6
   11fa6:	41f85813          	sra	a6,a6,0x1f
   11faa:	010b7cb3          	and	s9,s6,a6
   11fae:	bd9d                	j	11e24 <_vfprintf_r+0x1b86>
   11fb0:	8d7a                	mv	s10,t5
   11fb2:	b8dfe06f          	j	10b3e <_vfprintf_r+0x8a0>
   11fb6:	c802                	sw	zero,16(sp)
   11fb8:	0ec10c13          	add	s8,sp,236
   11fbc:	f30ff06f          	j	116ec <_vfprintf_r+0x144e>
   11fc0:	47e2                	lw	a5,24(sp)
   11fc2:	5742                	lw	a4,48(sp)
   11fc4:	06700e13          	li	t3,103
   11fc8:	00e78b33          	add	s6,a5,a4
   11fcc:	fd4047e3          	bgtz	s4,11f9a <_vfprintf_r+0x1cfc>
   11fd0:	414b06b3          	sub	a3,s6,s4
   11fd4:	00168b13          	add	s6,a3,1
   11fd8:	fffb4813          	not	a6,s6
   11fdc:	41f85813          	sra	a6,a6,0x1f
   11fe0:	010b7cb3          	and	s9,s6,a6
   11fe4:	b581                	j	11e24 <_vfprintf_r+0x1b86>
   11fe6:	47a2                	lw	a5,8(sp)
   11fe8:	53fc                	lw	a5,100(a5)
   11fea:	8b85                	and	a5,a5,1
   11fec:	eb99                	bnez	a5,12002 <_vfprintf_r+0x1d64>
   11fee:	47a2                	lw	a5,8(sp)
   11ff0:	00c7d783          	lhu	a5,12(a5)
   11ff4:	2007f793          	and	a5,a5,512
   11ff8:	e789                	bnez	a5,12002 <_vfprintf_r+0x1d64>
   11ffa:	47a2                	lw	a5,8(sp)
   11ffc:	4fa8                	lw	a0,88(a5)
   11ffe:	2b0030ef          	jal	152ae <__retarget_lock_release_recursive>
   12002:	57fd                	li	a5,-1
   12004:	c63e                	sw	a5,12(sp)
   12006:	e34fe06f          	j	1063a <_vfprintf_r+0x39c>
   1200a:	56c1                	li	a3,-16
   1200c:	40c00d33          	neg	s10,a2
   12010:	0000a297          	auipc	t0,0xa
   12014:	08c28293          	add	t0,t0,140 # 1c09c <zeroes.0>
   12018:	04d65563          	bge	a2,a3,12062 <_vfprintf_r+0x1dc4>
   1201c:	d04a                	sw	s2,32(sp)
   1201e:	44c1                	li	s1,16
   12020:	4a9d                	li	s5,7
   12022:	8a7a                	mv	s4,t5
   12024:	8b76                	mv	s6,t4
   12026:	8916                	mv	s2,t0
   12028:	a021                	j	12030 <_vfprintf_r+0x1d92>
   1202a:	1d41                	add	s10,s10,-16
   1202c:	03a4d763          	bge	s1,s10,1205a <_vfprintf_r+0x1dbc>
   12030:	05c1                	add	a1,a1,16
   12032:	0705                	add	a4,a4,1
   12034:	01242023          	sw	s2,0(s0)
   12038:	c044                	sw	s1,4(s0)
   1203a:	d52e                	sw	a1,168(sp)
   1203c:	d33a                	sw	a4,164(sp)
   1203e:	0421                	add	s0,s0,8
   12040:	feead5e3          	bge	s5,a4,1202a <_vfprintf_r+0x1d8c>
   12044:	45a2                	lw	a1,8(sp)
   12046:	1110                	add	a2,sp,160
   12048:	854e                	mv	a0,s3
   1204a:	26e1                	jal	12412 <__sprint_r>
   1204c:	c119                	beqz	a0,12052 <_vfprintf_r+0x1db4>
   1204e:	d9cfe06f          	j	105ea <_vfprintf_r+0x34c>
   12052:	55aa                	lw	a1,168(sp)
   12054:	571a                	lw	a4,164(sp)
   12056:	1160                	add	s0,sp,172
   12058:	bfc9                	j	1202a <_vfprintf_r+0x1d8c>
   1205a:	82ca                	mv	t0,s2
   1205c:	5902                	lw	s2,32(sp)
   1205e:	8f52                	mv	t5,s4
   12060:	8eda                	mv	t4,s6
   12062:	95ea                	add	a1,a1,s10
   12064:	0705                	add	a4,a4,1
   12066:	00542023          	sw	t0,0(s0)
   1206a:	01a42223          	sw	s10,4(s0)
   1206e:	d52e                	sw	a1,168(sp)
   12070:	d33a                	sw	a4,164(sp)
   12072:	469d                	li	a3,7
   12074:	94e6d163          	bge	a3,a4,111b6 <_vfprintf_r+0xf18>
   12078:	45a2                	lw	a1,8(sp)
   1207a:	1110                	add	a2,sp,160
   1207c:	854e                	mv	a0,s3
   1207e:	d276                	sw	t4,36(sp)
   12080:	d07a                	sw	t5,32(sp)
   12082:	2e41                	jal	12412 <__sprint_r>
   12084:	c119                	beqz	a0,1208a <_vfprintf_r+0x1dec>
   12086:	d64fe06f          	j	105ea <_vfprintf_r+0x34c>
   1208a:	55aa                	lw	a1,168(sp)
   1208c:	571a                	lw	a4,164(sp)
   1208e:	5e92                	lw	t4,36(sp)
   12090:	5f02                	lw	t5,32(sp)
   12092:	1160                	add	s0,sp,172
   12094:	f66fe06f          	j	107fa <_vfprintf_r+0x55c>
   12098:	08a10713          	add	a4,sp,138
   1209c:	e699                	bnez	a3,120aa <_vfprintf_r+0x1e0c>
   1209e:	03000713          	li	a4,48
   120a2:	08e10523          	sb	a4,138(sp)
   120a6:	08b10713          	add	a4,sp,139
   120aa:	0a9c                	add	a5,sp,336
   120ac:	40f706b3          	sub	a3,a4,a5
   120b0:	03030313          	add	t1,t1,48
   120b4:	0c968793          	add	a5,a3,201
   120b8:	00670023          	sb	t1,0(a4)
   120bc:	c0be                	sw	a5,64(sp)
   120be:	831ff06f          	j	118ee <_vfprintf_r+0x1650>
   120c2:	c802                	sw	zero,16(sp)
   120c4:	4319                	li	t1,6
   120c6:	cceff06f          	j	11594 <_vfprintf_r+0x12f6>
   120ca:	47a2                	lw	a5,8(sp)
   120cc:	4f01                	li	t5,0
   120ce:	00c79783          	lh	a5,12(a5)
   120d2:	0407e793          	or	a5,a5,64
   120d6:	4722                	lw	a4,8(sp)
   120d8:	00f71623          	sh	a5,12(a4)
   120dc:	d10fe06f          	j	105ec <_vfprintf_r+0x34e>
   120e0:	001f7713          	and	a4,t5,1
   120e4:	80070ee3          	beqz	a4,11900 <_vfprintf_r+0x1662>
   120e8:	815ff06f          	j	118fc <_vfprintf_r+0x165e>
   120ec:	57b2                	lw	a5,44(sp)
   120ee:	0e07c763          	bltz	a5,121dc <_vfprintf_r+0x1f3e>
   120f2:	07714603          	lbu	a2,119(sp)
   120f6:	04700713          	li	a4,71
   120fa:	0000ac17          	auipc	s8,0xa
   120fe:	a6ec0c13          	add	s8,s8,-1426 # 1bb68 <__clzsi2+0x88>
   12102:	01c75463          	bge	a4,t3,1210a <_vfprintf_r+0x1e6c>
   12106:	df8fe06f          	j	106fe <_vfprintf_r+0x460>
   1210a:	0000ac17          	auipc	s8,0xa
   1210e:	a5ac0c13          	add	s8,s8,-1446 # 1bb64 <__clzsi2+0x84>
   12112:	decfe06f          	j	106fe <_vfprintf_r+0x460>
   12116:	06700e13          	li	t3,103
   1211a:	57f2                	lw	a5,60(sp)
   1211c:	0ff00613          	li	a2,255
   12120:	0007c703          	lbu	a4,0(a5)
   12124:	16c70763          	beq	a4,a2,12292 <_vfprintf_r+0x1ff4>
   12128:	4581                	li	a1,0
   1212a:	4681                	li	a3,0
   1212c:	01475b63          	bge	a4,s4,12142 <_vfprintf_r+0x1ea4>
   12130:	40ea0a33          	sub	s4,s4,a4
   12134:	0017c703          	lbu	a4,1(a5)
   12138:	cb05                	beqz	a4,12168 <_vfprintf_r+0x1eca>
   1213a:	0685                	add	a3,a3,1
   1213c:	0785                	add	a5,a5,1
   1213e:	fec717e3          	bne	a4,a2,1212c <_vfprintf_r+0x1e8e>
   12142:	de3e                	sw	a5,60(sp)
   12144:	d036                	sw	a3,32(sp)
   12146:	d22e                	sw	a1,36(sp)
   12148:	5782                	lw	a5,32(sp)
   1214a:	5712                	lw	a4,36(sp)
   1214c:	8f56                	mv	t5,s5
   1214e:	973e                	add	a4,a4,a5
   12150:	47c6                	lw	a5,80(sp)
   12152:	02f70733          	mul	a4,a4,a5
   12156:	9b3a                	add	s6,s6,a4
   12158:	fffb4813          	not	a6,s6
   1215c:	41f85813          	sra	a6,a6,0x1f
   12160:	010b7cb3          	and	s9,s6,a6
   12164:	fb6ff06f          	j	1191a <_vfprintf_r+0x167c>
   12168:	0007c703          	lbu	a4,0(a5)
   1216c:	0585                	add	a1,a1,1
   1216e:	bfc1                	j	1213e <_vfprintf_r+0x1ea0>
   12170:	57c2                	lw	a5,48(sp)
   12172:	06600e13          	li	t3,102
   12176:	00f306b3          	add	a3,t1,a5
   1217a:	01468b33          	add	s6,a3,s4
   1217e:	bd31                	j	11f9a <_vfprintf_r+0x1cfc>
   12180:	8322                	mv	t1,s0
   12182:	4942                	lw	s2,16(sp)
   12184:	8456                	mv	s0,s5
   12186:	4ed2                	lw	t4,20(sp)
   12188:	8ada                	mv	s5,s6
   1218a:	8f52                	mv	t5,s4
   1218c:	8e6a                	mv	t3,s10
   1218e:	8b1a                	mv	s6,t1
   12190:	d32ff06f          	j	116c2 <_vfprintf_r+0x1424>
   12194:	07714603          	lbu	a2,119(sp)
   12198:	ca56                	sw	s5,20(sp)
   1219a:	d202                	sw	zero,36(sp)
   1219c:	d002                	sw	zero,32(sp)
   1219e:	8c9a                	mv	s9,t1
   121a0:	8b1a                	mv	s6,t1
   121a2:	07300e13          	li	t3,115
   121a6:	4301                	li	t1,0
   121a8:	e219                	bnez	a2,121ae <_vfprintf_r+0x1f10>
   121aa:	a8cfe06f          	j	10436 <_vfprintf_r+0x198>
   121ae:	d66fe06f          	j	10714 <_vfprintf_r+0x476>
   121b2:	84a2                	mv	s1,s0
   121b4:	845a                	mv	s0,s6
   121b6:	001a8b13          	add	s6,s5,1
   121ba:	89e2                	mv	s3,s8
   121bc:	5912                	lw	s2,36(sp)
   121be:	4f06                	lw	t5,64(sp)
   121c0:	4e26                	lw	t3,72(sp)
   121c2:	4ed6                	lw	t4,84(sp)
   121c4:	8c6a                	mv	s8,s10
   121c6:	9b26                	add	s6,s6,s1
   121c8:	03000693          	li	a3,48
   121cc:	a40ac8e3          	bltz	s5,11c1c <_vfprintf_r+0x197e>
   121d0:	0485                	add	s1,s1,1
   121d2:	fed48fa3          	sb	a3,-1(s1)
   121d6:	ff649de3          	bne	s1,s6,121d0 <_vfprintf_r+0x1f32>
   121da:	b491                	j	11c1e <_vfprintf_r+0x1980>
   121dc:	02d00793          	li	a5,45
   121e0:	06f10ba3          	sb	a5,119(sp)
   121e4:	02d00613          	li	a2,45
   121e8:	b739                	j	120f6 <_vfprintf_r+0x1e58>
   121ea:	4685                	li	a3,1
   121ec:	416686b3          	sub	a3,a3,s6
   121f0:	deb6                	sw	a3,124(sp)
   121f2:	861ff06f          	j	11a52 <_vfprintf_r+0x17b4>
   121f6:	855a                	mv	a0,s6
   121f8:	85ea                	mv	a1,s10
   121fa:	861a                	mv	a2,t1
   121fc:	869e                	mv	a3,t2
   121fe:	c4c2                	sw	a6,72(sp)
   12200:	c0f6                	sw	t4,64(sp)
   12202:	d272                	sw	t3,36(sp)
   12204:	cc7a                	sw	t5,24(sp)
   12206:	65a080ef          	jal	1a860 <__eqdf2>
   1220a:	4f62                	lw	t5,24(sp)
   1220c:	5e12                	lw	t3,36(sp)
   1220e:	4e86                	lw	t4,64(sp)
   12210:	4826                	lw	a6,72(sp)
   12212:	a00515e3          	bnez	a0,11c1c <_vfprintf_r+0x197e>
   12216:	001a7693          	and	a3,s4,1
   1221a:	a00681e3          	beqz	a3,11c1c <_vfprintf_r+0x197e>
   1221e:	b2c1                	j	11bde <_vfprintf_r+0x1940>
   12220:	e711                	bnez	a4,1222c <_vfprintf_r+0x1f8e>
   12222:	4c85                	li	s9,1
   12224:	06600e13          	li	t3,102
   12228:	4b05                	li	s6,1
   1222a:	beed                	j	11e24 <_vfprintf_r+0x1b86>
   1222c:	57c2                	lw	a5,48(sp)
   1222e:	06600e13          	li	t3,102
   12232:	00178693          	add	a3,a5,1
   12236:	00668b33          	add	s6,a3,t1
   1223a:	fffb4813          	not	a6,s6
   1223e:	41f85813          	sra	a6,a6,0x1f
   12242:	010b7cb3          	and	s9,s6,a6
   12246:	bef9                	j	11e24 <_vfprintf_r+0x1b86>
   12248:	47d2                	lw	a5,20(sp)
   1224a:	0007ab03          	lw	s6,0(a5)
   1224e:	0791                	add	a5,a5,4
   12250:	000b5363          	bgez	s6,12256 <_vfprintf_r+0x1fb8>
   12254:	5b7d                	li	s6,-1
   12256:	00194e03          	lbu	t3,1(s2)
   1225a:	ca3e                	sw	a5,20(sp)
   1225c:	8936                	mv	s2,a3
   1225e:	96efe06f          	j	103cc <_vfprintf_r+0x12e>
   12262:	4789                	li	a5,2
   12264:	c0be                	sw	a5,64(sp)
   12266:	e88ff06f          	j	118ee <_vfprintf_r+0x1650>
   1226a:	4722                	lw	a4,8(sp)
   1226c:	00c71783          	lh	a5,12(a4)
   12270:	0407e793          	or	a5,a5,64
   12274:	00f71623          	sh	a5,12(a4)
   12278:	b86fe06f          	j	105fe <_vfprintf_r+0x360>
   1227c:	04500813          	li	a6,69
   12280:	fd4ff06f          	j	11a54 <_vfprintf_r+0x17b6>
   12284:	47a2                	lw	a5,8(sp)
   12286:	4f42                	lw	t5,16(sp)
   12288:	00c79783          	lh	a5,12(a5)
   1228c:	0407e793          	or	a5,a5,64
   12290:	b599                	j	120d6 <_vfprintf_r+0x1e38>
   12292:	d202                	sw	zero,36(sp)
   12294:	d002                	sw	zero,32(sp)
   12296:	bd4d                	j	12148 <_vfprintf_r+0x1eaa>

00012298 <vfprintf>:
   12298:	86b2                	mv	a3,a2
   1229a:	862e                	mv	a2,a1
   1229c:	85aa                	mv	a1,a0
   1229e:	f2c1a503          	lw	a0,-212(gp) # 1d73c <_impure_ptr>
   122a2:	ffdfd06f          	j	1029e <_vfprintf_r>

000122a6 <__sbprintf>:
   122a6:	b7010113          	add	sp,sp,-1168
   122aa:	00c59783          	lh	a5,12(a1)
   122ae:	00e5d703          	lhu	a4,14(a1)
   122b2:	48812423          	sw	s0,1160(sp)
   122b6:	842e                	mv	s0,a1
   122b8:	65c1                	lui	a1,0x10
   122ba:	15f5                	add	a1,a1,-3 # fffd <exit-0x97>
   122bc:	06442303          	lw	t1,100(s0)
   122c0:	01c42883          	lw	a7,28(s0)
   122c4:	02442803          	lw	a6,36(s0)
   122c8:	0742                	sll	a4,a4,0x10
   122ca:	8fed                	and	a5,a5,a1
   122cc:	8fd9                	or	a5,a5,a4
   122ce:	40000593          	li	a1,1024
   122d2:	49212023          	sw	s2,1152(sp)
   122d6:	ca3e                	sw	a5,20(sp)
   122d8:	892a                	mv	s2,a0
   122da:	189c                	add	a5,sp,112
   122dc:	1088                	add	a0,sp,96
   122de:	48112623          	sw	ra,1164(sp)
   122e2:	48912223          	sw	s1,1156(sp)
   122e6:	47312e23          	sw	s3,1148(sp)
   122ea:	84b2                	mv	s1,a2
   122ec:	89b6                	mv	s3,a3
   122ee:	d69a                	sw	t1,108(sp)
   122f0:	d246                	sw	a7,36(sp)
   122f2:	d642                	sw	a6,44(sp)
   122f4:	c43e                	sw	a5,8(sp)
   122f6:	cc3e                	sw	a5,24(sp)
   122f8:	c82e                	sw	a1,16(sp)
   122fa:	ce2e                	sw	a1,28(sp)
   122fc:	d002                	sw	zero,32(sp)
   122fe:	79d020ef          	jal	1529a <__retarget_lock_init_recursive>
   12302:	8626                	mv	a2,s1
   12304:	86ce                	mv	a3,s3
   12306:	002c                	add	a1,sp,8
   12308:	854a                	mv	a0,s2
   1230a:	f95fd0ef          	jal	1029e <_vfprintf_r>
   1230e:	84aa                	mv	s1,a0
   12310:	02055e63          	bgez	a0,1234c <__sbprintf+0xa6>
   12314:	01415783          	lhu	a5,20(sp)
   12318:	0407f793          	and	a5,a5,64
   1231c:	c799                	beqz	a5,1232a <__sbprintf+0x84>
   1231e:	00c45783          	lhu	a5,12(s0)
   12322:	0407e793          	or	a5,a5,64
   12326:	00f41623          	sh	a5,12(s0)
   1232a:	5506                	lw	a0,96(sp)
   1232c:	773020ef          	jal	1529e <__retarget_lock_close_recursive>
   12330:	48c12083          	lw	ra,1164(sp)
   12334:	48812403          	lw	s0,1160(sp)
   12338:	48012903          	lw	s2,1152(sp)
   1233c:	47c12983          	lw	s3,1148(sp)
   12340:	8526                	mv	a0,s1
   12342:	48412483          	lw	s1,1156(sp)
   12346:	49010113          	add	sp,sp,1168
   1234a:	8082                	ret
   1234c:	002c                	add	a1,sp,8
   1234e:	854a                	mv	a0,s2
   12350:	404010ef          	jal	13754 <_fflush_r>
   12354:	d161                	beqz	a0,12314 <__sbprintf+0x6e>
   12356:	54fd                	li	s1,-1
   12358:	bf75                	j	12314 <__sbprintf+0x6e>

0001235a <__sprint_r.part.0>:
   1235a:	51fc                	lw	a5,100(a1)
   1235c:	7179                	add	sp,sp,-48
   1235e:	c85a                	sw	s6,16(sp)
   12360:	d606                	sw	ra,44(sp)
   12362:	01279713          	sll	a4,a5,0x12
   12366:	8b32                	mv	s6,a2
   12368:	08075b63          	bgez	a4,123fe <__sprint_r.part.0+0xa4>
   1236c:	461c                	lw	a5,8(a2)
   1236e:	d04a                	sw	s2,32(sp)
   12370:	ce4e                	sw	s3,28(sp)
   12372:	ca56                	sw	s5,20(sp)
   12374:	c65e                	sw	s7,12(sp)
   12376:	892e                	mv	s2,a1
   12378:	00062b83          	lw	s7,0(a2)
   1237c:	89aa                	mv	s3,a0
   1237e:	5afd                	li	s5,-1
   12380:	cbad                	beqz	a5,123f2 <__sprint_r.part.0+0x98>
   12382:	d422                	sw	s0,40(sp)
   12384:	d226                	sw	s1,36(sp)
   12386:	cc52                	sw	s4,24(sp)
   12388:	c462                	sw	s8,8(sp)
   1238a:	004bac03          	lw	s8,4(s7)
   1238e:	000ba403          	lw	s0,0(s7)
   12392:	002c5a13          	srl	s4,s8,0x2
   12396:	040a0263          	beqz	s4,123da <__sprint_r.part.0+0x80>
   1239a:	4481                	li	s1,0
   1239c:	a021                	j	123a4 <__sprint_r.part.0+0x4a>
   1239e:	0411                	add	s0,s0,4
   123a0:	029a0b63          	beq	s4,s1,123d6 <__sprint_r.part.0+0x7c>
   123a4:	400c                	lw	a1,0(s0)
   123a6:	864a                	mv	a2,s2
   123a8:	854e                	mv	a0,s3
   123aa:	617010ef          	jal	141c0 <_fputwc_r>
   123ae:	0485                	add	s1,s1,1
   123b0:	ff5517e3          	bne	a0,s5,1239e <__sprint_r.part.0+0x44>
   123b4:	5422                	lw	s0,40(sp)
   123b6:	5492                	lw	s1,36(sp)
   123b8:	5902                	lw	s2,32(sp)
   123ba:	49f2                	lw	s3,28(sp)
   123bc:	4a62                	lw	s4,24(sp)
   123be:	4ad2                	lw	s5,20(sp)
   123c0:	4bb2                	lw	s7,12(sp)
   123c2:	4c22                	lw	s8,8(sp)
   123c4:	557d                	li	a0,-1
   123c6:	50b2                	lw	ra,44(sp)
   123c8:	000b2423          	sw	zero,8(s6)
   123cc:	000b2223          	sw	zero,4(s6)
   123d0:	4b42                	lw	s6,16(sp)
   123d2:	6145                	add	sp,sp,48
   123d4:	8082                	ret
   123d6:	008b2783          	lw	a5,8(s6)
   123da:	ffcc7c13          	and	s8,s8,-4
   123de:	418787b3          	sub	a5,a5,s8
   123e2:	00fb2423          	sw	a5,8(s6)
   123e6:	0ba1                	add	s7,s7,8
   123e8:	f3cd                	bnez	a5,1238a <__sprint_r.part.0+0x30>
   123ea:	5422                	lw	s0,40(sp)
   123ec:	5492                	lw	s1,36(sp)
   123ee:	4a62                	lw	s4,24(sp)
   123f0:	4c22                	lw	s8,8(sp)
   123f2:	5902                	lw	s2,32(sp)
   123f4:	49f2                	lw	s3,28(sp)
   123f6:	4ad2                	lw	s5,20(sp)
   123f8:	4bb2                	lw	s7,12(sp)
   123fa:	4501                	li	a0,0
   123fc:	b7e9                	j	123c6 <__sprint_r.part.0+0x6c>
   123fe:	7b6010ef          	jal	13bb4 <__sfvwrite_r>
   12402:	50b2                	lw	ra,44(sp)
   12404:	000b2423          	sw	zero,8(s6)
   12408:	000b2223          	sw	zero,4(s6)
   1240c:	4b42                	lw	s6,16(sp)
   1240e:	6145                	add	sp,sp,48
   12410:	8082                	ret

00012412 <__sprint_r>:
   12412:	4618                	lw	a4,8(a2)
   12414:	c311                	beqz	a4,12418 <__sprint_r+0x6>
   12416:	b791                	j	1235a <__sprint_r.part.0>
   12418:	00062223          	sw	zero,4(a2)
   1241c:	4501                	li	a0,0
   1241e:	8082                	ret

00012420 <_vfiprintf_r>:
   12420:	714d                	add	sp,sp,-336
   12422:	14912223          	sw	s1,324(sp)
   12426:	13412c23          	sw	s4,312(sp)
   1242a:	13912223          	sw	s9,292(sp)
   1242e:	84aa                	mv	s1,a0
   12430:	8a2e                	mv	s4,a1
   12432:	8cb2                	mv	s9,a2
   12434:	4581                	li	a1,0
   12436:	4621                	li	a2,8
   12438:	0888                	add	a0,sp,80
   1243a:	13612823          	sw	s6,304(sp)
   1243e:	14112623          	sw	ra,332(sp)
   12442:	8b36                	mv	s6,a3
   12444:	1cb020ef          	jal	14e0e <memset>
   12448:	c481                	beqz	s1,12450 <_vfiprintf_r+0x30>
   1244a:	58dc                	lw	a5,52(s1)
   1244c:	6c0784e3          	beqz	a5,13314 <_vfiprintf_r+0xef4>
   12450:	064a2703          	lw	a4,100(s4)
   12454:	00ca1783          	lh	a5,12(s4)
   12458:	8b05                	and	a4,a4,1
   1245a:	e709                	bnez	a4,12464 <_vfiprintf_r+0x44>
   1245c:	2007f713          	and	a4,a5,512
   12460:	36070be3          	beqz	a4,12fd6 <_vfiprintf_r+0xbb6>
   12464:	01279713          	sll	a4,a5,0x12
   12468:	00074f63          	bltz	a4,12486 <_vfiprintf_r+0x66>
   1246c:	064a2703          	lw	a4,100(s4)
   12470:	6609                	lui	a2,0x2
   12472:	76f9                	lui	a3,0xffffe
   12474:	8fd1                	or	a5,a5,a2
   12476:	16fd                	add	a3,a3,-1 # ffffdfff <__BSS_END__+0xfffe02b7>
   12478:	07c2                	sll	a5,a5,0x10
   1247a:	87c1                	sra	a5,a5,0x10
   1247c:	8f75                	and	a4,a4,a3
   1247e:	00fa1623          	sh	a5,12(s4)
   12482:	06ea2223          	sw	a4,100(s4)
   12486:	0087f713          	and	a4,a5,8
   1248a:	20070063          	beqz	a4,1268a <_vfiprintf_r+0x26a>
   1248e:	010a2703          	lw	a4,16(s4)
   12492:	1e070c63          	beqz	a4,1268a <_vfiprintf_r+0x26a>
   12496:	01a7f713          	and	a4,a5,26
   1249a:	46a9                	li	a3,10
   1249c:	20d70463          	beq	a4,a3,126a4 <_vfiprintf_r+0x284>
   124a0:	13512a23          	sw	s5,308(sp)
   124a4:	06c10a93          	add	s5,sp,108
   124a8:	14812423          	sw	s0,328(sp)
   124ac:	15212023          	sw	s2,320(sp)
   124b0:	13312e23          	sw	s3,316(sp)
   124b4:	13712623          	sw	s7,300(sp)
   124b8:	13812423          	sw	s8,296(sp)
   124bc:	13a12023          	sw	s10,288(sp)
   124c0:	11b12e23          	sw	s11,284(sp)
   124c4:	d0d6                	sw	s5,96(sp)
   124c6:	d482                	sw	zero,104(sp)
   124c8:	d282                	sw	zero,100(sp)
   124ca:	8456                	mv	s0,s5
   124cc:	ca02                	sw	zero,20(sp)
   124ce:	d602                	sw	zero,44(sp)
   124d0:	d802                	sw	zero,48(sp)
   124d2:	da02                	sw	zero,52(sp)
   124d4:	c602                	sw	zero,12(sp)
   124d6:	0000b917          	auipc	s2,0xb
   124da:	b4690913          	add	s2,s2,-1210 # 1d01c <__global_locale>
   124de:	02500993          	li	s3,37
   124e2:	0000ac17          	auipc	s8,0xa
   124e6:	bdac0c13          	add	s8,s8,-1062 # 1c0bc <blanks.1+0x10>
   124ea:	0000ab97          	auipc	s7,0xa
   124ee:	d3eb8b93          	add	s7,s7,-706 # 1c228 <zeroes.0>
   124f2:	8d66                	mv	s10,s9
   124f4:	8dea                	mv	s11,s10
   124f6:	0e492c83          	lw	s9,228(s2)
   124fa:	025020ef          	jal	14d1e <__locale_mb_cur_max>
   124fe:	86aa                	mv	a3,a0
   12500:	0898                	add	a4,sp,80
   12502:	866e                	mv	a2,s11
   12504:	00ac                	add	a1,sp,72
   12506:	8526                	mv	a0,s1
   12508:	9c82                	jalr	s9
   1250a:	24050d63          	beqz	a0,12764 <_vfiprintf_r+0x344>
   1250e:	24054363          	bltz	a0,12754 <_vfiprintf_r+0x334>
   12512:	47a6                	lw	a5,72(sp)
   12514:	01378463          	beq	a5,s3,1251c <_vfiprintf_r+0xfc>
   12518:	9daa                	add	s11,s11,a0
   1251a:	bff1                	j	124f6 <_vfiprintf_r+0xd6>
   1251c:	8caa                	mv	s9,a0
   1251e:	41ad87b3          	sub	a5,s11,s10
   12522:	25ad9663          	bne	s11,s10,1276e <_vfiprintf_r+0x34e>
   12526:	001dc703          	lbu	a4,1(s11)
   1252a:	001d8d13          	add	s10,s11,1
   1252e:	040101a3          	sb	zero,67(sp)
   12532:	5cfd                	li	s9,-1
   12534:	4881                	li	a7,0
   12536:	4e01                	li	t3,0
   12538:	05a00d93          	li	s11,90
   1253c:	0d05                	add	s10,s10,1
   1253e:	fe070793          	add	a5,a4,-32
   12542:	02fdeb63          	bltu	s11,a5,12578 <_vfiprintf_r+0x158>
   12546:	078a                	sll	a5,a5,0x2
   12548:	97e2                	add	a5,a5,s8
   1254a:	439c                	lw	a5,0(a5)
   1254c:	97e2                	add	a5,a5,s8
   1254e:	8782                	jr	a5
   12550:	4881                	li	a7,0
   12552:	fd070793          	add	a5,a4,-48
   12556:	4625                	li	a2,9
   12558:	000d4703          	lbu	a4,0(s10)
   1255c:	00289693          	sll	a3,a7,0x2
   12560:	98b6                	add	a7,a7,a3
   12562:	0886                	sll	a7,a7,0x1
   12564:	98be                	add	a7,a7,a5
   12566:	fd070793          	add	a5,a4,-48
   1256a:	0d05                	add	s10,s10,1
   1256c:	fef676e3          	bgeu	a2,a5,12558 <_vfiprintf_r+0x138>
   12570:	fe070793          	add	a5,a4,-32
   12574:	fcfdf9e3          	bgeu	s11,a5,12546 <_vfiprintf_r+0x126>
   12578:	22070763          	beqz	a4,127a6 <_vfiprintf_r+0x386>
   1257c:	0ae10623          	sb	a4,172(sp)
   12580:	040101a3          	sb	zero,67(sp)
   12584:	4e85                	li	t4,1
   12586:	4d85                	li	s11,1
   12588:	0ac10813          	add	a6,sp,172
   1258c:	c802                	sw	zero,16(sp)
   1258e:	4c81                	li	s9,0
   12590:	4f81                	li	t6,0
   12592:	5616                	lw	a2,100(sp)
   12594:	084e7293          	and	t0,t3,132
   12598:	57a6                	lw	a5,104(sp)
   1259a:	00160593          	add	a1,a2,1 # 2001 <exit-0xe093>
   1259e:	8f2e                	mv	t5,a1
   125a0:	00029663          	bnez	t0,125ac <_vfiprintf_r+0x18c>
   125a4:	41d88733          	sub	a4,a7,t4
   125a8:	0ae04fe3          	bgtz	a4,12e66 <_vfiprintf_r+0xa46>
   125ac:	04314703          	lbu	a4,67(sp)
   125b0:	cf19                	beqz	a4,125ce <_vfiprintf_r+0x1ae>
   125b2:	04310713          	add	a4,sp,67
   125b6:	0785                	add	a5,a5,1
   125b8:	c018                	sw	a4,0(s0)
   125ba:	4705                	li	a4,1
   125bc:	c058                	sw	a4,4(s0)
   125be:	d4be                	sw	a5,104(sp)
   125c0:	d2fa                	sw	t5,100(sp)
   125c2:	471d                	li	a4,7
   125c4:	01e74ae3          	blt	a4,t5,12dd8 <_vfiprintf_r+0x9b8>
   125c8:	867a                	mv	a2,t5
   125ca:	0421                	add	s0,s0,8
   125cc:	0f05                	add	t5,t5,1
   125ce:	040f8363          	beqz	t6,12614 <_vfiprintf_r+0x1f4>
   125d2:	00d8                	add	a4,sp,68
   125d4:	0789                	add	a5,a5,2
   125d6:	c018                	sw	a4,0(s0)
   125d8:	4709                	li	a4,2
   125da:	c058                	sw	a4,4(s0)
   125dc:	d4be                	sw	a5,104(sp)
   125de:	d2fa                	sw	t5,100(sp)
   125e0:	471d                	li	a4,7
   125e2:	03e75ee3          	bge	a4,t5,12e1e <_vfiprintf_r+0x9fe>
   125e6:	1a0783e3          	beqz	a5,12f8c <_vfiprintf_r+0xb6c>
   125ea:	1090                	add	a2,sp,96
   125ec:	85d2                	mv	a1,s4
   125ee:	8526                	mv	a0,s1
   125f0:	d476                	sw	t4,40(sp)
   125f2:	d246                	sw	a7,36(sp)
   125f4:	d042                	sw	a6,32(sp)
   125f6:	ce16                	sw	t0,28(sp)
   125f8:	cc72                	sw	t3,24(sp)
   125fa:	3385                	jal	1235a <__sprint_r.part.0>
   125fc:	1c051263          	bnez	a0,127c0 <_vfiprintf_r+0x3a0>
   12600:	5616                	lw	a2,100(sp)
   12602:	57a6                	lw	a5,104(sp)
   12604:	5ea2                	lw	t4,40(sp)
   12606:	5892                	lw	a7,36(sp)
   12608:	5802                	lw	a6,32(sp)
   1260a:	42f2                	lw	t0,28(sp)
   1260c:	4e62                	lw	t3,24(sp)
   1260e:	8456                	mv	s0,s5
   12610:	00160f13          	add	t5,a2,1
   12614:	08000713          	li	a4,128
   12618:	64e28a63          	beq	t0,a4,12c6c <_vfiprintf_r+0x84c>
   1261c:	41bc82b3          	sub	t0,s9,s11
   12620:	70504c63          	bgtz	t0,12d38 <_vfiprintf_r+0x918>
   12624:	97ee                	add	a5,a5,s11
   12626:	01042023          	sw	a6,0(s0)
   1262a:	01b42223          	sw	s11,4(s0)
   1262e:	d4be                	sw	a5,104(sp)
   12630:	d2fa                	sw	t5,100(sp)
   12632:	471d                	li	a4,7
   12634:	63e75663          	bge	a4,t5,12c60 <_vfiprintf_r+0x840>
   12638:	1e078263          	beqz	a5,1281c <_vfiprintf_r+0x3fc>
   1263c:	1090                	add	a2,sp,96
   1263e:	85d2                	mv	a1,s4
   12640:	8526                	mv	a0,s1
   12642:	d076                	sw	t4,32(sp)
   12644:	ce46                	sw	a7,28(sp)
   12646:	cc72                	sw	t3,24(sp)
   12648:	3b09                	jal	1235a <__sprint_r.part.0>
   1264a:	16051b63          	bnez	a0,127c0 <_vfiprintf_r+0x3a0>
   1264e:	57a6                	lw	a5,104(sp)
   12650:	5e82                	lw	t4,32(sp)
   12652:	48f2                	lw	a7,28(sp)
   12654:	4e62                	lw	t3,24(sp)
   12656:	8456                	mv	s0,s5
   12658:	004e7e13          	and	t3,t3,4
   1265c:	000e0663          	beqz	t3,12668 <_vfiprintf_r+0x248>
   12660:	41d88cb3          	sub	s9,a7,t4
   12664:	1d904663          	bgtz	s9,12830 <_vfiprintf_r+0x410>
   12668:	01d8d363          	bge	a7,t4,1266e <_vfiprintf_r+0x24e>
   1266c:	88f6                	mv	a7,t4
   1266e:	4732                	lw	a4,12(sp)
   12670:	9746                	add	a4,a4,a7
   12672:	c63a                	sw	a4,12(sp)
   12674:	14079063          	bnez	a5,127b4 <_vfiprintf_r+0x394>
   12678:	47c2                	lw	a5,16(sp)
   1267a:	d282                	sw	zero,100(sp)
   1267c:	c789                	beqz	a5,12686 <_vfiprintf_r+0x266>
   1267e:	85be                	mv	a1,a5
   12680:	8526                	mv	a0,s1
   12682:	044040ef          	jal	166c6 <_free_r>
   12686:	8456                	mv	s0,s5
   12688:	b5b5                	j	124f4 <_vfiprintf_r+0xd4>
   1268a:	85d2                	mv	a1,s4
   1268c:	8526                	mv	a0,s1
   1268e:	0f1010ef          	jal	13f7e <__swsetup_r>
   12692:	5e0519e3          	bnez	a0,13484 <_vfiprintf_r+0x1064>
   12696:	00ca1783          	lh	a5,12(s4)
   1269a:	46a9                	li	a3,10
   1269c:	01a7f713          	and	a4,a5,26
   126a0:	e0d710e3          	bne	a4,a3,124a0 <_vfiprintf_r+0x80>
   126a4:	00ea1703          	lh	a4,14(s4)
   126a8:	de074ce3          	bltz	a4,124a0 <_vfiprintf_r+0x80>
   126ac:	064a2703          	lw	a4,100(s4)
   126b0:	8b05                	and	a4,a4,1
   126b2:	e709                	bnez	a4,126bc <_vfiprintf_r+0x29c>
   126b4:	2007f793          	and	a5,a5,512
   126b8:	54078be3          	beqz	a5,1340e <_vfiprintf_r+0xfee>
   126bc:	86da                	mv	a3,s6
   126be:	8666                	mv	a2,s9
   126c0:	85d2                	mv	a1,s4
   126c2:	8526                	mv	a0,s1
   126c4:	64b000ef          	jal	1350e <__sbprintf>
   126c8:	14c12083          	lw	ra,332(sp)
   126cc:	c62a                	sw	a0,12(sp)
   126ce:	4532                	lw	a0,12(sp)
   126d0:	14412483          	lw	s1,324(sp)
   126d4:	13812a03          	lw	s4,312(sp)
   126d8:	13012b03          	lw	s6,304(sp)
   126dc:	12412c83          	lw	s9,292(sp)
   126e0:	6171                	add	sp,sp,336
   126e2:	8082                	ret
   126e4:	000b2883          	lw	a7,0(s6)
   126e8:	0b11                	add	s6,s6,4
   126ea:	3208c363          	bltz	a7,12a10 <_vfiprintf_r+0x5f0>
   126ee:	000d4703          	lbu	a4,0(s10)
   126f2:	b5a9                	j	1253c <_vfiprintf_r+0x11c>
   126f4:	000d4703          	lbu	a4,0(s10)
   126f8:	020e6e13          	or	t3,t3,32
   126fc:	b581                	j	1253c <_vfiprintf_r+0x11c>
   126fe:	010e6e13          	or	t3,t3,16
   12702:	020e7793          	and	a5,t3,32
   12706:	1e078163          	beqz	a5,128e8 <_vfiprintf_r+0x4c8>
   1270a:	0b1d                	add	s6,s6,7
   1270c:	ff8b7b13          	and	s6,s6,-8
   12710:	004b2783          	lw	a5,4(s6)
   12714:	000b2d83          	lw	s11,0(s6)
   12718:	0b21                	add	s6,s6,8
   1271a:	8ebe                	mv	t4,a5
   1271c:	1e07c963          	bltz	a5,1290e <_vfiprintf_r+0x4ee>
   12720:	200cc763          	bltz	s9,1292e <_vfiprintf_r+0x50e>
   12724:	01dde7b3          	or	a5,s11,t4
   12728:	f7fe7e13          	and	t3,t3,-129
   1272c:	20079163          	bnez	a5,1292e <_vfiprintf_r+0x50e>
   12730:	4c0c97e3          	bnez	s9,133fe <_vfiprintf_r+0xfde>
   12734:	04314783          	lbu	a5,67(sp)
   12738:	c802                	sw	zero,16(sp)
   1273a:	4e81                	li	t4,0
   1273c:	4d81                	li	s11,0
   1273e:	11010813          	add	a6,sp,272
   12742:	c391                	beqz	a5,12746 <_vfiprintf_r+0x326>
   12744:	0e85                	add	t4,t4,1
   12746:	002e7f93          	and	t6,t3,2
   1274a:	e40f84e3          	beqz	t6,12592 <_vfiprintf_r+0x172>
   1274e:	0e89                	add	t4,t4,2
   12750:	4f89                	li	t6,2
   12752:	b581                	j	12592 <_vfiprintf_r+0x172>
   12754:	4621                	li	a2,8
   12756:	4581                	li	a1,0
   12758:	0888                	add	a0,sp,80
   1275a:	6b4020ef          	jal	14e0e <memset>
   1275e:	4505                	li	a0,1
   12760:	9daa                	add	s11,s11,a0
   12762:	bb51                	j	124f6 <_vfiprintf_r+0xd6>
   12764:	8caa                	mv	s9,a0
   12766:	41ad87b3          	sub	a5,s11,s10
   1276a:	03ad8e63          	beq	s11,s10,127a6 <_vfiprintf_r+0x386>
   1276e:	56a6                	lw	a3,104(sp)
   12770:	5716                	lw	a4,100(sp)
   12772:	01a42023          	sw	s10,0(s0)
   12776:	96be                	add	a3,a3,a5
   12778:	0705                	add	a4,a4,1
   1277a:	c05c                	sw	a5,4(s0)
   1277c:	d4b6                	sw	a3,104(sp)
   1277e:	d2ba                	sw	a4,100(sp)
   12780:	461d                	li	a2,7
   12782:	0421                	add	s0,s0,8
   12784:	00e65c63          	bge	a2,a4,1279c <_vfiprintf_r+0x37c>
   12788:	7c068363          	beqz	a3,12f4e <_vfiprintf_r+0xb2e>
   1278c:	1090                	add	a2,sp,96
   1278e:	85d2                	mv	a1,s4
   12790:	8526                	mv	a0,s1
   12792:	c83e                	sw	a5,16(sp)
   12794:	36d9                	jal	1235a <__sprint_r.part.0>
   12796:	47c2                	lw	a5,16(sp)
   12798:	e915                	bnez	a0,127cc <_vfiprintf_r+0x3ac>
   1279a:	8456                	mv	s0,s5
   1279c:	4732                	lw	a4,12(sp)
   1279e:	97ba                	add	a5,a5,a4
   127a0:	c63e                	sw	a5,12(sp)
   127a2:	d80c92e3          	bnez	s9,12526 <_vfiprintf_r+0x106>
   127a6:	57a6                	lw	a5,104(sp)
   127a8:	4a0797e3          	bnez	a5,13456 <_vfiprintf_r+0x1036>
   127ac:	00ca1783          	lh	a5,12(s4)
   127b0:	d282                	sw	zero,100(sp)
   127b2:	a839                	j	127d0 <_vfiprintf_r+0x3b0>
   127b4:	1090                	add	a2,sp,96
   127b6:	85d2                	mv	a1,s4
   127b8:	8526                	mv	a0,s1
   127ba:	3645                	jal	1235a <__sprint_r.part.0>
   127bc:	ea050ee3          	beqz	a0,12678 <_vfiprintf_r+0x258>
   127c0:	47c2                	lw	a5,16(sp)
   127c2:	c789                	beqz	a5,127cc <_vfiprintf_r+0x3ac>
   127c4:	45c2                	lw	a1,16(sp)
   127c6:	8526                	mv	a0,s1
   127c8:	6ff030ef          	jal	166c6 <_free_r>
   127cc:	00ca1783          	lh	a5,12(s4)
   127d0:	064a2703          	lw	a4,100(s4)
   127d4:	8b05                	and	a4,a4,1
   127d6:	0e070e63          	beqz	a4,128d2 <_vfiprintf_r+0x4b2>
   127da:	0407f793          	and	a5,a5,64
   127de:	14812403          	lw	s0,328(sp)
   127e2:	14012903          	lw	s2,320(sp)
   127e6:	13c12983          	lw	s3,316(sp)
   127ea:	13412a83          	lw	s5,308(sp)
   127ee:	12c12b83          	lw	s7,300(sp)
   127f2:	12812c03          	lw	s8,296(sp)
   127f6:	12012d03          	lw	s10,288(sp)
   127fa:	11c12d83          	lw	s11,284(sp)
   127fe:	4a0790e3          	bnez	a5,1349e <_vfiprintf_r+0x107e>
   12802:	14c12083          	lw	ra,332(sp)
   12806:	4532                	lw	a0,12(sp)
   12808:	14412483          	lw	s1,324(sp)
   1280c:	13812a03          	lw	s4,312(sp)
   12810:	13012b03          	lw	s6,304(sp)
   12814:	12412c83          	lw	s9,292(sp)
   12818:	6171                	add	sp,sp,336
   1281a:	8082                	ret
   1281c:	d282                	sw	zero,100(sp)
   1281e:	004e7e13          	and	t3,t3,4
   12822:	6e0e0763          	beqz	t3,12f10 <_vfiprintf_r+0xaf0>
   12826:	41d88cb3          	sub	s9,a7,t4
   1282a:	6f905363          	blez	s9,12f10 <_vfiprintf_r+0xaf0>
   1282e:	8456                	mv	s0,s5
   12830:	4741                	li	a4,16
   12832:	5696                	lw	a3,100(sp)
   12834:	43975ae3          	bge	a4,s9,13468 <_vfiprintf_r+0x1048>
   12838:	0000a317          	auipc	t1,0xa
   1283c:	a0030313          	add	t1,t1,-1536 # 1c238 <blanks.1>
   12840:	85a2                	mv	a1,s0
   12842:	4841                	li	a6,16
   12844:	8466                	mv	s0,s9
   12846:	4d9d                	li	s11,7
   12848:	8cda                	mv	s9,s6
   1284a:	cc46                	sw	a7,24(sp)
   1284c:	ce76                	sw	t4,28(sp)
   1284e:	8b1a                	mv	s6,t1
   12850:	a801                	j	12860 <_vfiprintf_r+0x440>
   12852:	00268613          	add	a2,a3,2
   12856:	05a1                	add	a1,a1,8
   12858:	86ba                	mv	a3,a4
   1285a:	1441                	add	s0,s0,-16
   1285c:	02885d63          	bge	a6,s0,12896 <_vfiprintf_r+0x476>
   12860:	07c1                	add	a5,a5,16
   12862:	00168713          	add	a4,a3,1
   12866:	0165a023          	sw	s6,0(a1)
   1286a:	0105a223          	sw	a6,4(a1)
   1286e:	d4be                	sw	a5,104(sp)
   12870:	d2ba                	sw	a4,100(sp)
   12872:	feedd0e3          	bge	s11,a4,12852 <_vfiprintf_r+0x432>
   12876:	3e078763          	beqz	a5,12c64 <_vfiprintf_r+0x844>
   1287a:	1090                	add	a2,sp,96
   1287c:	85d2                	mv	a1,s4
   1287e:	8526                	mv	a0,s1
   12880:	3ce9                	jal	1235a <__sprint_r.part.0>
   12882:	fd1d                	bnez	a0,127c0 <_vfiprintf_r+0x3a0>
   12884:	5696                	lw	a3,100(sp)
   12886:	4841                	li	a6,16
   12888:	1441                	add	s0,s0,-16
   1288a:	57a6                	lw	a5,104(sp)
   1288c:	85d6                	mv	a1,s5
   1288e:	00168613          	add	a2,a3,1
   12892:	fc8847e3          	blt	a6,s0,12860 <_vfiprintf_r+0x440>
   12896:	48e2                	lw	a7,24(sp)
   12898:	4ef2                	lw	t4,28(sp)
   1289a:	835a                	mv	t1,s6
   1289c:	8b66                	mv	s6,s9
   1289e:	8ca2                	mv	s9,s0
   128a0:	842e                	mv	s0,a1
   128a2:	97e6                	add	a5,a5,s9
   128a4:	00642023          	sw	t1,0(s0)
   128a8:	01942223          	sw	s9,4(s0)
   128ac:	d4be                	sw	a5,104(sp)
   128ae:	d2b2                	sw	a2,100(sp)
   128b0:	471d                	li	a4,7
   128b2:	dac75be3          	bge	a4,a2,12668 <_vfiprintf_r+0x248>
   128b6:	64078d63          	beqz	a5,12f10 <_vfiprintf_r+0xaf0>
   128ba:	1090                	add	a2,sp,96
   128bc:	85d2                	mv	a1,s4
   128be:	8526                	mv	a0,s1
   128c0:	ce76                	sw	t4,28(sp)
   128c2:	cc46                	sw	a7,24(sp)
   128c4:	3c59                	jal	1235a <__sprint_r.part.0>
   128c6:	ee051de3          	bnez	a0,127c0 <_vfiprintf_r+0x3a0>
   128ca:	57a6                	lw	a5,104(sp)
   128cc:	4ef2                	lw	t4,28(sp)
   128ce:	48e2                	lw	a7,24(sp)
   128d0:	bb61                	j	12668 <_vfiprintf_r+0x248>
   128d2:	2007f713          	and	a4,a5,512
   128d6:	f00712e3          	bnez	a4,127da <_vfiprintf_r+0x3ba>
   128da:	058a2503          	lw	a0,88(s4)
   128de:	1d1020ef          	jal	152ae <__retarget_lock_release_recursive>
   128e2:	00ca1783          	lh	a5,12(s4)
   128e6:	bdd5                	j	127da <_vfiprintf_r+0x3ba>
   128e8:	010e7793          	and	a5,t3,16
   128ec:	000b2d83          	lw	s11,0(s6)
   128f0:	0b11                	add	s6,s6,4
   128f2:	70079463          	bnez	a5,12ffa <_vfiprintf_r+0xbda>
   128f6:	040e7793          	and	a5,t3,64
   128fa:	6e078c63          	beqz	a5,12ff2 <_vfiprintf_r+0xbd2>
   128fe:	0dc2                	sll	s11,s11,0x10
   12900:	410ddd93          	sra	s11,s11,0x10
   12904:	41fdde93          	sra	t4,s11,0x1f
   12908:	87f6                	mv	a5,t4
   1290a:	e007dbe3          	bgez	a5,12720 <_vfiprintf_r+0x300>
   1290e:	02d00713          	li	a4,45
   12912:	01b037b3          	snez	a5,s11
   12916:	41d00eb3          	neg	t4,t4
   1291a:	04e101a3          	sb	a4,67(sp)
   1291e:	40fe8eb3          	sub	t4,t4,a5
   12922:	41b00db3          	neg	s11,s11
   12926:	000cc463          	bltz	s9,1292e <_vfiprintf_r+0x50e>
   1292a:	f7fe7e13          	and	t3,t3,-129
   1292e:	080e92e3          	bnez	t4,131b2 <_vfiprintf_r+0xd92>
   12932:	47a5                	li	a5,9
   12934:	07b7efe3          	bltu	a5,s11,131b2 <_vfiprintf_r+0xd92>
   12938:	030d8793          	add	a5,s11,48
   1293c:	0ff7f793          	zext.b	a5,a5
   12940:	10f107a3          	sb	a5,271(sp)
   12944:	8ee6                	mv	t4,s9
   12946:	01904363          	bgtz	s9,1294c <_vfiprintf_r+0x52c>
   1294a:	4e85                	li	t4,1
   1294c:	4d85                	li	s11,1
   1294e:	10f10813          	add	a6,sp,271
   12952:	04314783          	lbu	a5,67(sp)
   12956:	c802                	sw	zero,16(sp)
   12958:	de0796e3          	bnez	a5,12744 <_vfiprintf_r+0x324>
   1295c:	b3ed                	j	12746 <_vfiprintf_r+0x326>
   1295e:	000b2803          	lw	a6,0(s6)
   12962:	004b0793          	add	a5,s6,4
   12966:	040101a3          	sb	zero,67(sp)
   1296a:	cc3e                	sw	a5,24(sp)
   1296c:	1c080ee3          	beqz	a6,13348 <_vfiprintf_r+0xf28>
   12970:	05300793          	li	a5,83
   12974:	74f70663          	beq	a4,a5,130c0 <_vfiprintf_r+0xca0>
   12978:	010e7793          	and	a5,t3,16
   1297c:	74079263          	bnez	a5,130c0 <_vfiprintf_r+0xca0>
   12980:	d246                	sw	a7,36(sp)
   12982:	d072                	sw	t3,32(sp)
   12984:	2a0cc9e3          	bltz	s9,13436 <_vfiprintf_r+0x1016>
   12988:	8542                	mv	a0,a6
   1298a:	8666                	mv	a2,s9
   1298c:	4581                	li	a1,0
   1298e:	ce42                	sw	a6,28(sp)
   12990:	6c8010ef          	jal	14058 <memchr>
   12994:	c82a                	sw	a0,16(sp)
   12996:	4872                	lw	a6,28(sp)
   12998:	5e02                	lw	t3,32(sp)
   1299a:	5892                	lw	a7,36(sp)
   1299c:	26050fe3          	beqz	a0,1341a <_vfiprintf_r+0xffa>
   129a0:	41050db3          	sub	s11,a0,a6
   129a4:	fffdce93          	not	t4,s11
   129a8:	41fede93          	sra	t4,t4,0x1f
   129ac:	01ddfeb3          	and	t4,s11,t4
   129b0:	c802                	sw	zero,16(sp)
   129b2:	1f10006f          	j	133a2 <_vfiprintf_r+0xf82>
   129b6:	04300793          	li	a5,67
   129ba:	004b0813          	add	a6,s6,4
   129be:	00f70663          	beq	a4,a5,129ca <_vfiprintf_r+0x5aa>
   129c2:	010e7793          	and	a5,t3,16
   129c6:	66078463          	beqz	a5,1302e <_vfiprintf_r+0xc0e>
   129ca:	4621                	li	a2,8
   129cc:	4581                	li	a1,0
   129ce:	08a8                	add	a0,sp,88
   129d0:	ce42                	sw	a6,28(sp)
   129d2:	cc46                	sw	a7,24(sp)
   129d4:	c872                	sw	t3,16(sp)
   129d6:	438020ef          	jal	14e0e <memset>
   129da:	000b2603          	lw	a2,0(s6)
   129de:	0ac10c93          	add	s9,sp,172
   129e2:	08b4                	add	a3,sp,88
   129e4:	85e6                	mv	a1,s9
   129e6:	8526                	mv	a0,s1
   129e8:	0c9020ef          	jal	152b0 <_wcrtomb_r>
   129ec:	57fd                	li	a5,-1
   129ee:	4e42                	lw	t3,16(sp)
   129f0:	48e2                	lw	a7,24(sp)
   129f2:	4872                	lw	a6,28(sp)
   129f4:	8daa                	mv	s11,a0
   129f6:	2cf50ae3          	beq	a0,a5,134ca <_vfiprintf_r+0x10aa>
   129fa:	fff54e93          	not	t4,a0
   129fe:	41fede93          	sra	t4,t4,0x1f
   12a02:	01d57eb3          	and	t4,a0,t4
   12a06:	8b42                	mv	s6,a6
   12a08:	040101a3          	sb	zero,67(sp)
   12a0c:	8866                	mv	a6,s9
   12a0e:	bebd                	j	1258c <_vfiprintf_r+0x16c>
   12a10:	411008b3          	neg	a7,a7
   12a14:	000d4703          	lbu	a4,0(s10)
   12a18:	004e6e13          	or	t3,t3,4
   12a1c:	b605                	j	1253c <_vfiprintf_r+0x11c>
   12a1e:	02b00793          	li	a5,43
   12a22:	000d4703          	lbu	a4,0(s10)
   12a26:	04f101a3          	sb	a5,67(sp)
   12a2a:	be09                	j	1253c <_vfiprintf_r+0x11c>
   12a2c:	000d4703          	lbu	a4,0(s10)
   12a30:	080e6e13          	or	t3,t3,128
   12a34:	b621                	j	1253c <_vfiprintf_r+0x11c>
   12a36:	000d4703          	lbu	a4,0(s10)
   12a3a:	02a00793          	li	a5,42
   12a3e:	001d0613          	add	a2,s10,1
   12a42:	28f70ce3          	beq	a4,a5,134da <_vfiprintf_r+0x10ba>
   12a46:	fd070793          	add	a5,a4,-48
   12a4a:	46a5                	li	a3,9
   12a4c:	4c81                	li	s9,0
   12a4e:	45a5                	li	a1,9
   12a50:	02f6e063          	bltu	a3,a5,12a70 <_vfiprintf_r+0x650>
   12a54:	00064703          	lbu	a4,0(a2)
   12a58:	002c9693          	sll	a3,s9,0x2
   12a5c:	9cb6                	add	s9,s9,a3
   12a5e:	0c86                	sll	s9,s9,0x1
   12a60:	9cbe                	add	s9,s9,a5
   12a62:	fd070793          	add	a5,a4,-48
   12a66:	0605                	add	a2,a2,1
   12a68:	fef5f6e3          	bgeu	a1,a5,12a54 <_vfiprintf_r+0x634>
   12a6c:	5c0ccd63          	bltz	s9,13046 <_vfiprintf_r+0xc26>
   12a70:	8d32                	mv	s10,a2
   12a72:	b4f1                	j	1253e <_vfiprintf_r+0x11e>
   12a74:	8526                	mv	a0,s1
   12a76:	cc46                	sw	a7,24(sp)
   12a78:	c872                	sw	t3,16(sp)
   12a7a:	2bc020ef          	jal	14d36 <_localeconv_r>
   12a7e:	415c                	lw	a5,4(a0)
   12a80:	853e                	mv	a0,a5
   12a82:	da3e                	sw	a5,52(sp)
   12a84:	578020ef          	jal	14ffc <strlen>
   12a88:	87aa                	mv	a5,a0
   12a8a:	8526                	mv	a0,s1
   12a8c:	d83e                	sw	a5,48(sp)
   12a8e:	2a8020ef          	jal	14d36 <_localeconv_r>
   12a92:	4518                	lw	a4,8(a0)
   12a94:	57c2                	lw	a5,48(sp)
   12a96:	4e42                	lw	t3,16(sp)
   12a98:	d63a                	sw	a4,44(sp)
   12a9a:	48e2                	lw	a7,24(sp)
   12a9c:	c40789e3          	beqz	a5,126ee <_vfiprintf_r+0x2ce>
   12aa0:	57b2                	lw	a5,44(sp)
   12aa2:	000d4703          	lbu	a4,0(s10)
   12aa6:	a8078be3          	beqz	a5,1253c <_vfiprintf_r+0x11c>
   12aaa:	0007c783          	lbu	a5,0(a5)
   12aae:	a80787e3          	beqz	a5,1253c <_vfiprintf_r+0x11c>
   12ab2:	400e6e13          	or	t3,t3,1024
   12ab6:	b459                	j	1253c <_vfiprintf_r+0x11c>
   12ab8:	000d4703          	lbu	a4,0(s10)
   12abc:	001e6e13          	or	t3,t3,1
   12ac0:	bcb5                	j	1253c <_vfiprintf_r+0x11c>
   12ac2:	04314783          	lbu	a5,67(sp)
   12ac6:	000d4703          	lbu	a4,0(s10)
   12aca:	a60799e3          	bnez	a5,1253c <_vfiprintf_r+0x11c>
   12ace:	02000793          	li	a5,32
   12ad2:	04f101a3          	sb	a5,67(sp)
   12ad6:	b49d                	j	1253c <_vfiprintf_r+0x11c>
   12ad8:	010e6713          	or	a4,t3,16
   12adc:	02077793          	and	a5,a4,32
   12ae0:	48078963          	beqz	a5,12f72 <_vfiprintf_r+0xb52>
   12ae4:	0b1d                	add	s6,s6,7
   12ae6:	ff8b7b13          	and	s6,s6,-8
   12aea:	000b2783          	lw	a5,0(s6)
   12aee:	004b2603          	lw	a2,4(s6)
   12af2:	0b21                	add	s6,s6,8
   12af4:	040101a3          	sb	zero,67(sp)
   12af8:	bff77e13          	and	t3,a4,-1025
   12afc:	0a0cc163          	bltz	s9,12b9e <_vfiprintf_r+0x77e>
   12b00:	00c7e6b3          	or	a3,a5,a2
   12b04:	b7f77713          	and	a4,a4,-1153
   12b08:	000691e3          	bnez	a3,1330a <_vfiprintf_r+0xeea>
   12b0c:	86f2                	mv	a3,t3
   12b0e:	4781                	li	a5,0
   12b10:	8e3a                	mv	t3,a4
   12b12:	060c9e63          	bnez	s9,12b8e <_vfiprintf_r+0x76e>
   12b16:	c0079fe3          	bnez	a5,12734 <_vfiprintf_r+0x314>
   12b1a:	0016fd93          	and	s11,a3,1
   12b1e:	4a0d8863          	beqz	s11,12fce <_vfiprintf_r+0xbae>
   12b22:	03000793          	li	a5,48
   12b26:	10f107a3          	sb	a5,271(sp)
   12b2a:	8eee                	mv	t4,s11
   12b2c:	10f10813          	add	a6,sp,271
   12b30:	b50d                	j	12952 <_vfiprintf_r+0x532>
   12b32:	000d4703          	lbu	a4,0(s10)
   12b36:	06c00793          	li	a5,108
   12b3a:	7ef70963          	beq	a4,a5,1332c <_vfiprintf_r+0xf0c>
   12b3e:	010e6e13          	or	t3,t3,16
   12b42:	baed                	j	1253c <_vfiprintf_r+0x11c>
   12b44:	000d4703          	lbu	a4,0(s10)
   12b48:	06800793          	li	a5,104
   12b4c:	7cf70963          	beq	a4,a5,1331e <_vfiprintf_r+0xefe>
   12b50:	040e6e13          	or	t3,t3,64
   12b54:	b2e5                	j	1253c <_vfiprintf_r+0x11c>
   12b56:	010e6693          	or	a3,t3,16
   12b5a:	0206f793          	and	a5,a3,32
   12b5e:	3e078b63          	beqz	a5,12f54 <_vfiprintf_r+0xb34>
   12b62:	0b1d                	add	s6,s6,7
   12b64:	ff8b7b13          	and	s6,s6,-8
   12b68:	000b2d83          	lw	s11,0(s6)
   12b6c:	004b2e83          	lw	t4,4(s6)
   12b70:	0b21                	add	s6,s6,8
   12b72:	040101a3          	sb	zero,67(sp)
   12b76:	8e36                	mv	t3,a3
   12b78:	da0ccbe3          	bltz	s9,1292e <_vfiprintf_r+0x50e>
   12b7c:	01dde7b3          	or	a5,s11,t4
   12b80:	f7f6fe13          	and	t3,a3,-129
   12b84:	da0795e3          	bnez	a5,1292e <_vfiprintf_r+0x50e>
   12b88:	4785                	li	a5,1
   12b8a:	f80c86e3          	beqz	s9,12b16 <_vfiprintf_r+0x6f6>
   12b8e:	4705                	li	a4,1
   12b90:	06e787e3          	beq	a5,a4,133fe <_vfiprintf_r+0xfde>
   12b94:	4709                	li	a4,2
   12b96:	7ce78e63          	beq	a5,a4,13372 <_vfiprintf_r+0xf52>
   12b9a:	4781                	li	a5,0
   12b9c:	4601                	li	a2,0
   12b9e:	11010813          	add	a6,sp,272
   12ba2:	01d61693          	sll	a3,a2,0x1d
   12ba6:	0077f713          	and	a4,a5,7
   12baa:	838d                	srl	a5,a5,0x3
   12bac:	03070713          	add	a4,a4,48
   12bb0:	8fd5                	or	a5,a5,a3
   12bb2:	820d                	srl	a2,a2,0x3
   12bb4:	fee80fa3          	sb	a4,-1(a6)
   12bb8:	00c7e6b3          	or	a3,a5,a2
   12bbc:	85c2                	mv	a1,a6
   12bbe:	187d                	add	a6,a6,-1
   12bc0:	f2ed                	bnez	a3,12ba2 <_vfiprintf_r+0x782>
   12bc2:	001e7793          	and	a5,t3,1
   12bc6:	28078863          	beqz	a5,12e56 <_vfiprintf_r+0xa36>
   12bca:	03000793          	li	a5,48
   12bce:	28f70463          	beq	a4,a5,12e56 <_vfiprintf_r+0xa36>
   12bd2:	15f9                	add	a1,a1,-2
   12bd4:	fef80fa3          	sb	a5,-1(a6)
   12bd8:	0a1c                	add	a5,sp,272
   12bda:	40b78db3          	sub	s11,a5,a1
   12bde:	8ee6                	mv	t4,s9
   12be0:	47bcc063          	blt	s9,s11,13040 <_vfiprintf_r+0xc20>
   12be4:	882e                	mv	a6,a1
   12be6:	b3b5                	j	12952 <_vfiprintf_r+0x532>
   12be8:	6721                	lui	a4,0x8
   12bea:	83070713          	add	a4,a4,-2000 # 7830 <exit-0x8864>
   12bee:	04e11223          	sh	a4,68(sp)
   12bf2:	00009717          	auipc	a4,0x9
   12bf6:	f7a70713          	add	a4,a4,-134 # 1bb6c <__clzsi2+0x8c>
   12bfa:	000b2783          	lw	a5,0(s6)
   12bfe:	4601                	li	a2,0
   12c00:	002e6e13          	or	t3,t3,2
   12c04:	0b11                	add	s6,s6,4
   12c06:	ca3a                	sw	a4,20(sp)
   12c08:	040101a3          	sb	zero,67(sp)
   12c0c:	220cc263          	bltz	s9,12e30 <_vfiprintf_r+0xa10>
   12c10:	00c7e733          	or	a4,a5,a2
   12c14:	f7fe7593          	and	a1,t3,-129
   12c18:	20071863          	bnez	a4,12e28 <_vfiprintf_r+0xa08>
   12c1c:	86f2                	mv	a3,t3
   12c1e:	4789                	li	a5,2
   12c20:	8e2e                	mv	t3,a1
   12c22:	bdc5                	j	12b12 <_vfiprintf_r+0x6f2>
   12c24:	020e7793          	and	a5,t3,32
   12c28:	3e079463          	bnez	a5,13010 <_vfiprintf_r+0xbf0>
   12c2c:	010e7793          	and	a5,t3,16
   12c30:	70079563          	bnez	a5,1333a <_vfiprintf_r+0xf1a>
   12c34:	040e7793          	and	a5,t3,64
   12c38:	78079a63          	bnez	a5,133cc <_vfiprintf_r+0xfac>
   12c3c:	200e7e13          	and	t3,t3,512
   12c40:	6e0e0d63          	beqz	t3,1333a <_vfiprintf_r+0xf1a>
   12c44:	000b2783          	lw	a5,0(s6)
   12c48:	4732                	lw	a4,12(sp)
   12c4a:	0b11                	add	s6,s6,4
   12c4c:	00e78023          	sb	a4,0(a5)
   12c50:	b055                	j	124f4 <_vfiprintf_r+0xd4>
   12c52:	4705                	li	a4,1
   12c54:	87ee                	mv	a5,s11
   12c56:	d6c2                	sw	a6,108(sp)
   12c58:	d8ee                	sw	s11,112(sp)
   12c5a:	d4ee                	sw	s11,104(sp)
   12c5c:	d2ba                	sw	a4,100(sp)
   12c5e:	8456                	mv	s0,s5
   12c60:	0421                	add	s0,s0,8
   12c62:	badd                	j	12658 <_vfiprintf_r+0x238>
   12c64:	4605                	li	a2,1
   12c66:	4681                	li	a3,0
   12c68:	85d6                	mv	a1,s5
   12c6a:	bec5                	j	1285a <_vfiprintf_r+0x43a>
   12c6c:	41d88733          	sub	a4,a7,t4
   12c70:	9ae056e3          	blez	a4,1261c <_vfiprintf_r+0x1fc>
   12c74:	45c1                	li	a1,16
   12c76:	00e5d1e3          	bge	a1,a4,13478 <_vfiprintf_r+0x1058>
   12c7a:	00009f97          	auipc	t6,0x9
   12c7e:	5aef8f93          	add	t6,t6,1454 # 1c228 <zeroes.0>
   12c82:	85a2                	mv	a1,s0
   12c84:	d45a                	sw	s6,40(sp)
   12c86:	4f41                	li	t5,16
   12c88:	429d                	li	t0,7
   12c8a:	cc72                	sw	t3,24(sp)
   12c8c:	ce42                	sw	a6,28(sp)
   12c8e:	d046                	sw	a7,32(sp)
   12c90:	d276                	sw	t4,36(sp)
   12c92:	843a                	mv	s0,a4
   12c94:	8b7e                	mv	s6,t6
   12c96:	a801                	j	12ca6 <_vfiprintf_r+0x886>
   12c98:	00260513          	add	a0,a2,2
   12c9c:	05a1                	add	a1,a1,8
   12c9e:	8636                	mv	a2,a3
   12ca0:	1441                	add	s0,s0,-16
   12ca2:	048f5063          	bge	t5,s0,12ce2 <_vfiprintf_r+0x8c2>
   12ca6:	07c1                	add	a5,a5,16
   12ca8:	00160693          	add	a3,a2,1
   12cac:	0165a023          	sw	s6,0(a1)
   12cb0:	01e5a223          	sw	t5,4(a1)
   12cb4:	d4be                	sw	a5,104(sp)
   12cb6:	d2b6                	sw	a3,100(sp)
   12cb8:	fed2d0e3          	bge	t0,a3,12c98 <_vfiprintf_r+0x878>
   12cbc:	10078a63          	beqz	a5,12dd0 <_vfiprintf_r+0x9b0>
   12cc0:	1090                	add	a2,sp,96
   12cc2:	85d2                	mv	a1,s4
   12cc4:	8526                	mv	a0,s1
   12cc6:	e94ff0ef          	jal	1235a <__sprint_r.part.0>
   12cca:	ae051be3          	bnez	a0,127c0 <_vfiprintf_r+0x3a0>
   12cce:	5616                	lw	a2,100(sp)
   12cd0:	4f41                	li	t5,16
   12cd2:	1441                	add	s0,s0,-16
   12cd4:	57a6                	lw	a5,104(sp)
   12cd6:	85d6                	mv	a1,s5
   12cd8:	00160513          	add	a0,a2,1
   12cdc:	429d                	li	t0,7
   12cde:	fc8f44e3          	blt	t5,s0,12ca6 <_vfiprintf_r+0x886>
   12ce2:	8fda                	mv	t6,s6
   12ce4:	4e62                	lw	t3,24(sp)
   12ce6:	4872                	lw	a6,28(sp)
   12ce8:	5882                	lw	a7,32(sp)
   12cea:	5e92                	lw	t4,36(sp)
   12cec:	5b22                	lw	s6,40(sp)
   12cee:	8722                	mv	a4,s0
   12cf0:	842e                	mv	s0,a1
   12cf2:	97ba                	add	a5,a5,a4
   12cf4:	c058                	sw	a4,4(s0)
   12cf6:	01f42023          	sw	t6,0(s0)
   12cfa:	d4be                	sw	a5,104(sp)
   12cfc:	d2aa                	sw	a0,100(sp)
   12cfe:	471d                	li	a4,7
   12d00:	2ea75363          	bge	a4,a0,12fe6 <_vfiprintf_r+0xbc6>
   12d04:	6a078863          	beqz	a5,133b4 <_vfiprintf_r+0xf94>
   12d08:	1090                	add	a2,sp,96
   12d0a:	85d2                	mv	a1,s4
   12d0c:	8526                	mv	a0,s1
   12d0e:	d276                	sw	t4,36(sp)
   12d10:	d046                	sw	a7,32(sp)
   12d12:	ce42                	sw	a6,28(sp)
   12d14:	cc72                	sw	t3,24(sp)
   12d16:	e44ff0ef          	jal	1235a <__sprint_r.part.0>
   12d1a:	aa0513e3          	bnez	a0,127c0 <_vfiprintf_r+0x3a0>
   12d1e:	5616                	lw	a2,100(sp)
   12d20:	41bc82b3          	sub	t0,s9,s11
   12d24:	57a6                	lw	a5,104(sp)
   12d26:	5e92                	lw	t4,36(sp)
   12d28:	5882                	lw	a7,32(sp)
   12d2a:	4872                	lw	a6,28(sp)
   12d2c:	4e62                	lw	t3,24(sp)
   12d2e:	8456                	mv	s0,s5
   12d30:	00160f13          	add	t5,a2,1
   12d34:	8e5058e3          	blez	t0,12624 <_vfiprintf_r+0x204>
   12d38:	4741                	li	a4,16
   12d3a:	00009f97          	auipc	t6,0x9
   12d3e:	4eef8f93          	add	t6,t6,1262 # 1c228 <zeroes.0>
   12d42:	06575663          	bge	a4,t0,12dae <_vfiprintf_r+0x98e>
   12d46:	85a2                	mv	a1,s0
   12d48:	4cc1                	li	s9,16
   12d4a:	471d                	li	a4,7
   12d4c:	cc72                	sw	t3,24(sp)
   12d4e:	ce42                	sw	a6,28(sp)
   12d50:	d046                	sw	a7,32(sp)
   12d52:	d276                	sw	t4,36(sp)
   12d54:	8416                	mv	s0,t0
   12d56:	d45e                	sw	s7,40(sp)
   12d58:	a801                	j	12d68 <_vfiprintf_r+0x948>
   12d5a:	00260f13          	add	t5,a2,2
   12d5e:	05a1                	add	a1,a1,8
   12d60:	8636                	mv	a2,a3
   12d62:	1441                	add	s0,s0,-16
   12d64:	028cde63          	bge	s9,s0,12da0 <_vfiprintf_r+0x980>
   12d68:	07c1                	add	a5,a5,16
   12d6a:	00160693          	add	a3,a2,1
   12d6e:	0175a023          	sw	s7,0(a1)
   12d72:	0195a223          	sw	s9,4(a1)
   12d76:	d4be                	sw	a5,104(sp)
   12d78:	d2b6                	sw	a3,100(sp)
   12d7a:	fed750e3          	bge	a4,a3,12d5a <_vfiprintf_r+0x93a>
   12d7e:	c7a9                	beqz	a5,12dc8 <_vfiprintf_r+0x9a8>
   12d80:	1090                	add	a2,sp,96
   12d82:	85d2                	mv	a1,s4
   12d84:	8526                	mv	a0,s1
   12d86:	dd4ff0ef          	jal	1235a <__sprint_r.part.0>
   12d8a:	a2051be3          	bnez	a0,127c0 <_vfiprintf_r+0x3a0>
   12d8e:	5616                	lw	a2,100(sp)
   12d90:	1441                	add	s0,s0,-16
   12d92:	57a6                	lw	a5,104(sp)
   12d94:	85d6                	mv	a1,s5
   12d96:	00160f13          	add	t5,a2,1
   12d9a:	471d                	li	a4,7
   12d9c:	fc8cc6e3          	blt	s9,s0,12d68 <_vfiprintf_r+0x948>
   12da0:	4e62                	lw	t3,24(sp)
   12da2:	4872                	lw	a6,28(sp)
   12da4:	5882                	lw	a7,32(sp)
   12da6:	5e92                	lw	t4,36(sp)
   12da8:	5fa2                	lw	t6,40(sp)
   12daa:	82a2                	mv	t0,s0
   12dac:	842e                	mv	s0,a1
   12dae:	9796                	add	a5,a5,t0
   12db0:	01f42023          	sw	t6,0(s0)
   12db4:	00542223          	sw	t0,4(s0)
   12db8:	d4be                	sw	a5,104(sp)
   12dba:	d2fa                	sw	t5,100(sp)
   12dbc:	471d                	li	a4,7
   12dbe:	17e74163          	blt	a4,t5,12f20 <_vfiprintf_r+0xb00>
   12dc2:	0421                	add	s0,s0,8
   12dc4:	0f05                	add	t5,t5,1
   12dc6:	b8b9                	j	12624 <_vfiprintf_r+0x204>
   12dc8:	4f05                	li	t5,1
   12dca:	4601                	li	a2,0
   12dcc:	85d6                	mv	a1,s5
   12dce:	bf51                	j	12d62 <_vfiprintf_r+0x942>
   12dd0:	4505                	li	a0,1
   12dd2:	4601                	li	a2,0
   12dd4:	85d6                	mv	a1,s5
   12dd6:	b5e9                	j	12ca0 <_vfiprintf_r+0x880>
   12dd8:	cb9d                	beqz	a5,12e0e <_vfiprintf_r+0x9ee>
   12dda:	1090                	add	a2,sp,96
   12ddc:	85d2                	mv	a1,s4
   12dde:	8526                	mv	a0,s1
   12de0:	dc76                	sw	t4,56(sp)
   12de2:	d446                	sw	a7,40(sp)
   12de4:	d242                	sw	a6,36(sp)
   12de6:	d016                	sw	t0,32(sp)
   12de8:	ce7e                	sw	t6,28(sp)
   12dea:	cc72                	sw	t3,24(sp)
   12dec:	d6eff0ef          	jal	1235a <__sprint_r.part.0>
   12df0:	9c0518e3          	bnez	a0,127c0 <_vfiprintf_r+0x3a0>
   12df4:	5616                	lw	a2,100(sp)
   12df6:	57a6                	lw	a5,104(sp)
   12df8:	5ee2                	lw	t4,56(sp)
   12dfa:	58a2                	lw	a7,40(sp)
   12dfc:	5812                	lw	a6,36(sp)
   12dfe:	5282                	lw	t0,32(sp)
   12e00:	4ff2                	lw	t6,28(sp)
   12e02:	4e62                	lw	t3,24(sp)
   12e04:	8456                	mv	s0,s5
   12e06:	00160f13          	add	t5,a2,1
   12e0a:	fc4ff06f          	j	125ce <_vfiprintf_r+0x1ae>
   12e0e:	200f8b63          	beqz	t6,13024 <_vfiprintf_r+0xc04>
   12e12:	00dc                	add	a5,sp,68
   12e14:	d6be                	sw	a5,108(sp)
   12e16:	4789                	li	a5,2
   12e18:	d8be                	sw	a5,112(sp)
   12e1a:	4f05                	li	t5,1
   12e1c:	8456                	mv	s0,s5
   12e1e:	867a                	mv	a2,t5
   12e20:	0421                	add	s0,s0,8
   12e22:	0f05                	add	t5,t5,1
   12e24:	ff0ff06f          	j	12614 <_vfiprintf_r+0x1f4>
   12e28:	4709                	li	a4,2
   12e2a:	8e2e                	mv	t3,a1
   12e2c:	d60709e3          	beqz	a4,12b9e <_vfiprintf_r+0x77e>
   12e30:	45d2                	lw	a1,20(sp)
   12e32:	11010813          	add	a6,sp,272
   12e36:	00f7f713          	and	a4,a5,15
   12e3a:	972e                	add	a4,a4,a1
   12e3c:	00074683          	lbu	a3,0(a4)
   12e40:	8391                	srl	a5,a5,0x4
   12e42:	01c61713          	sll	a4,a2,0x1c
   12e46:	8fd9                	or	a5,a5,a4
   12e48:	8211                	srl	a2,a2,0x4
   12e4a:	fed80fa3          	sb	a3,-1(a6)
   12e4e:	00c7e733          	or	a4,a5,a2
   12e52:	187d                	add	a6,a6,-1
   12e54:	f36d                	bnez	a4,12e36 <_vfiprintf_r+0xa16>
   12e56:	0a1c                	add	a5,sp,272
   12e58:	41078db3          	sub	s11,a5,a6
   12e5c:	8ee6                	mv	t4,s9
   12e5e:	afbcdae3          	bge	s9,s11,12952 <_vfiprintf_r+0x532>
   12e62:	8eee                	mv	t4,s11
   12e64:	b4fd                	j	12952 <_vfiprintf_r+0x532>
   12e66:	4541                	li	a0,16
   12e68:	5ce55163          	bge	a0,a4,1342a <_vfiprintf_r+0x100a>
   12e6c:	00009317          	auipc	t1,0x9
   12e70:	3cc30313          	add	t1,t1,972 # 1c238 <blanks.1>
   12e74:	86a2                	mv	a3,s0
   12e76:	de5a                	sw	s6,60(sp)
   12e78:	4f41                	li	t5,16
   12e7a:	439d                	li	t2,7
   12e7c:	cc72                	sw	t3,24(sp)
   12e7e:	ce7e                	sw	t6,28(sp)
   12e80:	d016                	sw	t0,32(sp)
   12e82:	d242                	sw	a6,36(sp)
   12e84:	d446                	sw	a7,40(sp)
   12e86:	dc76                	sw	t4,56(sp)
   12e88:	843a                	mv	s0,a4
   12e8a:	8b1a                	mv	s6,t1
   12e8c:	a811                	j	12ea0 <_vfiprintf_r+0xa80>
   12e8e:	00260513          	add	a0,a2,2
   12e92:	06a1                	add	a3,a3,8
   12e94:	862e                	mv	a2,a1
   12e96:	1441                	add	s0,s0,-16
   12e98:	028f5f63          	bge	t5,s0,12ed6 <_vfiprintf_r+0xab6>
   12e9c:	00160593          	add	a1,a2,1
   12ea0:	07c1                	add	a5,a5,16
   12ea2:	0166a023          	sw	s6,0(a3)
   12ea6:	01e6a223          	sw	t5,4(a3)
   12eaa:	d4be                	sw	a5,104(sp)
   12eac:	d2ae                	sw	a1,100(sp)
   12eae:	feb3d0e3          	bge	t2,a1,12e8e <_vfiprintf_r+0xa6e>
   12eb2:	cbb9                	beqz	a5,12f08 <_vfiprintf_r+0xae8>
   12eb4:	1090                	add	a2,sp,96
   12eb6:	85d2                	mv	a1,s4
   12eb8:	8526                	mv	a0,s1
   12eba:	ca0ff0ef          	jal	1235a <__sprint_r.part.0>
   12ebe:	900511e3          	bnez	a0,127c0 <_vfiprintf_r+0x3a0>
   12ec2:	5616                	lw	a2,100(sp)
   12ec4:	4f41                	li	t5,16
   12ec6:	1441                	add	s0,s0,-16
   12ec8:	57a6                	lw	a5,104(sp)
   12eca:	86d6                	mv	a3,s5
   12ecc:	00160513          	add	a0,a2,1
   12ed0:	439d                	li	t2,7
   12ed2:	fc8f45e3          	blt	t5,s0,12e9c <_vfiprintf_r+0xa7c>
   12ed6:	835a                	mv	t1,s6
   12ed8:	4e62                	lw	t3,24(sp)
   12eda:	4ff2                	lw	t6,28(sp)
   12edc:	5282                	lw	t0,32(sp)
   12ede:	5812                	lw	a6,36(sp)
   12ee0:	58a2                	lw	a7,40(sp)
   12ee2:	5ee2                	lw	t4,56(sp)
   12ee4:	5b72                	lw	s6,60(sp)
   12ee6:	8722                	mv	a4,s0
   12ee8:	8436                	mv	s0,a3
   12eea:	97ba                	add	a5,a5,a4
   12eec:	c058                	sw	a4,4(s0)
   12eee:	00642023          	sw	t1,0(s0)
   12ef2:	d4be                	sw	a5,104(sp)
   12ef4:	d2aa                	sw	a0,100(sp)
   12ef6:	471d                	li	a4,7
   12ef8:	08a74f63          	blt	a4,a0,12f96 <_vfiprintf_r+0xb76>
   12efc:	0421                	add	s0,s0,8
   12efe:	00150f13          	add	t5,a0,1
   12f02:	862a                	mv	a2,a0
   12f04:	ea8ff06f          	j	125ac <_vfiprintf_r+0x18c>
   12f08:	4601                	li	a2,0
   12f0a:	4505                	li	a0,1
   12f0c:	86d6                	mv	a3,s5
   12f0e:	b761                	j	12e96 <_vfiprintf_r+0xa76>
   12f10:	01d8d363          	bge	a7,t4,12f16 <_vfiprintf_r+0xaf6>
   12f14:	88f6                	mv	a7,t4
   12f16:	47b2                	lw	a5,12(sp)
   12f18:	97c6                	add	a5,a5,a7
   12f1a:	c63e                	sw	a5,12(sp)
   12f1c:	f5cff06f          	j	12678 <_vfiprintf_r+0x258>
   12f20:	d20789e3          	beqz	a5,12c52 <_vfiprintf_r+0x832>
   12f24:	1090                	add	a2,sp,96
   12f26:	85d2                	mv	a1,s4
   12f28:	8526                	mv	a0,s1
   12f2a:	d276                	sw	t4,36(sp)
   12f2c:	d046                	sw	a7,32(sp)
   12f2e:	ce42                	sw	a6,28(sp)
   12f30:	cc72                	sw	t3,24(sp)
   12f32:	c28ff0ef          	jal	1235a <__sprint_r.part.0>
   12f36:	880515e3          	bnez	a0,127c0 <_vfiprintf_r+0x3a0>
   12f3a:	5f16                	lw	t5,100(sp)
   12f3c:	57a6                	lw	a5,104(sp)
   12f3e:	5e92                	lw	t4,36(sp)
   12f40:	5882                	lw	a7,32(sp)
   12f42:	4872                	lw	a6,28(sp)
   12f44:	4e62                	lw	t3,24(sp)
   12f46:	8456                	mv	s0,s5
   12f48:	0f05                	add	t5,t5,1
   12f4a:	edaff06f          	j	12624 <_vfiprintf_r+0x204>
   12f4e:	d282                	sw	zero,100(sp)
   12f50:	8456                	mv	s0,s5
   12f52:	b0a9                	j	1279c <_vfiprintf_r+0x37c>
   12f54:	0106f793          	and	a5,a3,16
   12f58:	000b2d83          	lw	s11,0(s6)
   12f5c:	0b11                	add	s6,s6,4
   12f5e:	eb81                	bnez	a5,12f6e <_vfiprintf_r+0xb4e>
   12f60:	0406f793          	and	a5,a3,64
   12f64:	3e078e63          	beqz	a5,13360 <_vfiprintf_r+0xf40>
   12f68:	0dc2                	sll	s11,s11,0x10
   12f6a:	010ddd93          	srl	s11,s11,0x10
   12f6e:	4e81                	li	t4,0
   12f70:	b109                	j	12b72 <_vfiprintf_r+0x752>
   12f72:	01077693          	and	a3,a4,16
   12f76:	000b2783          	lw	a5,0(s6)
   12f7a:	0b11                	add	s6,s6,4
   12f7c:	eac1                	bnez	a3,1300c <_vfiprintf_r+0xbec>
   12f7e:	04077693          	and	a3,a4,64
   12f82:	c2c9                	beqz	a3,13004 <_vfiprintf_r+0xbe4>
   12f84:	07c2                	sll	a5,a5,0x10
   12f86:	83c1                	srl	a5,a5,0x10
   12f88:	4601                	li	a2,0
   12f8a:	b6ad                	j	12af4 <_vfiprintf_r+0x6d4>
   12f8c:	4f05                	li	t5,1
   12f8e:	4601                	li	a2,0
   12f90:	8456                	mv	s0,s5
   12f92:	e82ff06f          	j	12614 <_vfiprintf_r+0x1f4>
   12f96:	10078863          	beqz	a5,130a6 <_vfiprintf_r+0xc86>
   12f9a:	1090                	add	a2,sp,96
   12f9c:	85d2                	mv	a1,s4
   12f9e:	8526                	mv	a0,s1
   12fa0:	dc76                	sw	t4,56(sp)
   12fa2:	d446                	sw	a7,40(sp)
   12fa4:	d242                	sw	a6,36(sp)
   12fa6:	d016                	sw	t0,32(sp)
   12fa8:	ce7e                	sw	t6,28(sp)
   12faa:	cc72                	sw	t3,24(sp)
   12fac:	baeff0ef          	jal	1235a <__sprint_r.part.0>
   12fb0:	800518e3          	bnez	a0,127c0 <_vfiprintf_r+0x3a0>
   12fb4:	5616                	lw	a2,100(sp)
   12fb6:	57a6                	lw	a5,104(sp)
   12fb8:	5ee2                	lw	t4,56(sp)
   12fba:	58a2                	lw	a7,40(sp)
   12fbc:	5812                	lw	a6,36(sp)
   12fbe:	5282                	lw	t0,32(sp)
   12fc0:	4ff2                	lw	t6,28(sp)
   12fc2:	4e62                	lw	t3,24(sp)
   12fc4:	8456                	mv	s0,s5
   12fc6:	00160f13          	add	t5,a2,1
   12fca:	de2ff06f          	j	125ac <_vfiprintf_r+0x18c>
   12fce:	4e81                	li	t4,0
   12fd0:	11010813          	add	a6,sp,272
   12fd4:	babd                	j	12952 <_vfiprintf_r+0x532>
   12fd6:	058a2503          	lw	a0,88(s4)
   12fda:	2c8020ef          	jal	152a2 <__retarget_lock_acquire_recursive>
   12fde:	00ca1783          	lh	a5,12(s4)
   12fe2:	c82ff06f          	j	12464 <_vfiprintf_r+0x44>
   12fe6:	0421                	add	s0,s0,8
   12fe8:	00150f13          	add	t5,a0,1
   12fec:	862a                	mv	a2,a0
   12fee:	e2eff06f          	j	1261c <_vfiprintf_r+0x1fc>
   12ff2:	200e7793          	and	a5,t3,512
   12ff6:	3e079863          	bnez	a5,133e6 <_vfiprintf_r+0xfc6>
   12ffa:	41fdde93          	sra	t4,s11,0x1f
   12ffe:	87f6                	mv	a5,t4
   13000:	f1cff06f          	j	1271c <_vfiprintf_r+0x2fc>
   13004:	20077693          	and	a3,a4,512
   13008:	3c069a63          	bnez	a3,133dc <_vfiprintf_r+0xfbc>
   1300c:	4601                	li	a2,0
   1300e:	b4dd                	j	12af4 <_vfiprintf_r+0x6d4>
   13010:	46b2                	lw	a3,12(sp)
   13012:	000b2783          	lw	a5,0(s6)
   13016:	0b11                	add	s6,s6,4
   13018:	41f6d713          	sra	a4,a3,0x1f
   1301c:	c394                	sw	a3,0(a5)
   1301e:	c3d8                	sw	a4,4(a5)
   13020:	cd4ff06f          	j	124f4 <_vfiprintf_r+0xd4>
   13024:	4601                	li	a2,0
   13026:	4f05                	li	t5,1
   13028:	8456                	mv	s0,s5
   1302a:	deaff06f          	j	12614 <_vfiprintf_r+0x1f4>
   1302e:	000b2783          	lw	a5,0(s6)
   13032:	4e85                	li	t4,1
   13034:	4d85                	li	s11,1
   13036:	0af10623          	sb	a5,172(sp)
   1303a:	0ac10c93          	add	s9,sp,172
   1303e:	b2e1                	j	12a06 <_vfiprintf_r+0x5e6>
   13040:	8eee                	mv	t4,s11
   13042:	882e                	mv	a6,a1
   13044:	b239                	j	12952 <_vfiprintf_r+0x532>
   13046:	5cfd                	li	s9,-1
   13048:	8d32                	mv	s10,a2
   1304a:	cf4ff06f          	j	1253e <_vfiprintf_r+0x11e>
   1304e:	86f2                	mv	a3,t3
   13050:	b629                	j	12b5a <_vfiprintf_r+0x73a>
   13052:	00009797          	auipc	a5,0x9
   13056:	b2e78793          	add	a5,a5,-1234 # 1bb80 <__clzsi2+0xa0>
   1305a:	ca3e                	sw	a5,20(sp)
   1305c:	020e7793          	and	a5,t3,32
   13060:	12078663          	beqz	a5,1318c <_vfiprintf_r+0xd6c>
   13064:	0b1d                	add	s6,s6,7
   13066:	ff8b7b13          	and	s6,s6,-8
   1306a:	000b2783          	lw	a5,0(s6)
   1306e:	004b2603          	lw	a2,4(s6)
   13072:	0b21                	add	s6,s6,8
   13074:	001e7693          	and	a3,t3,1
   13078:	ce81                	beqz	a3,13090 <_vfiprintf_r+0xc70>
   1307a:	00c7e6b3          	or	a3,a5,a2
   1307e:	ca89                	beqz	a3,13090 <_vfiprintf_r+0xc70>
   13080:	03000693          	li	a3,48
   13084:	04d10223          	sb	a3,68(sp)
   13088:	04e102a3          	sb	a4,69(sp)
   1308c:	002e6e13          	or	t3,t3,2
   13090:	bffe7e13          	and	t3,t3,-1025
   13094:	be95                	j	12c08 <_vfiprintf_r+0x7e8>
   13096:	8772                	mv	a4,t3
   13098:	b491                	j	12adc <_vfiprintf_r+0x6bc>
   1309a:	00009797          	auipc	a5,0x9
   1309e:	ad278793          	add	a5,a5,-1326 # 1bb6c <__clzsi2+0x8c>
   130a2:	ca3e                	sw	a5,20(sp)
   130a4:	bf65                	j	1305c <_vfiprintf_r+0xc3c>
   130a6:	04314703          	lbu	a4,67(sp)
   130aa:	30070c63          	beqz	a4,133c2 <_vfiprintf_r+0xfa2>
   130ae:	04310793          	add	a5,sp,67
   130b2:	d6be                	sw	a5,108(sp)
   130b4:	4785                	li	a5,1
   130b6:	d8be                	sw	a5,112(sp)
   130b8:	4f05                	li	t5,1
   130ba:	8456                	mv	s0,s5
   130bc:	d0cff06f          	j	125c8 <_vfiprintf_r+0x1a8>
   130c0:	4621                	li	a2,8
   130c2:	4581                	li	a1,0
   130c4:	08a8                	add	a0,sp,88
   130c6:	d046                	sw	a7,32(sp)
   130c8:	ce72                	sw	t3,28(sp)
   130ca:	c6c2                	sw	a6,76(sp)
   130cc:	c842                	sw	a6,16(sp)
   130ce:	541010ef          	jal	14e0e <memset>
   130d2:	4842                	lw	a6,16(sp)
   130d4:	4e72                	lw	t3,28(sp)
   130d6:	5882                	lw	a7,32(sp)
   130d8:	2a0cc063          	bltz	s9,13378 <_vfiprintf_r+0xf58>
   130dc:	87ea                	mv	a5,s10
   130de:	4b01                	li	s6,0
   130e0:	c822                	sw	s0,16(sp)
   130e2:	8d52                	mv	s10,s4
   130e4:	8466                	mv	s0,s9
   130e6:	d042                	sw	a6,32(sp)
   130e8:	8cc6                	mv	s9,a7
   130ea:	8a5a                	mv	s4,s6
   130ec:	8dbe                	mv	s11,a5
   130ee:	a00d                	j	13110 <_vfiprintf_r+0xcf0>
   130f0:	08b4                	add	a3,sp,88
   130f2:	116c                	add	a1,sp,172
   130f4:	8526                	mv	a0,s1
   130f6:	1ba020ef          	jal	152b0 <_wcrtomb_r>
   130fa:	57fd                	li	a5,-1
   130fc:	3af50e63          	beq	a0,a5,134b8 <_vfiprintf_r+0x1098>
   13100:	00ab07b3          	add	a5,s6,a0
   13104:	00f44a63          	blt	s0,a5,13118 <_vfiprintf_r+0xcf8>
   13108:	0a11                	add	s4,s4,4
   1310a:	38878e63          	beq	a5,s0,134a6 <_vfiprintf_r+0x1086>
   1310e:	8b3e                	mv	s6,a5
   13110:	47b6                	lw	a5,76(sp)
   13112:	97d2                	add	a5,a5,s4
   13114:	4390                	lw	a2,0(a5)
   13116:	fe69                	bnez	a2,130f0 <_vfiprintf_r+0xcd0>
   13118:	4442                	lw	s0,16(sp)
   1311a:	4e72                	lw	t3,28(sp)
   1311c:	5802                	lw	a6,32(sp)
   1311e:	8a6a                	mv	s4,s10
   13120:	88e6                	mv	a7,s9
   13122:	8d6e                	mv	s10,s11
   13124:	8dda                	mv	s11,s6
   13126:	260d8c63          	beqz	s11,1339e <_vfiprintf_r+0xf7e>
   1312a:	06300793          	li	a5,99
   1312e:	2db7dc63          	bge	a5,s11,13406 <_vfiprintf_r+0xfe6>
   13132:	001d8593          	add	a1,s11,1
   13136:	8526                	mv	a0,s1
   13138:	ce46                	sw	a7,28(sp)
   1313a:	c872                	sw	t3,16(sp)
   1313c:	085030ef          	jal	169c0 <_malloc_r>
   13140:	4e42                	lw	t3,16(sp)
   13142:	48f2                	lw	a7,28(sp)
   13144:	882a                	mv	a6,a0
   13146:	38050263          	beqz	a0,134ca <_vfiprintf_r+0x10aa>
   1314a:	c82a                	sw	a0,16(sp)
   1314c:	4621                	li	a2,8
   1314e:	4581                	li	a1,0
   13150:	08a8                	add	a0,sp,88
   13152:	d246                	sw	a7,36(sp)
   13154:	d072                	sw	t3,32(sp)
   13156:	ce42                	sw	a6,28(sp)
   13158:	4b7010ef          	jal	14e0e <memset>
   1315c:	4872                	lw	a6,28(sp)
   1315e:	08b8                	add	a4,sp,88
   13160:	86ee                	mv	a3,s11
   13162:	85c2                	mv	a1,a6
   13164:	00f0                	add	a2,sp,76
   13166:	8526                	mv	a0,s1
   13168:	1f6020ef          	jal	1535e <_wcsrtombs_r>
   1316c:	4872                	lw	a6,28(sp)
   1316e:	5e02                	lw	t3,32(sp)
   13170:	5892                	lw	a7,36(sp)
   13172:	36ad9f63          	bne	s11,a0,134f0 <_vfiprintf_r+0x10d0>
   13176:	fffdce93          	not	t4,s11
   1317a:	01b807b3          	add	a5,a6,s11
   1317e:	41fede93          	sra	t4,t4,0x1f
   13182:	00078023          	sb	zero,0(a5)
   13186:	01ddfeb3          	and	t4,s11,t4
   1318a:	ac21                	j	133a2 <_vfiprintf_r+0xf82>
   1318c:	010e7693          	and	a3,t3,16
   13190:	000b2783          	lw	a5,0(s6)
   13194:	0b11                	add	s6,s6,4
   13196:	ee81                	bnez	a3,131ae <_vfiprintf_r+0xd8e>
   13198:	040e7693          	and	a3,t3,64
   1319c:	c689                	beqz	a3,131a6 <_vfiprintf_r+0xd86>
   1319e:	07c2                	sll	a5,a5,0x10
   131a0:	83c1                	srl	a5,a5,0x10
   131a2:	4601                	li	a2,0
   131a4:	bdc1                	j	13074 <_vfiprintf_r+0xc54>
   131a6:	200e7693          	and	a3,t3,512
   131aa:	24069663          	bnez	a3,133f6 <_vfiprintf_r+0xfd6>
   131ae:	4601                	li	a2,0
   131b0:	b5d1                	j	13074 <_vfiprintf_r+0xc54>
   131b2:	ccccdf37          	lui	t5,0xccccd
   131b6:	ccccd3b7          	lui	t2,0xccccd
   131ba:	5732                	lw	a4,44(sp)
   131bc:	400e7293          	and	t0,t3,1024
   131c0:	4581                	li	a1,0
   131c2:	0a10                	add	a2,sp,272
   131c4:	4f95                	li	t6,5
   131c6:	ccdf0f13          	add	t5,t5,-819 # cccccccd <__BSS_END__+0xcccaef85>
   131ca:	ccc38393          	add	t2,t2,-820 # cccccccc <__BSS_END__+0xcccaef84>
   131ce:	0ff00313          	li	t1,255
   131d2:	a081                	j	13212 <_vfiprintf_r+0xdf2>
   131d4:	01b7b6b3          	sltu	a3,a5,s11
   131d8:	97b6                	add	a5,a5,a3
   131da:	03f7f7b3          	remu	a5,a5,t6
   131de:	40fd87b3          	sub	a5,s11,a5
   131e2:	00fdb6b3          	sltu	a3,s11,a5
   131e6:	40de86b3          	sub	a3,t4,a3
   131ea:	02778533          	mul	a0,a5,t2
   131ee:	03e686b3          	mul	a3,a3,t5
   131f2:	03e7b633          	mulhu	a2,a5,t5
   131f6:	96aa                	add	a3,a3,a0
   131f8:	03e787b3          	mul	a5,a5,t5
   131fc:	96b2                	add	a3,a3,a2
   131fe:	01f69613          	sll	a2,a3,0x1f
   13202:	8285                	srl	a3,a3,0x1
   13204:	8385                	srl	a5,a5,0x1
   13206:	8fd1                	or	a5,a5,a2
   13208:	200e8c63          	beqz	t4,13420 <_vfiprintf_r+0x1000>
   1320c:	8dbe                	mv	s11,a5
   1320e:	8eb6                	mv	t4,a3
   13210:	8642                	mv	a2,a6
   13212:	01dd87b3          	add	a5,s11,t4
   13216:	01b7b6b3          	sltu	a3,a5,s11
   1321a:	96be                	add	a3,a3,a5
   1321c:	03f6f6b3          	remu	a3,a3,t6
   13220:	fff60813          	add	a6,a2,-1
   13224:	0585                	add	a1,a1,1
   13226:	40dd86b3          	sub	a3,s11,a3
   1322a:	00ddb0b3          	sltu	ra,s11,a3
   1322e:	401e80b3          	sub	ra,t4,ra
   13232:	03e6b533          	mulhu	a0,a3,t5
   13236:	03e080b3          	mul	ra,ra,t5
   1323a:	03e686b3          	mul	a3,a3,t5
   1323e:	90aa                	add	ra,ra,a0
   13240:	00fe                	sll	ra,ra,0x1f
   13242:	0016d513          	srl	a0,a3,0x1
   13246:	00a0e533          	or	a0,ra,a0
   1324a:	00251693          	sll	a3,a0,0x2
   1324e:	96aa                	add	a3,a3,a0
   13250:	0686                	sll	a3,a3,0x1
   13252:	40dd86b3          	sub	a3,s11,a3
   13256:	03068693          	add	a3,a3,48
   1325a:	fed60fa3          	sb	a3,-1(a2)
   1325e:	f6028be3          	beqz	t0,131d4 <_vfiprintf_r+0xdb4>
   13262:	00074683          	lbu	a3,0(a4)
   13266:	f6b697e3          	bne	a3,a1,131d4 <_vfiprintf_r+0xdb4>
   1326a:	f66585e3          	beq	a1,t1,131d4 <_vfiprintf_r+0xdb4>
   1326e:	000e9763          	bnez	t4,1327c <_vfiprintf_r+0xe5c>
   13272:	46a5                	li	a3,9
   13274:	01b6e463          	bltu	a3,s11,1327c <_vfiprintf_r+0xe5c>
   13278:	d63a                	sw	a4,44(sp)
   1327a:	bef1                	j	12e56 <_vfiprintf_r+0xa36>
   1327c:	cc3e                	sw	a5,24(sp)
   1327e:	57c2                	lw	a5,48(sp)
   13280:	55d2                	lw	a1,52(sp)
   13282:	de76                	sw	t4,60(sp)
   13284:	40f80833          	sub	a6,a6,a5
   13288:	863e                	mv	a2,a5
   1328a:	8542                	mv	a0,a6
   1328c:	dc1e                	sw	t2,56(sp)
   1328e:	d67a                	sw	t5,44(sp)
   13290:	d416                	sw	t0,40(sp)
   13292:	d23a                	sw	a4,36(sp)
   13294:	d046                	sw	a7,32(sp)
   13296:	ce72                	sw	t3,28(sp)
   13298:	c842                	sw	a6,16(sp)
   1329a:	032010ef          	jal	142cc <strncpy>
   1329e:	47e2                	lw	a5,24(sp)
   132a0:	5712                	lw	a4,36(sp)
   132a2:	5ef2                	lw	t4,60(sp)
   132a4:	01b7b6b3          	sltu	a3,a5,s11
   132a8:	97b6                	add	a5,a5,a3
   132aa:	4695                	li	a3,5
   132ac:	02d7f7b3          	remu	a5,a5,a3
   132b0:	00174683          	lbu	a3,1(a4)
   132b4:	ccccd637          	lui	a2,0xccccd
   132b8:	ccccd537          	lui	a0,0xccccd
   132bc:	00d036b3          	snez	a3,a3
   132c0:	9736                	add	a4,a4,a3
   132c2:	ccd60613          	add	a2,a2,-819 # cccccccd <__BSS_END__+0xcccaef85>
   132c6:	ccc50513          	add	a0,a0,-820 # cccccccc <__BSS_END__+0xcccaef84>
   132ca:	4842                	lw	a6,16(sp)
   132cc:	4e72                	lw	t3,28(sp)
   132ce:	5882                	lw	a7,32(sp)
   132d0:	52a2                	lw	t0,40(sp)
   132d2:	5f32                	lw	t5,44(sp)
   132d4:	53e2                	lw	t2,56(sp)
   132d6:	4581                	li	a1,0
   132d8:	4f95                	li	t6,5
   132da:	0ff00313          	li	t1,255
   132de:	40fd87b3          	sub	a5,s11,a5
   132e2:	00fdb6b3          	sltu	a3,s11,a5
   132e6:	40de86b3          	sub	a3,t4,a3
   132ea:	02c686b3          	mul	a3,a3,a2
   132ee:	02a78533          	mul	a0,a5,a0
   132f2:	02c7beb3          	mulhu	t4,a5,a2
   132f6:	96aa                	add	a3,a3,a0
   132f8:	02c78633          	mul	a2,a5,a2
   132fc:	96f6                	add	a3,a3,t4
   132fe:	01f69793          	sll	a5,a3,0x1f
   13302:	8285                	srl	a3,a3,0x1
   13304:	8205                	srl	a2,a2,0x1
   13306:	8fd1                	or	a5,a5,a2
   13308:	b711                	j	1320c <_vfiprintf_r+0xdec>
   1330a:	8e3a                	mv	t3,a4
   1330c:	4701                	li	a4,0
   1330e:	880708e3          	beqz	a4,12b9e <_vfiprintf_r+0x77e>
   13312:	be39                	j	12e30 <_vfiprintf_r+0xa10>
   13314:	8526                	mv	a0,s1
   13316:	005000ef          	jal	13b1a <__sinit>
   1331a:	936ff06f          	j	12450 <_vfiprintf_r+0x30>
   1331e:	001d4703          	lbu	a4,1(s10)
   13322:	200e6e13          	or	t3,t3,512
   13326:	0d05                	add	s10,s10,1
   13328:	a14ff06f          	j	1253c <_vfiprintf_r+0x11c>
   1332c:	001d4703          	lbu	a4,1(s10)
   13330:	020e6e13          	or	t3,t3,32
   13334:	0d05                	add	s10,s10,1
   13336:	a06ff06f          	j	1253c <_vfiprintf_r+0x11c>
   1333a:	000b2783          	lw	a5,0(s6)
   1333e:	4732                	lw	a4,12(sp)
   13340:	0b11                	add	s6,s6,4
   13342:	c398                	sw	a4,0(a5)
   13344:	9b0ff06f          	j	124f4 <_vfiprintf_r+0xd4>
   13348:	4799                	li	a5,6
   1334a:	8de6                	mv	s11,s9
   1334c:	0797e963          	bltu	a5,s9,133be <_vfiprintf_r+0xf9e>
   13350:	4b62                	lw	s6,24(sp)
   13352:	8eee                	mv	t4,s11
   13354:	00009817          	auipc	a6,0x9
   13358:	84080813          	add	a6,a6,-1984 # 1bb94 <__clzsi2+0xb4>
   1335c:	a30ff06f          	j	1258c <_vfiprintf_r+0x16c>
   13360:	2006f793          	and	a5,a3,512
   13364:	c00785e3          	beqz	a5,12f6e <_vfiprintf_r+0xb4e>
   13368:	0ffdfd93          	zext.b	s11,s11
   1336c:	4e81                	li	t4,0
   1336e:	805ff06f          	j	12b72 <_vfiprintf_r+0x752>
   13372:	4781                	li	a5,0
   13374:	4601                	li	a2,0
   13376:	bc6d                	j	12e30 <_vfiprintf_r+0xa10>
   13378:	08b8                	add	a4,sp,88
   1337a:	4681                	li	a3,0
   1337c:	00f0                	add	a2,sp,76
   1337e:	4581                	li	a1,0
   13380:	8526                	mv	a0,s1
   13382:	d046                	sw	a7,32(sp)
   13384:	ce42                	sw	a6,28(sp)
   13386:	c872                	sw	t3,16(sp)
   13388:	7d7010ef          	jal	1535e <_wcsrtombs_r>
   1338c:	57fd                	li	a5,-1
   1338e:	4e42                	lw	t3,16(sp)
   13390:	4872                	lw	a6,28(sp)
   13392:	5882                	lw	a7,32(sp)
   13394:	8daa                	mv	s11,a0
   13396:	12f50a63          	beq	a0,a5,134ca <_vfiprintf_r+0x10aa>
   1339a:	c6c2                	sw	a6,76(sp)
   1339c:	b369                	j	13126 <_vfiprintf_r+0xd06>
   1339e:	4e81                	li	t4,0
   133a0:	c802                	sw	zero,16(sp)
   133a2:	04314783          	lbu	a5,67(sp)
   133a6:	4b62                	lw	s6,24(sp)
   133a8:	4c81                	li	s9,0
   133aa:	4f81                	li	t6,0
   133ac:	b8079c63          	bnez	a5,12744 <_vfiprintf_r+0x324>
   133b0:	9e2ff06f          	j	12592 <_vfiprintf_r+0x172>
   133b4:	4f05                	li	t5,1
   133b6:	4601                	li	a2,0
   133b8:	8456                	mv	s0,s5
   133ba:	a62ff06f          	j	1261c <_vfiprintf_r+0x1fc>
   133be:	4d99                	li	s11,6
   133c0:	bf41                	j	13350 <_vfiprintf_r+0xf30>
   133c2:	4601                	li	a2,0
   133c4:	4f05                	li	t5,1
   133c6:	8456                	mv	s0,s5
   133c8:	a06ff06f          	j	125ce <_vfiprintf_r+0x1ae>
   133cc:	000b2783          	lw	a5,0(s6)
   133d0:	4732                	lw	a4,12(sp)
   133d2:	0b11                	add	s6,s6,4
   133d4:	00e79023          	sh	a4,0(a5)
   133d8:	91cff06f          	j	124f4 <_vfiprintf_r+0xd4>
   133dc:	0ff7f793          	zext.b	a5,a5
   133e0:	4601                	li	a2,0
   133e2:	f12ff06f          	j	12af4 <_vfiprintf_r+0x6d4>
   133e6:	0de2                	sll	s11,s11,0x18
   133e8:	418ddd93          	sra	s11,s11,0x18
   133ec:	41fdde93          	sra	t4,s11,0x1f
   133f0:	87f6                	mv	a5,t4
   133f2:	b2aff06f          	j	1271c <_vfiprintf_r+0x2fc>
   133f6:	0ff7f793          	zext.b	a5,a5
   133fa:	4601                	li	a2,0
   133fc:	b9a5                	j	13074 <_vfiprintf_r+0xc54>
   133fe:	03000793          	li	a5,48
   13402:	d3eff06f          	j	12940 <_vfiprintf_r+0x520>
   13406:	c802                	sw	zero,16(sp)
   13408:	0ac10813          	add	a6,sp,172
   1340c:	b381                	j	1314c <_vfiprintf_r+0xd2c>
   1340e:	058a2503          	lw	a0,88(s4)
   13412:	69d010ef          	jal	152ae <__retarget_lock_release_recursive>
   13416:	aa6ff06f          	j	126bc <_vfiprintf_r+0x29c>
   1341a:	8ee6                	mv	t4,s9
   1341c:	8de6                	mv	s11,s9
   1341e:	b751                	j	133a2 <_vfiprintf_r+0xf82>
   13420:	4625                	li	a2,9
   13422:	dfb665e3          	bltu	a2,s11,1320c <_vfiprintf_r+0xdec>
   13426:	d63a                	sw	a4,44(sp)
   13428:	b43d                	j	12e56 <_vfiprintf_r+0xa36>
   1342a:	852e                	mv	a0,a1
   1342c:	00009317          	auipc	t1,0x9
   13430:	e0c30313          	add	t1,t1,-500 # 1c238 <blanks.1>
   13434:	bc5d                	j	12eea <_vfiprintf_r+0xaca>
   13436:	8542                	mv	a0,a6
   13438:	ce42                	sw	a6,28(sp)
   1343a:	3c3010ef          	jal	14ffc <strlen>
   1343e:	fff54e93          	not	t4,a0
   13442:	41fede93          	sra	t4,t4,0x1f
   13446:	4872                	lw	a6,28(sp)
   13448:	5e02                	lw	t3,32(sp)
   1344a:	5892                	lw	a7,36(sp)
   1344c:	8daa                	mv	s11,a0
   1344e:	01d57eb3          	and	t4,a0,t4
   13452:	c802                	sw	zero,16(sp)
   13454:	b7b9                	j	133a2 <_vfiprintf_r+0xf82>
   13456:	1090                	add	a2,sp,96
   13458:	85d2                	mv	a1,s4
   1345a:	8526                	mv	a0,s1
   1345c:	efffe0ef          	jal	1235a <__sprint_r.part.0>
   13460:	b4050663          	beqz	a0,127ac <_vfiprintf_r+0x38c>
   13464:	b68ff06f          	j	127cc <_vfiprintf_r+0x3ac>
   13468:	00168613          	add	a2,a3,1
   1346c:	00009317          	auipc	t1,0x9
   13470:	dcc30313          	add	t1,t1,-564 # 1c238 <blanks.1>
   13474:	c2eff06f          	j	128a2 <_vfiprintf_r+0x482>
   13478:	857a                	mv	a0,t5
   1347a:	00009f97          	auipc	t6,0x9
   1347e:	daef8f93          	add	t6,t6,-594 # 1c228 <zeroes.0>
   13482:	b885                	j	12cf2 <_vfiprintf_r+0x8d2>
   13484:	064a2783          	lw	a5,100(s4)
   13488:	8b85                	and	a5,a5,1
   1348a:	eb91                	bnez	a5,1349e <_vfiprintf_r+0x107e>
   1348c:	00ca5783          	lhu	a5,12(s4)
   13490:	2007f793          	and	a5,a5,512
   13494:	e789                	bnez	a5,1349e <_vfiprintf_r+0x107e>
   13496:	058a2503          	lw	a0,88(s4)
   1349a:	615010ef          	jal	152ae <__retarget_lock_release_recursive>
   1349e:	57fd                	li	a5,-1
   134a0:	c63e                	sw	a5,12(sp)
   134a2:	b60ff06f          	j	12802 <_vfiprintf_r+0x3e2>
   134a6:	88e6                	mv	a7,s9
   134a8:	8ca2                	mv	s9,s0
   134aa:	8a6a                	mv	s4,s10
   134ac:	4e72                	lw	t3,28(sp)
   134ae:	8d6e                	mv	s10,s11
   134b0:	5802                	lw	a6,32(sp)
   134b2:	4442                	lw	s0,16(sp)
   134b4:	8de6                	mv	s11,s9
   134b6:	b985                	j	13126 <_vfiprintf_r+0xd06>
   134b8:	00cd1783          	lh	a5,12(s10)
   134bc:	8a6a                	mv	s4,s10
   134be:	0407e793          	or	a5,a5,64
   134c2:	00fd1623          	sh	a5,12(s10)
   134c6:	b0aff06f          	j	127d0 <_vfiprintf_r+0x3b0>
   134ca:	00ca1783          	lh	a5,12(s4)
   134ce:	0407e793          	or	a5,a5,64
   134d2:	00fa1623          	sh	a5,12(s4)
   134d6:	afaff06f          	j	127d0 <_vfiprintf_r+0x3b0>
   134da:	000b2c83          	lw	s9,0(s6)
   134de:	0b11                	add	s6,s6,4
   134e0:	000cd363          	bgez	s9,134e6 <_vfiprintf_r+0x10c6>
   134e4:	5cfd                	li	s9,-1
   134e6:	001d4703          	lbu	a4,1(s10)
   134ea:	8d32                	mv	s10,a2
   134ec:	850ff06f          	j	1253c <_vfiprintf_r+0x11c>
   134f0:	00ca5783          	lhu	a5,12(s4)
   134f4:	0407e793          	or	a5,a5,64
   134f8:	00fa1623          	sh	a5,12(s4)
   134fc:	ac4ff06f          	j	127c0 <_vfiprintf_r+0x3a0>

00013500 <vfiprintf>:
   13500:	86b2                	mv	a3,a2
   13502:	862e                	mv	a2,a1
   13504:	85aa                	mv	a1,a0
   13506:	f2c1a503          	lw	a0,-212(gp) # 1d73c <_impure_ptr>
   1350a:	f17fe06f          	j	12420 <_vfiprintf_r>

0001350e <__sbprintf>:
   1350e:	b7010113          	add	sp,sp,-1168
   13512:	00c59783          	lh	a5,12(a1)
   13516:	00e5d703          	lhu	a4,14(a1)
   1351a:	48812423          	sw	s0,1160(sp)
   1351e:	842e                	mv	s0,a1
   13520:	65c1                	lui	a1,0x10
   13522:	15f5                	add	a1,a1,-3 # fffd <exit-0x97>
   13524:	06442303          	lw	t1,100(s0)
   13528:	01c42883          	lw	a7,28(s0)
   1352c:	02442803          	lw	a6,36(s0)
   13530:	0742                	sll	a4,a4,0x10
   13532:	8fed                	and	a5,a5,a1
   13534:	8fd9                	or	a5,a5,a4
   13536:	40000593          	li	a1,1024
   1353a:	49212023          	sw	s2,1152(sp)
   1353e:	ca3e                	sw	a5,20(sp)
   13540:	892a                	mv	s2,a0
   13542:	189c                	add	a5,sp,112
   13544:	1088                	add	a0,sp,96
   13546:	48112623          	sw	ra,1164(sp)
   1354a:	48912223          	sw	s1,1156(sp)
   1354e:	47312e23          	sw	s3,1148(sp)
   13552:	84b2                	mv	s1,a2
   13554:	89b6                	mv	s3,a3
   13556:	d69a                	sw	t1,108(sp)
   13558:	d246                	sw	a7,36(sp)
   1355a:	d642                	sw	a6,44(sp)
   1355c:	c43e                	sw	a5,8(sp)
   1355e:	cc3e                	sw	a5,24(sp)
   13560:	c82e                	sw	a1,16(sp)
   13562:	ce2e                	sw	a1,28(sp)
   13564:	d002                	sw	zero,32(sp)
   13566:	535010ef          	jal	1529a <__retarget_lock_init_recursive>
   1356a:	8626                	mv	a2,s1
   1356c:	86ce                	mv	a3,s3
   1356e:	002c                	add	a1,sp,8
   13570:	854a                	mv	a0,s2
   13572:	eaffe0ef          	jal	12420 <_vfiprintf_r>
   13576:	84aa                	mv	s1,a0
   13578:	02055e63          	bgez	a0,135b4 <__sbprintf+0xa6>
   1357c:	01415783          	lhu	a5,20(sp)
   13580:	0407f793          	and	a5,a5,64
   13584:	c799                	beqz	a5,13592 <__sbprintf+0x84>
   13586:	00c45783          	lhu	a5,12(s0)
   1358a:	0407e793          	or	a5,a5,64
   1358e:	00f41623          	sh	a5,12(s0)
   13592:	5506                	lw	a0,96(sp)
   13594:	50b010ef          	jal	1529e <__retarget_lock_close_recursive>
   13598:	48c12083          	lw	ra,1164(sp)
   1359c:	48812403          	lw	s0,1160(sp)
   135a0:	48012903          	lw	s2,1152(sp)
   135a4:	47c12983          	lw	s3,1148(sp)
   135a8:	8526                	mv	a0,s1
   135aa:	48412483          	lw	s1,1156(sp)
   135ae:	49010113          	add	sp,sp,1168
   135b2:	8082                	ret
   135b4:	002c                	add	a1,sp,8
   135b6:	854a                	mv	a0,s2
   135b8:	2a71                	jal	13754 <_fflush_r>
   135ba:	d169                	beqz	a0,1357c <__sbprintf+0x6e>
   135bc:	54fd                	li	s1,-1
   135be:	bf7d                	j	1357c <__sbprintf+0x6e>

000135c0 <__sflush_r>:
   135c0:	00c59703          	lh	a4,12(a1)
   135c4:	1101                	add	sp,sp,-32
   135c6:	cc22                	sw	s0,24(sp)
   135c8:	c64e                	sw	s3,12(sp)
   135ca:	ce06                	sw	ra,28(sp)
   135cc:	00877793          	and	a5,a4,8
   135d0:	842e                	mv	s0,a1
   135d2:	89aa                	mv	s3,a0
   135d4:	e7e1                	bnez	a5,1369c <__sflush_r+0xdc>
   135d6:	6785                	lui	a5,0x1
   135d8:	80078793          	add	a5,a5,-2048 # 800 <exit-0xf894>
   135dc:	41d4                	lw	a3,4(a1)
   135de:	8fd9                	or	a5,a5,a4
   135e0:	00f59623          	sh	a5,12(a1)
   135e4:	10d05563          	blez	a3,136ee <__sflush_r+0x12e>
   135e8:	02842803          	lw	a6,40(s0)
   135ec:	0a080263          	beqz	a6,13690 <__sflush_r+0xd0>
   135f0:	ca26                	sw	s1,20(sp)
   135f2:	01371693          	sll	a3,a4,0x13
   135f6:	0009a483          	lw	s1,0(s3)
   135fa:	0009a023          	sw	zero,0(s3)
   135fe:	4c4c                	lw	a1,28(s0)
   13600:	0e06ce63          	bltz	a3,136fc <__sflush_r+0x13c>
   13604:	4601                	li	a2,0
   13606:	4685                	li	a3,1
   13608:	854e                	mv	a0,s3
   1360a:	9802                	jalr	a6
   1360c:	57fd                	li	a5,-1
   1360e:	862a                	mv	a2,a0
   13610:	10f50f63          	beq	a0,a5,1372e <__sflush_r+0x16e>
   13614:	00c41783          	lh	a5,12(s0)
   13618:	02842803          	lw	a6,40(s0)
   1361c:	4c4c                	lw	a1,28(s0)
   1361e:	8b91                	and	a5,a5,4
   13620:	c799                	beqz	a5,1362e <__sflush_r+0x6e>
   13622:	4058                	lw	a4,4(s0)
   13624:	581c                	lw	a5,48(s0)
   13626:	8e19                	sub	a2,a2,a4
   13628:	c399                	beqz	a5,1362e <__sflush_r+0x6e>
   1362a:	5c5c                	lw	a5,60(s0)
   1362c:	8e1d                	sub	a2,a2,a5
   1362e:	4681                	li	a3,0
   13630:	854e                	mv	a0,s3
   13632:	9802                	jalr	a6
   13634:	57fd                	li	a5,-1
   13636:	0cf51563          	bne	a0,a5,13700 <__sflush_r+0x140>
   1363a:	0009a683          	lw	a3,0(s3)
   1363e:	47f5                	li	a5,29
   13640:	00c41703          	lh	a4,12(s0)
   13644:	10d7e163          	bltu	a5,a3,13746 <__sflush_r+0x186>
   13648:	204007b7          	lui	a5,0x20400
   1364c:	0785                	add	a5,a5,1 # 20400001 <__BSS_END__+0x203e22b9>
   1364e:	00d7d7b3          	srl	a5,a5,a3
   13652:	8b85                	and	a5,a5,1
   13654:	cbed                	beqz	a5,13746 <__sflush_r+0x186>
   13656:	4810                	lw	a2,16(s0)
   13658:	77fd                	lui	a5,0xfffff
   1365a:	7ff78793          	add	a5,a5,2047 # fffff7ff <__BSS_END__+0xfffe1ab7>
   1365e:	8ff9                	and	a5,a5,a4
   13660:	00f41623          	sh	a5,12(s0)
   13664:	00042223          	sw	zero,4(s0)
   13668:	c010                	sw	a2,0(s0)
   1366a:	01371793          	sll	a5,a4,0x13
   1366e:	0007d363          	bgez	a5,13674 <__sflush_r+0xb4>
   13672:	c6dd                	beqz	a3,13720 <__sflush_r+0x160>
   13674:	580c                	lw	a1,48(s0)
   13676:	0099a023          	sw	s1,0(s3)
   1367a:	c9c5                	beqz	a1,1372a <__sflush_r+0x16a>
   1367c:	04040793          	add	a5,s0,64
   13680:	00f58563          	beq	a1,a5,1368a <__sflush_r+0xca>
   13684:	854e                	mv	a0,s3
   13686:	040030ef          	jal	166c6 <_free_r>
   1368a:	44d2                	lw	s1,20(sp)
   1368c:	02042823          	sw	zero,48(s0)
   13690:	4501                	li	a0,0
   13692:	40f2                	lw	ra,28(sp)
   13694:	4462                	lw	s0,24(sp)
   13696:	49b2                	lw	s3,12(sp)
   13698:	6105                	add	sp,sp,32
   1369a:	8082                	ret
   1369c:	c84a                	sw	s2,16(sp)
   1369e:	0105a903          	lw	s2,16(a1)
   136a2:	04090b63          	beqz	s2,136f8 <__sflush_r+0x138>
   136a6:	ca26                	sw	s1,20(sp)
   136a8:	4184                	lw	s1,0(a1)
   136aa:	8b0d                	and	a4,a4,3
   136ac:	0125a023          	sw	s2,0(a1)
   136b0:	412484b3          	sub	s1,s1,s2
   136b4:	4781                	li	a5,0
   136b6:	e311                	bnez	a4,136ba <__sflush_r+0xfa>
   136b8:	49dc                	lw	a5,20(a1)
   136ba:	c41c                	sw	a5,8(s0)
   136bc:	00904663          	bgtz	s1,136c8 <__sflush_r+0x108>
   136c0:	a81d                	j	136f6 <__sflush_r+0x136>
   136c2:	992a                	add	s2,s2,a0
   136c4:	02905963          	blez	s1,136f6 <__sflush_r+0x136>
   136c8:	505c                	lw	a5,36(s0)
   136ca:	4c4c                	lw	a1,28(s0)
   136cc:	86a6                	mv	a3,s1
   136ce:	864a                	mv	a2,s2
   136d0:	854e                	mv	a0,s3
   136d2:	9782                	jalr	a5
   136d4:	8c89                	sub	s1,s1,a0
   136d6:	fea046e3          	bgtz	a0,136c2 <__sflush_r+0x102>
   136da:	00c41703          	lh	a4,12(s0)
   136de:	4942                	lw	s2,16(sp)
   136e0:	04076713          	or	a4,a4,64
   136e4:	44d2                	lw	s1,20(sp)
   136e6:	00e41623          	sh	a4,12(s0)
   136ea:	557d                	li	a0,-1
   136ec:	b75d                	j	13692 <__sflush_r+0xd2>
   136ee:	5dd4                	lw	a3,60(a1)
   136f0:	eed04ce3          	bgtz	a3,135e8 <__sflush_r+0x28>
   136f4:	bf71                	j	13690 <__sflush_r+0xd0>
   136f6:	44d2                	lw	s1,20(sp)
   136f8:	4942                	lw	s2,16(sp)
   136fa:	bf59                	j	13690 <__sflush_r+0xd0>
   136fc:	4830                	lw	a2,80(s0)
   136fe:	b705                	j	1361e <__sflush_r+0x5e>
   13700:	00c41703          	lh	a4,12(s0)
   13704:	4814                	lw	a3,16(s0)
   13706:	77fd                	lui	a5,0xfffff
   13708:	7ff78793          	add	a5,a5,2047 # fffff7ff <__BSS_END__+0xfffe1ab7>
   1370c:	8ff9                	and	a5,a5,a4
   1370e:	00f41623          	sh	a5,12(s0)
   13712:	00042223          	sw	zero,4(s0)
   13716:	c014                	sw	a3,0(s0)
   13718:	01371793          	sll	a5,a4,0x13
   1371c:	f407dce3          	bgez	a5,13674 <__sflush_r+0xb4>
   13720:	580c                	lw	a1,48(s0)
   13722:	c828                	sw	a0,80(s0)
   13724:	0099a023          	sw	s1,0(s3)
   13728:	f9b1                	bnez	a1,1367c <__sflush_r+0xbc>
   1372a:	44d2                	lw	s1,20(sp)
   1372c:	b795                	j	13690 <__sflush_r+0xd0>
   1372e:	0009a783          	lw	a5,0(s3)
   13732:	ee0781e3          	beqz	a5,13614 <__sflush_r+0x54>
   13736:	4775                	li	a4,29
   13738:	00e78a63          	beq	a5,a4,1374c <__sflush_r+0x18c>
   1373c:	4759                	li	a4,22
   1373e:	00e78763          	beq	a5,a4,1374c <__sflush_r+0x18c>
   13742:	00c41703          	lh	a4,12(s0)
   13746:	04076713          	or	a4,a4,64
   1374a:	bf69                	j	136e4 <__sflush_r+0x124>
   1374c:	0099a023          	sw	s1,0(s3)
   13750:	44d2                	lw	s1,20(sp)
   13752:	bf3d                	j	13690 <__sflush_r+0xd0>

00013754 <_fflush_r>:
   13754:	1141                	add	sp,sp,-16
   13756:	c422                	sw	s0,8(sp)
   13758:	c226                	sw	s1,4(sp)
   1375a:	c606                	sw	ra,12(sp)
   1375c:	c04a                	sw	s2,0(sp)
   1375e:	84aa                	mv	s1,a0
   13760:	842e                	mv	s0,a1
   13762:	c119                	beqz	a0,13768 <_fflush_r+0x14>
   13764:	595c                	lw	a5,52(a0)
   13766:	c3bd                	beqz	a5,137cc <_fflush_r+0x78>
   13768:	00c41783          	lh	a5,12(s0)
   1376c:	4901                	li	s2,0
   1376e:	c39d                	beqz	a5,13794 <_fflush_r+0x40>
   13770:	5078                	lw	a4,100(s0)
   13772:	8b05                	and	a4,a4,1
   13774:	e701                	bnez	a4,1377c <_fflush_r+0x28>
   13776:	2007f793          	and	a5,a5,512
   1377a:	c785                	beqz	a5,137a2 <_fflush_r+0x4e>
   1377c:	85a2                	mv	a1,s0
   1377e:	8526                	mv	a0,s1
   13780:	3581                	jal	135c0 <__sflush_r>
   13782:	507c                	lw	a5,100(s0)
   13784:	892a                	mv	s2,a0
   13786:	8b85                	and	a5,a5,1
   13788:	e791                	bnez	a5,13794 <_fflush_r+0x40>
   1378a:	00c45783          	lhu	a5,12(s0)
   1378e:	2007f793          	and	a5,a5,512
   13792:	c39d                	beqz	a5,137b8 <_fflush_r+0x64>
   13794:	40b2                	lw	ra,12(sp)
   13796:	4422                	lw	s0,8(sp)
   13798:	4492                	lw	s1,4(sp)
   1379a:	854a                	mv	a0,s2
   1379c:	4902                	lw	s2,0(sp)
   1379e:	0141                	add	sp,sp,16
   137a0:	8082                	ret
   137a2:	4c28                	lw	a0,88(s0)
   137a4:	2ff010ef          	jal	152a2 <__retarget_lock_acquire_recursive>
   137a8:	85a2                	mv	a1,s0
   137aa:	8526                	mv	a0,s1
   137ac:	3d11                	jal	135c0 <__sflush_r>
   137ae:	507c                	lw	a5,100(s0)
   137b0:	892a                	mv	s2,a0
   137b2:	8b85                	and	a5,a5,1
   137b4:	f3e5                	bnez	a5,13794 <_fflush_r+0x40>
   137b6:	bfd1                	j	1378a <_fflush_r+0x36>
   137b8:	4c28                	lw	a0,88(s0)
   137ba:	2f5010ef          	jal	152ae <__retarget_lock_release_recursive>
   137be:	40b2                	lw	ra,12(sp)
   137c0:	4422                	lw	s0,8(sp)
   137c2:	4492                	lw	s1,4(sp)
   137c4:	854a                	mv	a0,s2
   137c6:	4902                	lw	s2,0(sp)
   137c8:	0141                	add	sp,sp,16
   137ca:	8082                	ret
   137cc:	26b9                	jal	13b1a <__sinit>
   137ce:	bf69                	j	13768 <_fflush_r+0x14>

000137d0 <fflush>:
   137d0:	c535                	beqz	a0,1383c <fflush+0x6c>
   137d2:	1141                	add	sp,sp,-16
   137d4:	c422                	sw	s0,8(sp)
   137d6:	c04a                	sw	s2,0(sp)
   137d8:	c606                	sw	ra,12(sp)
   137da:	c226                	sw	s1,4(sp)
   137dc:	f2c1a903          	lw	s2,-212(gp) # 1d73c <_impure_ptr>
   137e0:	842a                	mv	s0,a0
   137e2:	00090563          	beqz	s2,137ec <fflush+0x1c>
   137e6:	03492783          	lw	a5,52(s2)
   137ea:	cf95                	beqz	a5,13826 <fflush+0x56>
   137ec:	00c41783          	lh	a5,12(s0)
   137f0:	4481                	li	s1,0
   137f2:	c39d                	beqz	a5,13818 <fflush+0x48>
   137f4:	5078                	lw	a4,100(s0)
   137f6:	8b05                	and	a4,a4,1
   137f8:	e701                	bnez	a4,13800 <fflush+0x30>
   137fa:	2007f793          	and	a5,a5,512
   137fe:	c79d                	beqz	a5,1382c <fflush+0x5c>
   13800:	85a2                	mv	a1,s0
   13802:	854a                	mv	a0,s2
   13804:	3b75                	jal	135c0 <__sflush_r>
   13806:	507c                	lw	a5,100(s0)
   13808:	84aa                	mv	s1,a0
   1380a:	8b85                	and	a5,a5,1
   1380c:	e791                	bnez	a5,13818 <fflush+0x48>
   1380e:	00c45783          	lhu	a5,12(s0)
   13812:	2007f793          	and	a5,a5,512
   13816:	cf99                	beqz	a5,13834 <fflush+0x64>
   13818:	40b2                	lw	ra,12(sp)
   1381a:	4422                	lw	s0,8(sp)
   1381c:	4902                	lw	s2,0(sp)
   1381e:	8526                	mv	a0,s1
   13820:	4492                	lw	s1,4(sp)
   13822:	0141                	add	sp,sp,16
   13824:	8082                	ret
   13826:	854a                	mv	a0,s2
   13828:	2ccd                	jal	13b1a <__sinit>
   1382a:	b7c9                	j	137ec <fflush+0x1c>
   1382c:	4c28                	lw	a0,88(s0)
   1382e:	275010ef          	jal	152a2 <__retarget_lock_acquire_recursive>
   13832:	b7f9                	j	13800 <fflush+0x30>
   13834:	4c28                	lw	a0,88(s0)
   13836:	279010ef          	jal	152ae <__retarget_lock_release_recursive>
   1383a:	bff9                	j	13818 <fflush+0x48>
   1383c:	00009617          	auipc	a2,0x9
   13840:	7d460613          	add	a2,a2,2004 # 1d010 <__sglue>
   13844:	00000597          	auipc	a1,0x0
   13848:	f1058593          	add	a1,a1,-240 # 13754 <_fflush_r>
   1384c:	99818513          	add	a0,gp,-1640 # 1d1a8 <_impure_data>
   13850:	ad75                	j	13f0c <_fwalk_sglue>

00013852 <stdio_exit_handler>:
   13852:	00009617          	auipc	a2,0x9
   13856:	7be60613          	add	a2,a2,1982 # 1d010 <__sglue>
   1385a:	00005597          	auipc	a1,0x5
   1385e:	ba458593          	add	a1,a1,-1116 # 183fe <_fclose_r>
   13862:	99818513          	add	a0,gp,-1640 # 1d1a8 <_impure_data>
   13866:	a55d                	j	13f0c <_fwalk_sglue>

00013868 <cleanup_stdio>:
   13868:	414c                	lw	a1,4(a0)
   1386a:	1141                	add	sp,sp,-16
   1386c:	c422                	sw	s0,8(sp)
   1386e:	c606                	sw	ra,12(sp)
   13870:	fa018793          	add	a5,gp,-96 # 1d7b0 <__sf>
   13874:	842a                	mv	s0,a0
   13876:	00f58463          	beq	a1,a5,1387e <cleanup_stdio+0x16>
   1387a:	385040ef          	jal	183fe <_fclose_r>
   1387e:	440c                	lw	a1,8(s0)
   13880:	00818793          	add	a5,gp,8 # 1d818 <__global_pointer$+0x8>
   13884:	00f58563          	beq	a1,a5,1388e <cleanup_stdio+0x26>
   13888:	8522                	mv	a0,s0
   1388a:	375040ef          	jal	183fe <_fclose_r>
   1388e:	444c                	lw	a1,12(s0)
   13890:	07018793          	add	a5,gp,112 # 1d880 <__global_pointer$+0x70>
   13894:	00f58863          	beq	a1,a5,138a4 <cleanup_stdio+0x3c>
   13898:	8522                	mv	a0,s0
   1389a:	4422                	lw	s0,8(sp)
   1389c:	40b2                	lw	ra,12(sp)
   1389e:	0141                	add	sp,sp,16
   138a0:	35f0406f          	j	183fe <_fclose_r>
   138a4:	40b2                	lw	ra,12(sp)
   138a6:	4422                	lw	s0,8(sp)
   138a8:	0141                	add	sp,sp,16
   138aa:	8082                	ret

000138ac <__fp_lock>:
   138ac:	51fc                	lw	a5,100(a1)
   138ae:	8b85                	and	a5,a5,1
   138b0:	e791                	bnez	a5,138bc <__fp_lock+0x10>
   138b2:	00c5d783          	lhu	a5,12(a1)
   138b6:	2007f793          	and	a5,a5,512
   138ba:	c399                	beqz	a5,138c0 <__fp_lock+0x14>
   138bc:	4501                	li	a0,0
   138be:	8082                	ret
   138c0:	4da8                	lw	a0,88(a1)
   138c2:	1141                	add	sp,sp,-16
   138c4:	c606                	sw	ra,12(sp)
   138c6:	1dd010ef          	jal	152a2 <__retarget_lock_acquire_recursive>
   138ca:	40b2                	lw	ra,12(sp)
   138cc:	4501                	li	a0,0
   138ce:	0141                	add	sp,sp,16
   138d0:	8082                	ret

000138d2 <__fp_unlock>:
   138d2:	51fc                	lw	a5,100(a1)
   138d4:	8b85                	and	a5,a5,1
   138d6:	e791                	bnez	a5,138e2 <__fp_unlock+0x10>
   138d8:	00c5d783          	lhu	a5,12(a1)
   138dc:	2007f793          	and	a5,a5,512
   138e0:	c399                	beqz	a5,138e6 <__fp_unlock+0x14>
   138e2:	4501                	li	a0,0
   138e4:	8082                	ret
   138e6:	4da8                	lw	a0,88(a1)
   138e8:	1141                	add	sp,sp,-16
   138ea:	c606                	sw	ra,12(sp)
   138ec:	1c3010ef          	jal	152ae <__retarget_lock_release_recursive>
   138f0:	40b2                	lw	ra,12(sp)
   138f2:	4501                	li	a0,0
   138f4:	0141                	add	sp,sp,16
   138f6:	8082                	ret

000138f8 <global_stdio_init.part.0>:
   138f8:	1101                	add	sp,sp,-32
   138fa:	00000797          	auipc	a5,0x0
   138fe:	f5878793          	add	a5,a5,-168 # 13852 <stdio_exit_handler>
   13902:	ce06                	sw	ra,28(sp)
   13904:	cc22                	sw	s0,24(sp)
   13906:	ca26                	sw	s1,20(sp)
   13908:	fa018413          	add	s0,gp,-96 # 1d7b0 <__sf>
   1390c:	c84a                	sw	s2,16(sp)
   1390e:	c64e                	sw	s3,12(sp)
   13910:	c452                	sw	s4,8(sp)
   13912:	4621                	li	a2,8
   13914:	4581                	li	a1,0
   13916:	f4f1a223          	sw	a5,-188(gp) # 1d754 <__stdio_exit_handler>
   1391a:	ffc18513          	add	a0,gp,-4 # 1d80c <__sf+0x5c>
   1391e:	4791                	li	a5,4
   13920:	c45c                	sw	a5,12(s0)
   13922:	00042023          	sw	zero,0(s0)
   13926:	00042223          	sw	zero,4(s0)
   1392a:	00042423          	sw	zero,8(s0)
   1392e:	06042223          	sw	zero,100(s0)
   13932:	00042823          	sw	zero,16(s0)
   13936:	00042a23          	sw	zero,20(s0)
   1393a:	00042c23          	sw	zero,24(s0)
   1393e:	4d0010ef          	jal	14e0e <memset>
   13942:	00005a17          	auipc	s4,0x5
   13946:	10ea0a13          	add	s4,s4,270 # 18a50 <__sread>
   1394a:	00005997          	auipc	s3,0x5
   1394e:	14298993          	add	s3,s3,322 # 18a8c <__swrite>
   13952:	00005917          	auipc	s2,0x5
   13956:	18e90913          	add	s2,s2,398 # 18ae0 <__sseek>
   1395a:	00005497          	auipc	s1,0x5
   1395e:	1d048493          	add	s1,s1,464 # 18b2a <__sclose>
   13962:	ff818513          	add	a0,gp,-8 # 1d808 <__sf+0x58>
   13966:	03442023          	sw	s4,32(s0)
   1396a:	03342223          	sw	s3,36(s0)
   1396e:	03242423          	sw	s2,40(s0)
   13972:	d444                	sw	s1,44(s0)
   13974:	cc40                	sw	s0,28(s0)
   13976:	125010ef          	jal	1529a <__retarget_lock_init_recursive>
   1397a:	67c1                	lui	a5,0x10
   1397c:	07a5                	add	a5,a5,9 # 10009 <exit-0x8b>
   1397e:	4621                	li	a2,8
   13980:	4581                	li	a1,0
   13982:	06418513          	add	a0,gp,100 # 1d874 <__global_pointer$+0x64>
   13986:	d87c                	sw	a5,116(s0)
   13988:	06042423          	sw	zero,104(s0)
   1398c:	06042623          	sw	zero,108(s0)
   13990:	06042823          	sw	zero,112(s0)
   13994:	0c042623          	sw	zero,204(s0)
   13998:	06042c23          	sw	zero,120(s0)
   1399c:	06042e23          	sw	zero,124(s0)
   139a0:	08042023          	sw	zero,128(s0)
   139a4:	46a010ef          	jal	14e0e <memset>
   139a8:	00818793          	add	a5,gp,8 # 1d818 <__global_pointer$+0x8>
   139ac:	06018513          	add	a0,gp,96 # 1d870 <__global_pointer$+0x60>
   139b0:	08f42223          	sw	a5,132(s0)
   139b4:	09442423          	sw	s4,136(s0)
   139b8:	09342623          	sw	s3,140(s0)
   139bc:	09242823          	sw	s2,144(s0)
   139c0:	08942a23          	sw	s1,148(s0)
   139c4:	0d7010ef          	jal	1529a <__retarget_lock_init_recursive>
   139c8:	000207b7          	lui	a5,0x20
   139cc:	07c9                	add	a5,a5,18 # 20012 <__BSS_END__+0x22ca>
   139ce:	4621                	li	a2,8
   139d0:	4581                	li	a1,0
   139d2:	0cc18513          	add	a0,gp,204 # 1d8dc <__global_pointer$+0xcc>
   139d6:	0cf42e23          	sw	a5,220(s0)
   139da:	0c042823          	sw	zero,208(s0)
   139de:	0c042a23          	sw	zero,212(s0)
   139e2:	0c042c23          	sw	zero,216(s0)
   139e6:	12042a23          	sw	zero,308(s0)
   139ea:	0e042023          	sw	zero,224(s0)
   139ee:	0e042223          	sw	zero,228(s0)
   139f2:	0e042423          	sw	zero,232(s0)
   139f6:	418010ef          	jal	14e0e <memset>
   139fa:	07018793          	add	a5,gp,112 # 1d880 <__global_pointer$+0x70>
   139fe:	0f442823          	sw	s4,240(s0)
   13a02:	0f342a23          	sw	s3,244(s0)
   13a06:	0f242c23          	sw	s2,248(s0)
   13a0a:	0e942e23          	sw	s1,252(s0)
   13a0e:	0ef42623          	sw	a5,236(s0)
   13a12:	4462                	lw	s0,24(sp)
   13a14:	40f2                	lw	ra,28(sp)
   13a16:	44d2                	lw	s1,20(sp)
   13a18:	4942                	lw	s2,16(sp)
   13a1a:	49b2                	lw	s3,12(sp)
   13a1c:	4a22                	lw	s4,8(sp)
   13a1e:	0c818513          	add	a0,gp,200 # 1d8d8 <__global_pointer$+0xc8>
   13a22:	6105                	add	sp,sp,32
   13a24:	0770106f          	j	1529a <__retarget_lock_init_recursive>

00013a28 <__sfp>:
   13a28:	1101                	add	sp,sp,-32
   13a2a:	c64e                	sw	s3,12(sp)
   13a2c:	89aa                	mv	s3,a0
   13a2e:	f6818513          	add	a0,gp,-152 # 1d778 <__lock___sfp_recursive_mutex>
   13a32:	ce06                	sw	ra,28(sp)
   13a34:	cc22                	sw	s0,24(sp)
   13a36:	ca26                	sw	s1,20(sp)
   13a38:	c84a                	sw	s2,16(sp)
   13a3a:	069010ef          	jal	152a2 <__retarget_lock_acquire_recursive>
   13a3e:	f441a783          	lw	a5,-188(gp) # 1d754 <__stdio_exit_handler>
   13a42:	c3e1                	beqz	a5,13b02 <__sfp+0xda>
   13a44:	00009917          	auipc	s2,0x9
   13a48:	5cc90913          	add	s2,s2,1484 # 1d010 <__sglue>
   13a4c:	54fd                	li	s1,-1
   13a4e:	00492783          	lw	a5,4(s2)
   13a52:	00892403          	lw	s0,8(s2)
   13a56:	17fd                	add	a5,a5,-1
   13a58:	0007d763          	bgez	a5,13a66 <__sfp+0x3e>
   13a5c:	a885                	j	13acc <__sfp+0xa4>
   13a5e:	06840413          	add	s0,s0,104
   13a62:	06978563          	beq	a5,s1,13acc <__sfp+0xa4>
   13a66:	00c41703          	lh	a4,12(s0)
   13a6a:	17fd                	add	a5,a5,-1
   13a6c:	fb6d                	bnez	a4,13a5e <__sfp+0x36>
   13a6e:	77c1                	lui	a5,0xffff0
   13a70:	0785                	add	a5,a5,1 # ffff0001 <__BSS_END__+0xfffd22b9>
   13a72:	c45c                	sw	a5,12(s0)
   13a74:	05840513          	add	a0,s0,88
   13a78:	06042223          	sw	zero,100(s0)
   13a7c:	01f010ef          	jal	1529a <__retarget_lock_init_recursive>
   13a80:	f6818513          	add	a0,gp,-152 # 1d778 <__lock___sfp_recursive_mutex>
