
code.elf:     file format elf32-littleriscv


Disassembly of section .text:

00010094 <exit>:
   10094:	1141                	add	sp,sp,-16
   10096:	4581                	li	a1,0
   10098:	c422                	sw	s0,8(sp)
   1009a:	c606                	sw	ra,12(sp)
   1009c:	842a                	mv	s0,a0
   1009e:	3f6050ef          	jal	15494 <__call_exitprocs>
   100a2:	f441a783          	lw	a5,-188(gp) # 1d754 <__stdio_exit_handler>
   100a6:	c391                	beqz	a5,100aa <exit+0x16>
   100a8:	9782                	jalr	a5
   100aa:	8522                	mv	a0,s0
   100ac:	0eb090ef          	jal	19996 <_exit>

000100b0 <main>:
   100b0:	ff010113          	add	sp,sp,-16
   100b4:	00112623          	sw	ra,12(sp)
   100b8:	00812423          	sw	s0,8(sp)
   100bc:	00912223          	sw	s1,4(sp)
   100c0:	01212023          	sw	s2,0(sp)
   100c4:	0001c4b7          	lui	s1,0x1c
   100c8:	10c000ef          	jal	101d4 <get_cycles>
   100cc:	00050413          	mv	s0,a0
   100d0:	00058913          	mv	s2,a1
   100d4:	b5048513          	add	a0,s1,-1200 # 1bb50 <__clzsi2+0x70>
   100d8:	00200593          	li	a1,2
   100dc:	198000ef          	jal	10274 <printf>
   100e0:	00300593          	li	a1,3
   100e4:	b5048513          	add	a0,s1,-1200
   100e8:	18c000ef          	jal	10274 <printf>
   100ec:	00400593          	li	a1,4
   100f0:	b5048513          	add	a0,s1,-1200
   100f4:	180000ef          	jal	10274 <printf>
   100f8:	00500593          	li	a1,5
   100fc:	b5048513          	add	a0,s1,-1200
   10100:	174000ef          	jal	10274 <printf>
   10104:	0d0000ef          	jal	101d4 <get_cycles>
   10108:	40850633          	sub	a2,a0,s0
   1010c:	00c53533          	sltu	a0,a0,a2
   10110:	412586b3          	sub	a3,a1,s2
   10114:	40a686b3          	sub	a3,a3,a0
   10118:	0001c537          	lui	a0,0x1c
   1011c:	b5450513          	add	a0,a0,-1196 # 1bb54 <__clzsi2+0x74>
   10120:	154000ef          	jal	10274 <printf>
   10124:	00c12083          	lw	ra,12(sp)
   10128:	00812403          	lw	s0,8(sp)
   1012c:	00412483          	lw	s1,4(sp)
   10130:	00012903          	lw	s2,0(sp)
   10134:	00000513          	li	a0,0
   10138:	01010113          	add	sp,sp,16
   1013c:	00008067          	ret

00010140 <register_fini>:
   10140:	00000793          	li	a5,0
   10144:	c791                	beqz	a5,10150 <register_fini+0x10>
   10146:	00005517          	auipc	a0,0x5
   1014a:	11a50513          	add	a0,a0,282 # 15260 <__libc_fini_array>
   1014e:	a8ed                	j	10248 <atexit>
   10150:	8082                	ret

00010152 <_start>:
   10152:	0000d197          	auipc	gp,0xd
   10156:	6be18193          	add	gp,gp,1726 # 1d810 <__global_pointer$>
   1015a:	f4018513          	add	a0,gp,-192 # 1d750 <completed.1>
   1015e:	53818613          	add	a2,gp,1336 # 1dd48 <__BSS_END__>
   10162:	8e09                	sub	a2,a2,a0
   10164:	4581                	li	a1,0
   10166:	4a9040ef          	jal	14e0e <memset>
   1016a:	00005517          	auipc	a0,0x5
   1016e:	0f650513          	add	a0,a0,246 # 15260 <__libc_fini_array>
   10172:	28d9                	jal	10248 <atexit>
   10174:	082050ef          	jal	151f6 <__libc_init_array>
   10178:	4502                	lw	a0,0(sp)
   1017a:	004c                	add	a1,sp,4
   1017c:	4601                	li	a2,0
   1017e:	3f0d                	jal	100b0 <main>
   10180:	bf11                	j	10094 <exit>

00010182 <__do_global_dtors_aux>:
   10182:	1141                	add	sp,sp,-16
   10184:	c422                	sw	s0,8(sp)
   10186:	f4018413          	add	s0,gp,-192 # 1d750 <completed.1>
   1018a:	00044783          	lbu	a5,0(s0)
   1018e:	c606                	sw	ra,12(sp)
   10190:	ef99                	bnez	a5,101ae <__do_global_dtors_aux+0x2c>
   10192:	00000793          	li	a5,0
   10196:	cb89                	beqz	a5,101a8 <__do_global_dtors_aux+0x26>
   10198:	0000d517          	auipc	a0,0xd
   1019c:	e6850513          	add	a0,a0,-408 # 1d000 <__EH_FRAME_BEGIN__>
   101a0:	00000097          	auipc	ra,0x0
   101a4:	000000e7          	jalr	zero # 0 <exit-0x10094>
   101a8:	4785                	li	a5,1
   101aa:	00f40023          	sb	a5,0(s0)
   101ae:	40b2                	lw	ra,12(sp)
   101b0:	4422                	lw	s0,8(sp)
   101b2:	0141                	add	sp,sp,16
   101b4:	8082                	ret

000101b6 <frame_dummy>:
   101b6:	00000793          	li	a5,0
   101ba:	cb99                	beqz	a5,101d0 <frame_dummy+0x1a>
   101bc:	f8818593          	add	a1,gp,-120 # 1d798 <object.0>
   101c0:	0000d517          	auipc	a0,0xd
   101c4:	e4050513          	add	a0,a0,-448 # 1d000 <__EH_FRAME_BEGIN__>
   101c8:	00000317          	auipc	t1,0x0
   101cc:	00000067          	jr	zero # 0 <exit-0x10094>
   101d0:	8082                	ret
	...

000101d4 <get_cycles>:
   101d4:	c80025f3          	rdcycleh	a1
   101d8:	c0002573          	rdcycle	a0
   101dc:	c8002673          	rdcycleh	a2
   101e0:	fec59ae3          	bne	a1,a2,101d4 <get_cycles>
   101e4:	00008067          	ret

000101e8 <count_leading_zeros>:
   101e8:	02058e63          	beqz	a1,10224 <count_leading_zeros+0x3c>
   101ec:	00000793          	li	a5,0
   101f0:	00100693          	li	a3,1
   101f4:	01f59713          	sll	a4,a1,0x1f
   101f8:	00155513          	srl	a0,a0,0x1
   101fc:	00a76533          	or	a0,a4,a0
   10200:	0015d593          	srl	a1,a1,0x1
   10204:	00178793          	add	a5,a5,1
   10208:	fed516e3          	bne	a0,a3,101f4 <count_leading_zeros+0xc>
   1020c:	fe0594e3          	bnez	a1,101f4 <count_leading_zeros+0xc>
   10210:	04000513          	li	a0,64
   10214:	40f50533          	sub	a0,a0,a5
   10218:	01051513          	sll	a0,a0,0x10
   1021c:	01055513          	srl	a0,a0,0x10
   10220:	00008067          	ret
   10224:	00100793          	li	a5,1
   10228:	fca7e2e3          	bltu	a5,a0,101ec <count_leading_zeros+0x4>
   1022c:	00154513          	xor	a0,a0,1
   10230:	00153793          	seqz	a5,a0
   10234:	04000513          	li	a0,64
   10238:	40f50533          	sub	a0,a0,a5
   1023c:	01051513          	sll	a0,a0,0x10
   10240:	01055513          	srl	a0,a0,0x10
   10244:	00008067          	ret

00010248 <atexit>:
   10248:	85aa                	mv	a1,a0
   1024a:	4681                	li	a3,0
   1024c:	4601                	li	a2,0
   1024e:	4501                	li	a0,0
   10250:	1380506f          	j	15388 <__register_exitproc>

00010254 <_printf_r>:
   10254:	7139                	add	sp,sp,-64
   10256:	d432                	sw	a2,40(sp)
   10258:	d636                	sw	a3,44(sp)
   1025a:	d83a                	sw	a4,48(sp)
   1025c:	da3e                	sw	a5,52(sp)
   1025e:	dc42                	sw	a6,56(sp)
   10260:	de46                	sw	a7,60(sp)
   10262:	862e                	mv	a2,a1
   10264:	450c                	lw	a1,8(a0)
   10266:	1034                	add	a3,sp,40
   10268:	ce06                	sw	ra,28(sp)
   1026a:	c636                	sw	a3,12(sp)
   1026c:	280d                	jal	1029e <_vfprintf_r>
   1026e:	40f2                	lw	ra,28(sp)
   10270:	6121                	add	sp,sp,64
   10272:	8082                	ret

00010274 <printf>:
   10274:	7139                	add	sp,sp,-64
   10276:	d432                	sw	a2,40(sp)
   10278:	d636                	sw	a3,44(sp)
   1027a:	f2c1a303          	lw	t1,-212(gp) # 1d73c <_impure_ptr>
   1027e:	d22e                	sw	a1,36(sp)
   10280:	d83a                	sw	a4,48(sp)
   10282:	da3e                	sw	a5,52(sp)
   10284:	dc42                	sw	a6,56(sp)
   10286:	de46                	sw	a7,60(sp)
   10288:	00832583          	lw	a1,8(t1) # 101d0 <frame_dummy+0x1a>
   1028c:	1054                	add	a3,sp,36
   1028e:	862a                	mv	a2,a0
   10290:	851a                	mv	a0,t1
   10292:	ce06                	sw	ra,28(sp)
   10294:	c636                	sw	a3,12(sp)
   10296:	2021                	jal	1029e <_vfprintf_r>
   10298:	40f2                	lw	ra,28(sp)
   1029a:	6121                	add	sp,sp,64
   1029c:	8082                	ret

0001029e <_vfprintf_r>:
   1029e:	7165                	add	sp,sp,-400
   102a0:	18112623          	sw	ra,396(sp)
   102a4:	c42e                	sw	a1,8(sp)
   102a6:	c632                	sw	a2,12(sp)
   102a8:	ca36                	sw	a3,20(sp)
   102aa:	17312e23          	sw	s3,380(sp)
   102ae:	18812423          	sw	s0,392(sp)
   102b2:	89aa                	mv	s3,a0
   102b4:	283040ef          	jal	14d36 <_localeconv_r>
   102b8:	411c                	lw	a5,0(a0)
   102ba:	853e                	mv	a0,a5
   102bc:	da3e                	sw	a5,52(sp)
   102be:	53f040ef          	jal	14ffc <strlen>
   102c2:	872a                	mv	a4,a0
   102c4:	4621                	li	a2,8
   102c6:	4581                	li	a1,0
   102c8:	0908                	add	a0,sp,144
   102ca:	d83a                	sw	a4,48(sp)
   102cc:	343040ef          	jal	14e0e <memset>
   102d0:	47b2                	lw	a5,12(sp)
   102d2:	00098763          	beqz	s3,102e0 <_vfprintf_r+0x42>
   102d6:	0349a703          	lw	a4,52(s3)
   102da:	e319                	bnez	a4,102e0 <_vfprintf_r+0x42>
   102dc:	25a0106f          	j	11536 <_vfprintf_r+0x1298>
   102e0:	4722                	lw	a4,8(sp)
   102e2:	5374                	lw	a3,100(a4)
   102e4:	00c71703          	lh	a4,12(a4)
   102e8:	8a85                	and	a3,a3,1
   102ea:	e689                	bnez	a3,102f4 <_vfprintf_r+0x56>
   102ec:	20077693          	and	a3,a4,512
   102f0:	640686e3          	beqz	a3,1113c <_vfprintf_r+0xe9e>
   102f4:	01271693          	sll	a3,a4,0x12
   102f8:	0006ce63          	bltz	a3,10314 <_vfprintf_r+0x76>
   102fc:	4522                	lw	a0,8(sp)
   102fe:	6589                	lui	a1,0x2
   10300:	7679                	lui	a2,0xffffe
   10302:	5174                	lw	a3,100(a0)
   10304:	8f4d                	or	a4,a4,a1
   10306:	167d                	add	a2,a2,-1 # ffffdfff <__BSS_END__+0xfffe02b7>
   10308:	0742                	sll	a4,a4,0x10
   1030a:	8741                	sra	a4,a4,0x10
   1030c:	8ef1                	and	a3,a3,a2
   1030e:	00e51623          	sh	a4,12(a0)
   10312:	d174                	sw	a3,100(a0)
   10314:	00877693          	and	a3,a4,8
   10318:	1c068e63          	beqz	a3,104f4 <_vfprintf_r+0x256>
   1031c:	46a2                	lw	a3,8(sp)
   1031e:	4a94                	lw	a3,16(a3)
   10320:	1c068a63          	beqz	a3,104f4 <_vfprintf_r+0x256>
   10324:	01a77693          	and	a3,a4,26
   10328:	4629                	li	a2,10
   1032a:	1ec68663          	beq	a3,a2,10516 <_vfprintf_r+0x278>
   1032e:	1178                	add	a4,sp,172
   10330:	17712623          	sw	s7,364(sp)
   10334:	17812423          	sw	s8,360(sp)
   10338:	15b12e23          	sw	s11,348(sp)
   1033c:	18912223          	sw	s1,388(sp)
   10340:	19212023          	sw	s2,384(sp)
   10344:	17412c23          	sw	s4,376(sp)
   10348:	17512a23          	sw	s5,372(sp)
   1034c:	17612823          	sw	s6,368(sp)
   10350:	17912223          	sw	s9,356(sp)
   10354:	17a12023          	sw	s10,352(sp)
   10358:	d13a                	sw	a4,160(sp)
   1035a:	d502                	sw	zero,168(sp)
   1035c:	d302                	sw	zero,164(sp)
   1035e:	cc02                	sw	zero,24(sp)
   10360:	d402                	sw	zero,40(sp)
   10362:	d602                	sw	zero,44(sp)
   10364:	843a                	mv	s0,a4
   10366:	dc02                	sw	zero,56(sp)
   10368:	c082                	sw	zero,64(sp)
   1036a:	de02                	sw	zero,60(sp)
   1036c:	c882                	sw	zero,80(sp)
   1036e:	c682                	sw	zero,76(sp)
   10370:	c602                	sw	zero,12(sp)
   10372:	0000db97          	auipc	s7,0xd
   10376:	caab8b93          	add	s7,s7,-854 # 1d01c <__global_locale>
   1037a:	02500d93          	li	s11,37
   1037e:	8c3e                	mv	s8,a5
   10380:	8962                	mv	s2,s8
   10382:	0e4ba483          	lw	s1,228(s7)
   10386:	199040ef          	jal	14d1e <__locale_mb_cur_max>
   1038a:	86aa                	mv	a3,a0
   1038c:	0918                	add	a4,sp,144
   1038e:	864a                	mv	a2,s2
   10390:	010c                	add	a1,sp,128
   10392:	854e                	mv	a0,s3
   10394:	9482                	jalr	s1
   10396:	1e050a63          	beqz	a0,1058a <_vfprintf_r+0x2ec>
   1039a:	1e054063          	bltz	a0,1057a <_vfprintf_r+0x2dc>
   1039e:	478a                	lw	a5,128(sp)
   103a0:	01b78463          	beq	a5,s11,103a8 <_vfprintf_r+0x10a>
   103a4:	992a                	add	s2,s2,a0
   103a6:	bff1                	j	10382 <_vfprintf_r+0xe4>
   103a8:	84aa                	mv	s1,a0
   103aa:	41890cb3          	sub	s9,s2,s8
   103ae:	1f891363          	bne	s2,s8,10594 <_vfprintf_r+0x2f6>
   103b2:	537d                	li	t1,-1
   103b4:	4e81                	li	t4,0
   103b6:	4f01                	li	t5,0
   103b8:	00194e03          	lbu	t3,1(s2)
   103bc:	06010ba3          	sb	zero,119(sp)
   103c0:	0905                	add	s2,s2,1
   103c2:	05a00493          	li	s1,90
   103c6:	8a7a                	mv	s4,t5
   103c8:	8af6                	mv	s5,t4
   103ca:	8b1a                	mv	s6,t1
   103cc:	0905                	add	s2,s2,1
   103ce:	fe0e0793          	add	a5,t3,-32
   103d2:	04f4e063          	bltu	s1,a5,10412 <_vfprintf_r+0x174>
   103d6:	0000c717          	auipc	a4,0xc
   103da:	ac270713          	add	a4,a4,-1342 # 1be98 <__clzsi2+0x3b8>
   103de:	078a                	sll	a5,a5,0x2
   103e0:	97ba                	add	a5,a5,a4
   103e2:	439c                	lw	a5,0(a5)
   103e4:	97ba                	add	a5,a5,a4
   103e6:	8782                	jr	a5
   103e8:	4a81                	li	s5,0
   103ea:	fd0e0713          	add	a4,t3,-48
   103ee:	46a5                	li	a3,9
   103f0:	00094e03          	lbu	t3,0(s2)
   103f4:	002a9793          	sll	a5,s5,0x2
   103f8:	97d6                	add	a5,a5,s5
   103fa:	0786                	sll	a5,a5,0x1
   103fc:	00f70ab3          	add	s5,a4,a5
   10400:	fd0e0713          	add	a4,t3,-48
   10404:	0905                	add	s2,s2,1
   10406:	fee6f5e3          	bgeu	a3,a4,103f0 <_vfprintf_r+0x152>
   1040a:	fe0e0793          	add	a5,t3,-32
   1040e:	fcf4f4e3          	bgeu	s1,a5,103d6 <_vfprintf_r+0x138>
   10412:	8f52                	mv	t5,s4
   10414:	8ed6                	mv	t4,s5
   10416:	1a0e0263          	beqz	t3,105ba <_vfprintf_r+0x31c>
   1041a:	0fc10623          	sb	t3,236(sp)
   1041e:	06010ba3          	sb	zero,119(sp)
   10422:	4c85                	li	s9,1
   10424:	4601                	li	a2,0
   10426:	c802                	sw	zero,16(sp)
   10428:	4b05                	li	s6,1
   1042a:	4301                	li	t1,0
   1042c:	d202                	sw	zero,36(sp)
   1042e:	d002                	sw	zero,32(sp)
   10430:	4a01                	li	s4,0
   10432:	0ec10c13          	add	s8,sp,236
   10436:	002f7293          	and	t0,t5,2
   1043a:	00028363          	beqz	t0,10440 <_vfprintf_r+0x1a2>
   1043e:	0c89                	add	s9,s9,2
   10440:	084f7d13          	and	s10,t5,132
   10444:	54aa                	lw	s1,168(sp)
   10446:	000d1663          	bnez	s10,10452 <_vfprintf_r+0x1b4>
   1044a:	419e8733          	sub	a4,t4,s9
   1044e:	2ce04563          	bgtz	a4,10718 <_vfprintf_r+0x47a>
   10452:	ce19                	beqz	a2,10470 <_vfprintf_r+0x1d2>
   10454:	571a                	lw	a4,164(sp)
   10456:	07710613          	add	a2,sp,119
   1045a:	0485                	add	s1,s1,1
   1045c:	0705                	add	a4,a4,1
   1045e:	4785                	li	a5,1
   10460:	c010                	sw	a2,0(s0)
   10462:	c05c                	sw	a5,4(s0)
   10464:	d526                	sw	s1,168(sp)
   10466:	d33a                	sw	a4,164(sp)
   10468:	461d                	li	a2,7
   1046a:	0421                	add	s0,s0,8
   1046c:	32e64f63          	blt	a2,a4,107aa <_vfprintf_r+0x50c>
   10470:	00028f63          	beqz	t0,1048e <_vfprintf_r+0x1f0>
   10474:	571a                	lw	a4,164(sp)
   10476:	18b0                	add	a2,sp,120
   10478:	c010                	sw	a2,0(s0)
   1047a:	0489                	add	s1,s1,2
   1047c:	4609                	li	a2,2
   1047e:	0705                	add	a4,a4,1
   10480:	c050                	sw	a2,4(s0)
   10482:	d526                	sw	s1,168(sp)
   10484:	d33a                	sw	a4,164(sp)
   10486:	461d                	li	a2,7
   10488:	0421                	add	s0,s0,8
   1048a:	28e646e3          	blt	a2,a4,10f16 <_vfprintf_r+0xc78>
   1048e:	08000713          	li	a4,128
   10492:	06ed06e3          	beq	s10,a4,10cfe <_vfprintf_r+0xa60>
   10496:	41630ab3          	sub	s5,t1,s6
   1049a:	11504de3          	bgtz	s5,10db4 <_vfprintf_r+0xb16>
   1049e:	100f7713          	and	a4,t5,256
   104a2:	70071063          	bnez	a4,10ba2 <_vfprintf_r+0x904>
   104a6:	579a                	lw	a5,164(sp)
   104a8:	94da                	add	s1,s1,s6
   104aa:	01842023          	sw	s8,0(s0)
   104ae:	0785                	add	a5,a5,1
   104b0:	01642223          	sw	s6,4(s0)
   104b4:	d526                	sw	s1,168(sp)
   104b6:	d33e                	sw	a5,164(sp)
   104b8:	471d                	li	a4,7
   104ba:	34f74c63          	blt	a4,a5,10812 <_vfprintf_r+0x574>
   104be:	0421                	add	s0,s0,8
   104c0:	004f7f13          	and	t5,t5,4
   104c4:	000f0663          	beqz	t5,104d0 <_vfprintf_r+0x232>
   104c8:	419e8d33          	sub	s10,t4,s9
   104cc:	37a04163          	bgtz	s10,1082e <_vfprintf_r+0x590>
   104d0:	019ed363          	bge	t4,s9,104d6 <_vfprintf_r+0x238>
   104d4:	8ee6                	mv	t4,s9
   104d6:	47b2                	lw	a5,12(sp)
   104d8:	97f6                	add	a5,a5,t4
   104da:	c63e                	sw	a5,12(sp)
   104dc:	10049063          	bnez	s1,105dc <_vfprintf_r+0x33e>
   104e0:	47c2                	lw	a5,16(sp)
   104e2:	d302                	sw	zero,164(sp)
   104e4:	c789                	beqz	a5,104ee <_vfprintf_r+0x250>
   104e6:	45c2                	lw	a1,16(sp)
   104e8:	854e                	mv	a0,s3
   104ea:	1dc060ef          	jal	166c6 <_free_r>
   104ee:	1160                	add	s0,sp,172
   104f0:	8c4a                	mv	s8,s2
   104f2:	b579                	j	10380 <_vfprintf_r+0xe2>
   104f4:	4422                	lw	s0,8(sp)
   104f6:	854e                	mv	a0,s3
   104f8:	c63e                	sw	a5,12(sp)
   104fa:	85a2                	mv	a1,s0
   104fc:	283030ef          	jal	13f7e <__swsetup_r>
   10500:	c119                	beqz	a0,10506 <_vfprintf_r+0x268>
   10502:	2e50106f          	j	11fe6 <_vfprintf_r+0x1d48>
   10506:	00c41703          	lh	a4,12(s0)
   1050a:	4629                	li	a2,10
   1050c:	47b2                	lw	a5,12(sp)
   1050e:	01a77693          	and	a3,a4,26
   10512:	e0c69ee3          	bne	a3,a2,1032e <_vfprintf_r+0x90>
   10516:	4622                	lw	a2,8(sp)
   10518:	00e61683          	lh	a3,14(a2)
   1051c:	e006c9e3          	bltz	a3,1032e <_vfprintf_r+0x90>
   10520:	5274                	lw	a3,100(a2)
   10522:	8a85                	and	a3,a3,1
   10524:	e691                	bnez	a3,10530 <_vfprintf_r+0x292>
   10526:	20077713          	and	a4,a4,512
   1052a:	e319                	bnez	a4,10530 <_vfprintf_r+0x292>
   1052c:	4c80106f          	j	119f4 <_vfprintf_r+0x1756>
   10530:	46d2                	lw	a3,20(sp)
   10532:	45a2                	lw	a1,8(sp)
   10534:	854e                	mv	a0,s3
   10536:	863e                	mv	a2,a5
   10538:	56f010ef          	jal	122a6 <__sbprintf>
   1053c:	18c12083          	lw	ra,396(sp)
   10540:	18812403          	lw	s0,392(sp)
   10544:	c62a                	sw	a0,12(sp)
   10546:	4532                	lw	a0,12(sp)
   10548:	17c12983          	lw	s3,380(sp)
   1054c:	6159                	add	sp,sp,400
   1054e:	8082                	ret
   10550:	854e                	mv	a0,s3
   10552:	7e4040ef          	jal	14d36 <_localeconv_r>
   10556:	415c                	lw	a5,4(a0)
   10558:	853e                	mv	a0,a5
   1055a:	c6be                	sw	a5,76(sp)
   1055c:	2a1040ef          	jal	14ffc <strlen>
   10560:	87aa                	mv	a5,a0
   10562:	854e                	mv	a0,s3
   10564:	8cbe                	mv	s9,a5
   10566:	c8be                	sw	a5,80(sp)
   10568:	7ce040ef          	jal	14d36 <_localeconv_r>
   1056c:	4518                	lw	a4,8(a0)
   1056e:	de3a                	sw	a4,60(sp)
   10570:	480c93e3          	bnez	s9,111f6 <_vfprintf_r+0xf58>
   10574:	00094e03          	lbu	t3,0(s2)
   10578:	bd91                	j	103cc <_vfprintf_r+0x12e>
   1057a:	4621                	li	a2,8
   1057c:	4581                	li	a1,0
   1057e:	0908                	add	a0,sp,144
   10580:	08f040ef          	jal	14e0e <memset>
   10584:	4505                	li	a0,1
   10586:	992a                	add	s2,s2,a0
   10588:	bbed                	j	10382 <_vfprintf_r+0xe4>
   1058a:	84aa                	mv	s1,a0
   1058c:	41890cb3          	sub	s9,s2,s8
   10590:	03890563          	beq	s2,s8,105ba <_vfprintf_r+0x31c>
   10594:	56aa                	lw	a3,168(sp)
   10596:	571a                	lw	a4,164(sp)
   10598:	01842023          	sw	s8,0(s0)
   1059c:	96e6                	add	a3,a3,s9
   1059e:	0705                	add	a4,a4,1
   105a0:	01942223          	sw	s9,4(s0)
   105a4:	d536                	sw	a3,168(sp)
   105a6:	d33a                	sw	a4,164(sp)
   105a8:	469d                	li	a3,7
   105aa:	0421                	add	s0,s0,8
   105ac:	02e6c063          	blt	a3,a4,105cc <_vfprintf_r+0x32e>
   105b0:	47b2                	lw	a5,12(sp)
   105b2:	97e6                	add	a5,a5,s9
   105b4:	c63e                	sw	a5,12(sp)
   105b6:	de049ee3          	bnez	s1,103b2 <_vfprintf_r+0x114>
   105ba:	57aa                	lw	a5,168(sp)
   105bc:	c399                	beqz	a5,105c2 <_vfprintf_r+0x324>
   105be:	3c60106f          	j	11984 <_vfprintf_r+0x16e6>
   105c2:	47a2                	lw	a5,8(sp)
   105c4:	d302                	sw	zero,164(sp)
   105c6:	00c79783          	lh	a5,12(a5)
   105ca:	a815                	j	105fe <_vfprintf_r+0x360>
   105cc:	45a2                	lw	a1,8(sp)
   105ce:	1110                	add	a2,sp,160
   105d0:	854e                	mv	a0,s3
   105d2:	641010ef          	jal	12412 <__sprint_r>
   105d6:	e10d                	bnez	a0,105f8 <_vfprintf_r+0x35a>
   105d8:	1160                	add	s0,sp,172
   105da:	bfd9                	j	105b0 <_vfprintf_r+0x312>
   105dc:	45a2                	lw	a1,8(sp)
   105de:	1110                	add	a2,sp,160
   105e0:	854e                	mv	a0,s3
   105e2:	631010ef          	jal	12412 <__sprint_r>
   105e6:	ee050de3          	beqz	a0,104e0 <_vfprintf_r+0x242>
   105ea:	4f42                	lw	t5,16(sp)
   105ec:	000f0663          	beqz	t5,105f8 <_vfprintf_r+0x35a>
   105f0:	85fa                	mv	a1,t5
   105f2:	854e                	mv	a0,s3
   105f4:	0d2060ef          	jal	166c6 <_free_r>
   105f8:	47a2                	lw	a5,8(sp)
   105fa:	00c79783          	lh	a5,12(a5)
   105fe:	4722                	lw	a4,8(sp)
   10600:	5378                	lw	a4,100(a4)
   10602:	8b05                	and	a4,a4,1
   10604:	2a070563          	beqz	a4,108ae <_vfprintf_r+0x610>
   10608:	0407f793          	and	a5,a5,64
   1060c:	18412483          	lw	s1,388(sp)
   10610:	18012903          	lw	s2,384(sp)
   10614:	17812a03          	lw	s4,376(sp)
   10618:	17412a83          	lw	s5,372(sp)
   1061c:	17012b03          	lw	s6,368(sp)
   10620:	16c12b83          	lw	s7,364(sp)
   10624:	16812c03          	lw	s8,360(sp)
   10628:	16412c83          	lw	s9,356(sp)
   1062c:	16012d03          	lw	s10,352(sp)
   10630:	15c12d83          	lw	s11,348(sp)
   10634:	c399                	beqz	a5,1063a <_vfprintf_r+0x39c>
   10636:	1cd0106f          	j	12002 <_vfprintf_r+0x1d64>
   1063a:	18c12083          	lw	ra,396(sp)
   1063e:	18812403          	lw	s0,392(sp)
   10642:	4532                	lw	a0,12(sp)
   10644:	17c12983          	lw	s3,380(sp)
   10648:	6159                	add	sp,sp,400
   1064a:	8082                	ret
   1064c:	008a7713          	and	a4,s4,8
   10650:	8f52                	mv	t5,s4
   10652:	8ed6                	mv	t4,s5
   10654:	835a                	mv	t1,s6
   10656:	3a071de3          	bnez	a4,11210 <_vfprintf_r+0xf72>
   1065a:	47d2                	lw	a5,20(sp)
   1065c:	00778a93          	add	s5,a5,7
   10660:	ff8afa93          	and	s5,s5,-8
   10664:	000aa783          	lw	a5,0(s5)
   10668:	d43e                	sw	a5,40(sp)
   1066a:	004aa783          	lw	a5,4(s5)
   1066e:	d63e                	sw	a5,44(sp)
   10670:	008a8793          	add	a5,s5,8
   10674:	ca3e                	sw	a5,20(sp)
   10676:	5a32                	lw	s4,44(sp)
   10678:	0000d717          	auipc	a4,0xd
   1067c:	05870713          	add	a4,a4,88 # 1d6d0 <__SDATA_BEGIN__>
   10680:	00072c83          	lw	s9,0(a4)
   10684:	00472d03          	lw	s10,4(a4)
   10688:	5aa2                	lw	s5,40(sp)
   1068a:	001a1493          	sll	s1,s4,0x1
   1068e:	8085                	srl	s1,s1,0x1
   10690:	8556                	mv	a0,s5
   10692:	85a6                	mv	a1,s1
   10694:	8666                	mv	a2,s9
   10696:	86ea                	mv	a3,s10
   10698:	c29a                	sw	t1,68(sp)
   1069a:	d276                	sw	t4,36(sp)
   1069c:	d072                	sw	t3,32(sp)
   1069e:	c87a                	sw	t5,16(sp)
   106a0:	0180b0ef          	jal	1b6b8 <__unorddf2>
   106a4:	4f42                	lw	t5,16(sp)
   106a6:	5e02                	lw	t3,32(sp)
   106a8:	5e92                	lw	t4,36(sp)
   106aa:	4316                	lw	t1,68(sp)
   106ac:	68051be3          	bnez	a0,11542 <_vfprintf_r+0x12a4>
   106b0:	8556                	mv	a0,s5
   106b2:	85a6                	mv	a1,s1
   106b4:	8666                	mv	a2,s9
   106b6:	86ea                	mv	a3,s10
   106b8:	2d20a0ef          	jal	1a98a <__ledf2>
   106bc:	4f42                	lw	t5,16(sp)
   106be:	5e02                	lw	t3,32(sp)
   106c0:	5e92                	lw	t4,36(sp)
   106c2:	4316                	lw	t1,68(sp)
   106c4:	66a05fe3          	blez	a0,11542 <_vfprintf_r+0x12a4>
   106c8:	8556                	mv	a0,s5
   106ca:	85d2                	mv	a1,s4
   106cc:	4601                	li	a2,0
   106ce:	4681                	li	a3,0
   106d0:	2ba0a0ef          	jal	1a98a <__ledf2>
   106d4:	4f42                	lw	t5,16(sp)
   106d6:	5e02                	lw	t3,32(sp)
   106d8:	5e92                	lw	t4,36(sp)
   106da:	00055463          	bgez	a0,106e2 <_vfprintf_r+0x444>
   106de:	74e0106f          	j	11e2c <_vfprintf_r+0x1b8e>
   106e2:	07714603          	lbu	a2,119(sp)
   106e6:	04700713          	li	a4,71
   106ea:	0000bc17          	auipc	s8,0xb
   106ee:	476c0c13          	add	s8,s8,1142 # 1bb60 <__clzsi2+0x80>
   106f2:	01c74663          	blt	a4,t3,106fe <_vfprintf_r+0x460>
   106f6:	0000bc17          	auipc	s8,0xb
   106fa:	466c0c13          	add	s8,s8,1126 # 1bb5c <__clzsi2+0x7c>
   106fe:	c802                	sw	zero,16(sp)
   10700:	d202                	sw	zero,36(sp)
   10702:	d002                	sw	zero,32(sp)
   10704:	f7ff7f13          	and	t5,t5,-129
   10708:	4c8d                	li	s9,3
   1070a:	4b0d                	li	s6,3
   1070c:	4301                	li	t1,0
   1070e:	4a01                	li	s4,0
   10710:	d20603e3          	beqz	a2,10436 <_vfprintf_r+0x198>
   10714:	0c85                	add	s9,s9,1
   10716:	b305                	j	10436 <_vfprintf_r+0x198>
   10718:	45c1                	li	a1,16
   1071a:	561a                	lw	a2,164(sp)
   1071c:	0000ca97          	auipc	s5,0xc
   10720:	990a8a93          	add	s5,s5,-1648 # 1c0ac <blanks.1>
   10724:	06e5d563          	bge	a1,a4,1078e <_vfprintf_r+0x4f0>
   10728:	87a2                	mv	a5,s0
   1072a:	86a6                	mv	a3,s1
   1072c:	48c1                	li	a7,16
   1072e:	84d6                	mv	s1,s5
   10730:	439d                	li	t2,7
   10732:	8ad2                	mv	s5,s4
   10734:	c296                	sw	t0,68(sp)
   10736:	c4fa                	sw	t5,72(sp)
   10738:	caf2                	sw	t3,84(sp)
   1073a:	ccf6                	sw	t4,88(sp)
   1073c:	843a                	mv	s0,a4
   1073e:	8a1a                	mv	s4,t1
   10740:	a021                	j	10748 <_vfprintf_r+0x4aa>
   10742:	1441                	add	s0,s0,-16
   10744:	0288db63          	bge	a7,s0,1077a <_vfprintf_r+0x4dc>
   10748:	06c1                	add	a3,a3,16
   1074a:	0605                	add	a2,a2,1
   1074c:	c384                	sw	s1,0(a5)
   1074e:	0117a223          	sw	a7,4(a5)
   10752:	d536                	sw	a3,168(sp)
   10754:	d332                	sw	a2,164(sp)
   10756:	07a1                	add	a5,a5,8
   10758:	fec3d5e3          	bge	t2,a2,10742 <_vfprintf_r+0x4a4>
   1075c:	45a2                	lw	a1,8(sp)
   1075e:	1110                	add	a2,sp,160
   10760:	854e                	mv	a0,s3
   10762:	4b1010ef          	jal	12412 <__sprint_r>
   10766:	e80512e3          	bnez	a0,105ea <_vfprintf_r+0x34c>
   1076a:	48c1                	li	a7,16
   1076c:	1441                	add	s0,s0,-16
   1076e:	56aa                	lw	a3,168(sp)
   10770:	561a                	lw	a2,164(sp)
   10772:	117c                	add	a5,sp,172
   10774:	439d                	li	t2,7
   10776:	fc88c9e3          	blt	a7,s0,10748 <_vfprintf_r+0x4aa>
   1077a:	4296                	lw	t0,68(sp)
   1077c:	4f26                	lw	t5,72(sp)
   1077e:	4e56                	lw	t3,84(sp)
   10780:	4ee6                	lw	t4,88(sp)
   10782:	8352                	mv	t1,s4
   10784:	8722                	mv	a4,s0
   10786:	8a56                	mv	s4,s5
   10788:	843e                	mv	s0,a5
   1078a:	8aa6                	mv	s5,s1
   1078c:	84b6                	mv	s1,a3
   1078e:	94ba                	add	s1,s1,a4
   10790:	0605                	add	a2,a2,1
   10792:	c058                	sw	a4,4(s0)
   10794:	01542023          	sw	s5,0(s0)
   10798:	d526                	sw	s1,168(sp)
   1079a:	d332                	sw	a2,164(sp)
   1079c:	471d                	li	a4,7
   1079e:	56c745e3          	blt	a4,a2,11508 <_vfprintf_r+0x126a>
   107a2:	07714603          	lbu	a2,119(sp)
   107a6:	0421                	add	s0,s0,8
   107a8:	b16d                	j	10452 <_vfprintf_r+0x1b4>
   107aa:	45a2                	lw	a1,8(sp)
   107ac:	1110                	add	a2,sp,160
   107ae:	854e                	mv	a0,s3
   107b0:	ce9a                	sw	t1,92(sp)
   107b2:	ccf6                	sw	t4,88(sp)
   107b4:	caf2                	sw	t3,84(sp)
   107b6:	c4fa                	sw	t5,72(sp)
   107b8:	c296                	sw	t0,68(sp)
   107ba:	459010ef          	jal	12412 <__sprint_r>
   107be:	e20516e3          	bnez	a0,105ea <_vfprintf_r+0x34c>
   107c2:	54aa                	lw	s1,168(sp)
   107c4:	4376                	lw	t1,92(sp)
   107c6:	4ee6                	lw	t4,88(sp)
   107c8:	4e56                	lw	t3,84(sp)
   107ca:	4f26                	lw	t5,72(sp)
   107cc:	4296                	lw	t0,68(sp)
   107ce:	1160                	add	s0,sp,172
   107d0:	b145                	j	10470 <_vfprintf_r+0x1d2>
   107d2:	5752                	lw	a4,52(sp)
   107d4:	57c2                	lw	a5,48(sp)
   107d6:	469d                	li	a3,7
   107d8:	c018                	sw	a4,0(s0)
   107da:	571a                	lw	a4,164(sp)
   107dc:	009785b3          	add	a1,a5,s1
   107e0:	c05c                	sw	a5,4(s0)
   107e2:	0705                	add	a4,a4,1
   107e4:	d52e                	sw	a1,168(sp)
   107e6:	d33a                	sw	a4,164(sp)
   107e8:	0421                	add	s0,s0,8
   107ea:	00e6d463          	bge	a3,a4,107f2 <_vfprintf_r+0x554>
   107ee:	1e20106f          	j	119d0 <_vfprintf_r+0x1732>
   107f2:	00065463          	bgez	a2,107fa <_vfprintf_r+0x55c>
   107f6:	0150106f          	j	1200a <_vfprintf_r+0x1d6c>
   107fa:	47e2                	lw	a5,24(sp)
   107fc:	0705                	add	a4,a4,1
   107fe:	01842023          	sw	s8,0(s0)
   10802:	00b784b3          	add	s1,a5,a1
   10806:	c05c                	sw	a5,4(s0)
   10808:	d526                	sw	s1,168(sp)
   1080a:	d33a                	sw	a4,164(sp)
   1080c:	479d                	li	a5,7
   1080e:	cae7d8e3          	bge	a5,a4,104be <_vfprintf_r+0x220>
   10812:	45a2                	lw	a1,8(sp)
   10814:	1110                	add	a2,sp,160
   10816:	854e                	mv	a0,s3
   10818:	d276                	sw	t4,36(sp)
   1081a:	d07a                	sw	t5,32(sp)
   1081c:	3f7010ef          	jal	12412 <__sprint_r>
   10820:	dc0515e3          	bnez	a0,105ea <_vfprintf_r+0x34c>
   10824:	54aa                	lw	s1,168(sp)
   10826:	5f02                	lw	t5,32(sp)
   10828:	5e92                	lw	t4,36(sp)
   1082a:	1160                	add	s0,sp,172
   1082c:	b951                	j	104c0 <_vfprintf_r+0x222>
   1082e:	4741                	li	a4,16
   10830:	579a                	lw	a5,164(sp)
   10832:	0000ca97          	auipc	s5,0xc
   10836:	87aa8a93          	add	s5,s5,-1926 # 1c0ac <blanks.1>
   1083a:	05a75463          	bge	a4,s10,10882 <_vfprintf_r+0x5e4>
   1083e:	8c56                	mv	s8,s5
   10840:	4b41                	li	s6,16
   10842:	4a1d                	li	s4,7
   10844:	8af6                	mv	s5,t4
   10846:	a021                	j	1084e <_vfprintf_r+0x5b0>
   10848:	1d41                	add	s10,s10,-16
   1084a:	03ab5a63          	bge	s6,s10,1087e <_vfprintf_r+0x5e0>
   1084e:	04c1                	add	s1,s1,16
   10850:	0785                	add	a5,a5,1
   10852:	01842023          	sw	s8,0(s0)
   10856:	01642223          	sw	s6,4(s0)
   1085a:	d526                	sw	s1,168(sp)
   1085c:	d33e                	sw	a5,164(sp)
   1085e:	0421                	add	s0,s0,8
   10860:	fefa54e3          	bge	s4,a5,10848 <_vfprintf_r+0x5aa>
   10864:	45a2                	lw	a1,8(sp)
   10866:	1110                	add	a2,sp,160
   10868:	854e                	mv	a0,s3
   1086a:	3a9010ef          	jal	12412 <__sprint_r>
   1086e:	d6051ee3          	bnez	a0,105ea <_vfprintf_r+0x34c>
   10872:	1d41                	add	s10,s10,-16
   10874:	54aa                	lw	s1,168(sp)
   10876:	579a                	lw	a5,164(sp)
   10878:	1160                	add	s0,sp,172
   1087a:	fdab4ae3          	blt	s6,s10,1084e <_vfprintf_r+0x5b0>
   1087e:	8ed6                	mv	t4,s5
   10880:	8ae2                	mv	s5,s8
   10882:	94ea                	add	s1,s1,s10
   10884:	0785                	add	a5,a5,1
   10886:	01542023          	sw	s5,0(s0)
   1088a:	01a42223          	sw	s10,4(s0)
   1088e:	d526                	sw	s1,168(sp)
   10890:	d33e                	sw	a5,164(sp)
   10892:	471d                	li	a4,7
   10894:	c2f75ee3          	bge	a4,a5,104d0 <_vfprintf_r+0x232>
   10898:	45a2                	lw	a1,8(sp)
   1089a:	1110                	add	a2,sp,160
   1089c:	854e                	mv	a0,s3
   1089e:	d076                	sw	t4,32(sp)
   108a0:	373010ef          	jal	12412 <__sprint_r>
   108a4:	d40513e3          	bnez	a0,105ea <_vfprintf_r+0x34c>
   108a8:	54aa                	lw	s1,168(sp)
   108aa:	5e82                	lw	t4,32(sp)
   108ac:	b115                	j	104d0 <_vfprintf_r+0x232>
   108ae:	2007f713          	and	a4,a5,512
   108b2:	d4071be3          	bnez	a4,10608 <_vfprintf_r+0x36a>
   108b6:	4422                	lw	s0,8(sp)
   108b8:	4c28                	lw	a0,88(s0)
   108ba:	1f5040ef          	jal	152ae <__retarget_lock_release_recursive>
   108be:	00c41783          	lh	a5,12(s0)
   108c2:	b399                	j	10608 <_vfprintf_r+0x36a>
   108c4:	00094e03          	lbu	t3,0(s2)
   108c8:	020a6a13          	or	s4,s4,32
   108cc:	b601                	j	103cc <_vfprintf_r+0x12e>
   108ce:	4752                	lw	a4,20(sp)
   108d0:	04300793          	li	a5,67
   108d4:	8f52                	mv	t5,s4
   108d6:	8ed6                	mv	t4,s5
   108d8:	00470493          	add	s1,a4,4
   108dc:	26fe07e3          	beq	t3,a5,1134a <_vfprintf_r+0x10ac>
   108e0:	010a7793          	and	a5,s4,16
   108e4:	260793e3          	bnez	a5,1134a <_vfprintf_r+0x10ac>
   108e8:	47d2                	lw	a5,20(sp)
   108ea:	4c85                	li	s9,1
   108ec:	4b05                	li	s6,1
   108ee:	439c                	lw	a5,0(a5)
   108f0:	0ec10c13          	add	s8,sp,236
   108f4:	0ef10623          	sb	a5,236(sp)
   108f8:	06010ba3          	sb	zero,119(sp)
   108fc:	ca26                	sw	s1,20(sp)
   108fe:	4601                	li	a2,0
   10900:	c802                	sw	zero,16(sp)
   10902:	4301                	li	t1,0
   10904:	d202                	sw	zero,36(sp)
   10906:	d002                	sw	zero,32(sp)
   10908:	4a01                	li	s4,0
   1090a:	b635                	j	10436 <_vfprintf_r+0x198>
   1090c:	47d2                	lw	a5,20(sp)
   1090e:	06010ba3          	sb	zero,119(sp)
   10912:	8ed6                	mv	t4,s5
   10914:	0007ac03          	lw	s8,0(a5)
   10918:	8f52                	mv	t5,s4
   1091a:	835a                	mv	t1,s6
   1091c:	00478a93          	add	s5,a5,4
   10920:	200c03e3          	beqz	s8,11326 <_vfprintf_r+0x1088>
   10924:	05300713          	li	a4,83
   10928:	52ee07e3          	beq	t3,a4,11656 <_vfprintf_r+0x13b8>
   1092c:	010a7a13          	and	s4,s4,16
   10930:	520a13e3          	bnez	s4,11656 <_vfprintf_r+0x13b8>
   10934:	000b5463          	bgez	s6,1093c <_vfprintf_r+0x69e>
   10938:	0600106f          	j	11998 <_vfprintf_r+0x16fa>
   1093c:	865a                	mv	a2,s6
   1093e:	4581                	li	a1,0
   10940:	8562                	mv	a0,s8
   10942:	d276                	sw	t4,36(sp)
   10944:	d07a                	sw	t5,32(sp)
   10946:	ca5a                	sw	s6,20(sp)
   10948:	710030ef          	jal	14058 <memchr>
   1094c:	c82a                	sw	a0,16(sp)
   1094e:	4352                	lw	t1,20(sp)
   10950:	5f02                	lw	t5,32(sp)
   10952:	5e92                	lw	t4,36(sp)
   10954:	e119                	bnez	a0,1095a <_vfprintf_r+0x6bc>
   10956:	03f0106f          	j	12194 <_vfprintf_r+0x1ef6>
   1095a:	47c2                	lw	a5,16(sp)
   1095c:	07714603          	lbu	a2,119(sp)
   10960:	ca56                	sw	s5,20(sp)
   10962:	41878b33          	sub	s6,a5,s8
   10966:	fffb4813          	not	a6,s6
   1096a:	41f85813          	sra	a6,a6,0x1f
   1096e:	d202                	sw	zero,36(sp)
   10970:	d002                	sw	zero,32(sp)
   10972:	c802                	sw	zero,16(sp)
   10974:	010b7cb3          	and	s9,s6,a6
   10978:	4301                	li	t1,0
   1097a:	07300e13          	li	t3,115
   1097e:	aa060ce3          	beqz	a2,10436 <_vfprintf_r+0x198>
   10982:	bb49                	j	10714 <_vfprintf_r+0x476>
   10984:	47d2                	lw	a5,20(sp)
   10986:	0007aa83          	lw	s5,0(a5)
   1098a:	0791                	add	a5,a5,4
   1098c:	7c0adb63          	bgez	s5,11162 <_vfprintf_r+0xec4>
   10990:	41500ab3          	neg	s5,s5
   10994:	ca3e                	sw	a5,20(sp)
   10996:	00094e03          	lbu	t3,0(s2)
   1099a:	004a6a13          	or	s4,s4,4
   1099e:	b43d                	j	103cc <_vfprintf_r+0x12e>
   109a0:	00094e03          	lbu	t3,0(s2)
   109a4:	06c00793          	li	a5,108
   109a8:	12fe05e3          	beq	t3,a5,112d2 <_vfprintf_r+0x1034>
   109ac:	010a6a13          	or	s4,s4,16
   109b0:	bc31                	j	103cc <_vfprintf_r+0x12e>
   109b2:	00094e03          	lbu	t3,0(s2)
   109b6:	06800793          	li	a5,104
   109ba:	12fe03e3          	beq	t3,a5,112e0 <_vfprintf_r+0x1042>
   109be:	040a6a13          	or	s4,s4,64
   109c2:	b429                	j	103cc <_vfprintf_r+0x12e>
   109c4:	02b00793          	li	a5,43
   109c8:	00094e03          	lbu	t3,0(s2)
   109cc:	06f10ba3          	sb	a5,119(sp)
   109d0:	baf5                	j	103cc <_vfprintf_r+0x12e>
   109d2:	00094e03          	lbu	t3,0(s2)
   109d6:	080a6a13          	or	s4,s4,128
   109da:	bacd                	j	103cc <_vfprintf_r+0x12e>
   109dc:	00094e03          	lbu	t3,0(s2)
   109e0:	02a00793          	li	a5,42
   109e4:	00190693          	add	a3,s2,1
   109e8:	00fe1463          	bne	t3,a5,109f0 <_vfprintf_r+0x752>
   109ec:	05d0106f          	j	12248 <_vfprintf_r+0x1faa>
   109f0:	fd0e0713          	add	a4,t3,-48
   109f4:	47a5                	li	a5,9
   109f6:	4b01                	li	s6,0
   109f8:	4625                	li	a2,9
   109fa:	02e7e163          	bltu	a5,a4,10a1c <_vfprintf_r+0x77e>
   109fe:	0006ce03          	lbu	t3,0(a3)
   10a02:	002b1793          	sll	a5,s6,0x2
   10a06:	97da                	add	a5,a5,s6
   10a08:	0786                	sll	a5,a5,0x1
   10a0a:	00e78b33          	add	s6,a5,a4
   10a0e:	fd0e0713          	add	a4,t3,-48
   10a12:	0685                	add	a3,a3,1
   10a14:	fee675e3          	bgeu	a2,a4,109fe <_vfprintf_r+0x760>
   10a18:	040b4ae3          	bltz	s6,1126c <_vfprintf_r+0xfce>
   10a1c:	8936                	mv	s2,a3
   10a1e:	ba45                	j	103ce <_vfprintf_r+0x130>
   10a20:	00094e03          	lbu	t3,0(s2)
   10a24:	001a6a13          	or	s4,s4,1
   10a28:	b255                	j	103cc <_vfprintf_r+0x12e>
   10a2a:	07714783          	lbu	a5,119(sp)
   10a2e:	00094e03          	lbu	t3,0(s2)
   10a32:	98079de3          	bnez	a5,103cc <_vfprintf_r+0x12e>
   10a36:	02000793          	li	a5,32
   10a3a:	06f10ba3          	sb	a5,119(sp)
   10a3e:	b279                	j	103cc <_vfprintf_r+0x12e>
   10a40:	8ed6                	mv	t4,s5
   10a42:	835a                	mv	t1,s6
   10a44:	010a6f13          	or	t5,s4,16
   10a48:	020f7793          	and	a5,t5,32
   10a4c:	6c078a63          	beqz	a5,11120 <_vfprintf_r+0xe82>
   10a50:	47d2                	lw	a5,20(sp)
   10a52:	00778a93          	add	s5,a5,7
   10a56:	ff8afa93          	and	s5,s5,-8
   10a5a:	000aa483          	lw	s1,0(s5)
   10a5e:	004aac83          	lw	s9,4(s5)
   10a62:	008a8793          	add	a5,s5,8
   10a66:	ca3e                	sw	a5,20(sp)
   10a68:	bfff7d13          	and	s10,t5,-1025
   10a6c:	4781                	li	a5,0
   10a6e:	4701                	li	a4,0
   10a70:	06e10ba3          	sb	a4,119(sp)
   10a74:	1e034a63          	bltz	t1,10c68 <_vfprintf_r+0x9ca>
   10a78:	0194e733          	or	a4,s1,s9
   10a7c:	f7fd7f13          	and	t5,s10,-129
   10a80:	1e071363          	bnez	a4,10c66 <_vfprintf_r+0x9c8>
   10a84:	22031b63          	bnez	t1,10cba <_vfprintf_r+0xa1c>
   10a88:	14079be3          	bnez	a5,113de <_vfprintf_r+0x1140>
   10a8c:	001d7b13          	and	s6,s10,1
   10a90:	15010c13          	add	s8,sp,336
   10a94:	720b1463          	bnez	s6,111bc <_vfprintf_r+0xf1e>
   10a98:	07714603          	lbu	a2,119(sp)
   10a9c:	8c9a                	mv	s9,t1
   10a9e:	01635363          	bge	t1,s6,10aa4 <_vfprintf_r+0x806>
   10aa2:	8cda                	mv	s9,s6
   10aa4:	c802                	sw	zero,16(sp)
   10aa6:	d202                	sw	zero,36(sp)
   10aa8:	d002                	sw	zero,32(sp)
   10aaa:	4a01                	li	s4,0
   10aac:	980605e3          	beqz	a2,10436 <_vfprintf_r+0x198>
   10ab0:	b195                	j	10714 <_vfprintf_r+0x476>
   10ab2:	8ed6                	mv	t4,s5
   10ab4:	835a                	mv	t1,s6
   10ab6:	010a6d13          	or	s10,s4,16
   10aba:	020d7793          	and	a5,s10,32
   10abe:	64078263          	beqz	a5,11102 <_vfprintf_r+0xe64>
   10ac2:	47d2                	lw	a5,20(sp)
   10ac4:	00778a93          	add	s5,a5,7
   10ac8:	ff8afa93          	and	s5,s5,-8
   10acc:	008a8793          	add	a5,s5,8
   10ad0:	ca3e                	sw	a5,20(sp)
   10ad2:	000aa483          	lw	s1,0(s5)
   10ad6:	004aac83          	lw	s9,4(s5)
   10ada:	4785                	li	a5,1
   10adc:	bf49                	j	10a6e <_vfprintf_r+0x7d0>
   10ade:	00094e03          	lbu	t3,0(s2)
   10ae2:	008a6a13          	or	s4,s4,8
   10ae6:	b0dd                	j	103cc <_vfprintf_r+0x12e>
   10ae8:	8ed6                	mv	t4,s5
   10aea:	835a                	mv	t1,s6
   10aec:	010a6f13          	or	t5,s4,16
   10af0:	020f7793          	and	a5,t5,32
   10af4:	5c078763          	beqz	a5,110c2 <_vfprintf_r+0xe24>
   10af8:	47d2                	lw	a5,20(sp)
   10afa:	00778a93          	add	s5,a5,7
   10afe:	ff8afa93          	and	s5,s5,-8
   10b02:	004aa783          	lw	a5,4(s5)
   10b06:	000aa483          	lw	s1,0(s5)
   10b0a:	008a8713          	add	a4,s5,8
   10b0e:	ca3a                	sw	a4,20(sp)
   10b10:	8cbe                	mv	s9,a5
   10b12:	5c07cb63          	bltz	a5,110e8 <_vfprintf_r+0xe4a>
   10b16:	8d7a                	mv	s10,t5
   10b18:	00034e63          	bltz	t1,10b34 <_vfprintf_r+0x896>
   10b1c:	0194e7b3          	or	a5,s1,s9
   10b20:	f7ff7d13          	and	s10,t5,-129
   10b24:	eb81                	bnez	a5,10b34 <_vfprintf_r+0x896>
   10b26:	00031c63          	bnez	t1,10b3e <_vfprintf_r+0x8a0>
   10b2a:	4b01                	li	s6,0
   10b2c:	8f6a                	mv	t5,s10
   10b2e:	15010c13          	add	s8,sp,336
   10b32:	b79d                	j	10a98 <_vfprintf_r+0x7fa>
   10b34:	100c90e3          	bnez	s9,11434 <_vfprintf_r+0x1196>
   10b38:	47a5                	li	a5,9
   10b3a:	0e97ede3          	bltu	a5,s1,11434 <_vfprintf_r+0x1196>
   10b3e:	03048493          	add	s1,s1,48
   10b42:	149107a3          	sb	s1,335(sp)
   10b46:	8f6a                	mv	t5,s10
   10b48:	4b05                	li	s6,1
   10b4a:	14f10c13          	add	s8,sp,335
   10b4e:	b7a9                	j	10a98 <_vfprintf_r+0x7fa>
   10b50:	4752                	lw	a4,20(sp)
   10b52:	67a1                	lui	a5,0x8
   10b54:	83078793          	add	a5,a5,-2000 # 7830 <exit-0x8864>
   10b58:	06f11c23          	sh	a5,120(sp)
   10b5c:	00470793          	add	a5,a4,4
   10b60:	ca3e                	sw	a5,20(sp)
   10b62:	0000b797          	auipc	a5,0xb
   10b66:	00a78793          	add	a5,a5,10 # 1bb6c <__clzsi2+0x8c>
   10b6a:	dc3e                	sw	a5,56(sp)
   10b6c:	4304                	lw	s1,0(a4)
   10b6e:	8ed6                	mv	t4,s5
   10b70:	835a                	mv	t1,s6
   10b72:	4c81                	li	s9,0
   10b74:	002a6d13          	or	s10,s4,2
   10b78:	4789                	li	a5,2
   10b7a:	07800e13          	li	t3,120
   10b7e:	bdc5                	j	10a6e <_vfprintf_r+0x7d0>
   10b80:	020a7793          	and	a5,s4,32
   10b84:	6c078263          	beqz	a5,11248 <_vfprintf_r+0xfaa>
   10b88:	47d2                	lw	a5,20(sp)
   10b8a:	46b2                	lw	a3,12(sp)
   10b8c:	439c                	lw	a5,0(a5)
   10b8e:	41f6d713          	sra	a4,a3,0x1f
   10b92:	c394                	sw	a3,0(a5)
   10b94:	c3d8                	sw	a4,4(a5)
   10b96:	47d2                	lw	a5,20(sp)
   10b98:	8c4a                	mv	s8,s2
   10b9a:	0791                	add	a5,a5,4
   10b9c:	ca3e                	sw	a5,20(sp)
   10b9e:	fe2ff06f          	j	10380 <_vfprintf_r+0xe2>
   10ba2:	06500713          	li	a4,101
   10ba6:	2bc75b63          	bge	a4,t3,10e5c <_vfprintf_r+0xbbe>
   10baa:	56a2                	lw	a3,40(sp)
   10bac:	5732                	lw	a4,44(sp)
   10bae:	4601                	li	a2,0
   10bb0:	8536                	mv	a0,a3
   10bb2:	85ba                	mv	a1,a4
   10bb4:	4681                	li	a3,0
   10bb6:	c4f6                	sw	t4,72(sp)
   10bb8:	c2fa                	sw	t5,68(sp)
   10bba:	4a7090ef          	jal	1a860 <__eqdf2>
   10bbe:	4f16                	lw	t5,68(sp)
   10bc0:	4ea6                	lw	t4,72(sp)
   10bc2:	36051d63          	bnez	a0,10f3c <_vfprintf_r+0xc9e>
   10bc6:	579a                	lw	a5,164(sp)
   10bc8:	0000b717          	auipc	a4,0xb
   10bcc:	fd470713          	add	a4,a4,-44 # 1bb9c <__clzsi2+0xbc>
   10bd0:	c018                	sw	a4,0(s0)
   10bd2:	0485                	add	s1,s1,1
   10bd4:	4705                	li	a4,1
   10bd6:	0785                	add	a5,a5,1
   10bd8:	c058                	sw	a4,4(s0)
   10bda:	d526                	sw	s1,168(sp)
   10bdc:	d33e                	sw	a5,164(sp)
   10bde:	471d                	li	a4,7
   10be0:	0421                	add	s0,s0,8
   10be2:	24f74ae3          	blt	a4,a5,11636 <_vfprintf_r+0x1398>
   10be6:	57f6                	lw	a5,124(sp)
   10be8:	4762                	lw	a4,24(sp)
   10bea:	56e7d363          	bge	a5,a4,11150 <_vfprintf_r+0xeb2>
   10bee:	57d2                	lw	a5,52(sp)
   10bf0:	5742                	lw	a4,48(sp)
   10bf2:	0421                	add	s0,s0,8
   10bf4:	fef42c23          	sw	a5,-8(s0)
   10bf8:	579a                	lw	a5,164(sp)
   10bfa:	94ba                	add	s1,s1,a4
   10bfc:	fee42e23          	sw	a4,-4(s0)
   10c00:	0785                	add	a5,a5,1
   10c02:	d526                	sw	s1,168(sp)
   10c04:	d33e                	sw	a5,164(sp)
   10c06:	471d                	li	a4,7
   10c08:	70f74163          	blt	a4,a5,1130a <_vfprintf_r+0x106c>
   10c0c:	47e2                	lw	a5,24(sp)
   10c0e:	fff78d13          	add	s10,a5,-1
   10c12:	8ba057e3          	blez	s10,104c0 <_vfprintf_r+0x222>
   10c16:	4741                	li	a4,16
   10c18:	579a                	lw	a5,164(sp)
   10c1a:	0000b297          	auipc	t0,0xb
   10c1e:	48228293          	add	t0,t0,1154 # 1c09c <zeroes.0>
   10c22:	33a753e3          	bge	a4,s10,11748 <_vfprintf_r+0x14aa>
   10c26:	8726                	mv	a4,s1
   10c28:	4b41                	li	s6,16
   10c2a:	4a9d                	li	s5,7
   10c2c:	8c7a                	mv	s8,t5
   10c2e:	84f6                	mv	s1,t4
   10c30:	8a16                	mv	s4,t0
   10c32:	a021                	j	10c3a <_vfprintf_r+0x99c>
   10c34:	1d41                	add	s10,s10,-16
   10c36:	31ab55e3          	bge	s6,s10,11740 <_vfprintf_r+0x14a2>
   10c3a:	0741                	add	a4,a4,16
   10c3c:	0785                	add	a5,a5,1
   10c3e:	01442023          	sw	s4,0(s0)
   10c42:	01642223          	sw	s6,4(s0)
   10c46:	d53a                	sw	a4,168(sp)
   10c48:	d33e                	sw	a5,164(sp)
   10c4a:	0421                	add	s0,s0,8
   10c4c:	fefad4e3          	bge	s5,a5,10c34 <_vfprintf_r+0x996>
   10c50:	45a2                	lw	a1,8(sp)
   10c52:	1110                	add	a2,sp,160
   10c54:	854e                	mv	a0,s3
   10c56:	7bc010ef          	jal	12412 <__sprint_r>
   10c5a:	980518e3          	bnez	a0,105ea <_vfprintf_r+0x34c>
   10c5e:	572a                	lw	a4,168(sp)
   10c60:	579a                	lw	a5,164(sp)
   10c62:	1160                	add	s0,sp,172
   10c64:	bfc1                	j	10c34 <_vfprintf_r+0x996>
   10c66:	8d7a                	mv	s10,t5
   10c68:	4705                	li	a4,1
   10c6a:	ece785e3          	beq	a5,a4,10b34 <_vfprintf_r+0x896>
   10c6e:	4709                	li	a4,2
   10c70:	04e78e63          	beq	a5,a4,10ccc <_vfprintf_r+0xa2e>
   10c74:	15010c13          	add	s8,sp,336
   10c78:	01dc9793          	sll	a5,s9,0x1d
   10c7c:	0074f713          	and	a4,s1,7
   10c80:	808d                	srl	s1,s1,0x3
   10c82:	03070713          	add	a4,a4,48
   10c86:	8cdd                	or	s1,s1,a5
   10c88:	003cdc93          	srl	s9,s9,0x3
   10c8c:	feec0fa3          	sb	a4,-1(s8)
   10c90:	0194e7b3          	or	a5,s1,s9
   10c94:	8662                	mv	a2,s8
   10c96:	1c7d                	add	s8,s8,-1
   10c98:	f3e5                	bnez	a5,10c78 <_vfprintf_r+0x9da>
   10c9a:	001d7693          	and	a3,s10,1
   10c9e:	cab9                	beqz	a3,10cf4 <_vfprintf_r+0xa56>
   10ca0:	03000693          	li	a3,48
   10ca4:	04d70863          	beq	a4,a3,10cf4 <_vfprintf_r+0xa56>
   10ca8:	1679                	add	a2,a2,-2
   10caa:	0a9c                	add	a5,sp,336
   10cac:	fedc0fa3          	sb	a3,-1(s8)
   10cb0:	40c78b33          	sub	s6,a5,a2
   10cb4:	8f6a                	mv	t5,s10
   10cb6:	8c32                	mv	s8,a2
   10cb8:	b3c5                	j	10a98 <_vfprintf_r+0x7fa>
   10cba:	4705                	li	a4,1
   10cbc:	00e79463          	bne	a5,a4,10cc4 <_vfprintf_r+0xa26>
   10cc0:	2f00106f          	j	11fb0 <_vfprintf_r+0x1d12>
   10cc4:	4709                	li	a4,2
   10cc6:	8d7a                	mv	s10,t5
   10cc8:	fae796e3          	bne	a5,a4,10c74 <_vfprintf_r+0x9d6>
   10ccc:	56e2                	lw	a3,56(sp)
   10cce:	15010c13          	add	s8,sp,336
   10cd2:	00f4f793          	and	a5,s1,15
   10cd6:	97b6                	add	a5,a5,a3
   10cd8:	0007c703          	lbu	a4,0(a5)
   10cdc:	8091                	srl	s1,s1,0x4
   10cde:	01cc9793          	sll	a5,s9,0x1c
   10ce2:	8cdd                	or	s1,s1,a5
   10ce4:	004cdc93          	srl	s9,s9,0x4
   10ce8:	feec0fa3          	sb	a4,-1(s8)
   10cec:	0194e7b3          	or	a5,s1,s9
   10cf0:	1c7d                	add	s8,s8,-1
   10cf2:	f3e5                	bnez	a5,10cd2 <_vfprintf_r+0xa34>
   10cf4:	0a9c                	add	a5,sp,336
   10cf6:	41878b33          	sub	s6,a5,s8
   10cfa:	8f6a                	mv	t5,s10
   10cfc:	bb71                	j	10a98 <_vfprintf_r+0x7fa>
   10cfe:	419e8ab3          	sub	s5,t4,s9
   10d02:	f9505a63          	blez	s5,10496 <_vfprintf_r+0x1f8>
   10d06:	45c1                	li	a1,16
   10d08:	561a                	lw	a2,164(sp)
   10d0a:	0000b297          	auipc	t0,0xb
   10d0e:	39228293          	add	t0,t0,914 # 1c09c <zeroes.0>
   10d12:	0755d263          	bge	a1,s5,10d76 <_vfprintf_r+0xad8>
   10d16:	87a2                	mv	a5,s0
   10d18:	8726                	mv	a4,s1
   10d1a:	8456                	mv	s0,s5
   10d1c:	48c1                	li	a7,16
   10d1e:	8ad2                	mv	s5,s4
   10d20:	4d1d                	li	s10,7
   10d22:	c2fa                	sw	t5,68(sp)
   10d24:	c4f2                	sw	t3,72(sp)
   10d26:	caf6                	sw	t4,84(sp)
   10d28:	8a1a                	mv	s4,t1
   10d2a:	8496                	mv	s1,t0
   10d2c:	a021                	j	10d34 <_vfprintf_r+0xa96>
   10d2e:	1441                	add	s0,s0,-16
   10d30:	0288da63          	bge	a7,s0,10d64 <_vfprintf_r+0xac6>
   10d34:	0741                	add	a4,a4,16
   10d36:	0605                	add	a2,a2,1
   10d38:	c384                	sw	s1,0(a5)
   10d3a:	0117a223          	sw	a7,4(a5)
   10d3e:	d53a                	sw	a4,168(sp)
   10d40:	d332                	sw	a2,164(sp)
   10d42:	07a1                	add	a5,a5,8
   10d44:	fecd55e3          	bge	s10,a2,10d2e <_vfprintf_r+0xa90>
   10d48:	45a2                	lw	a1,8(sp)
   10d4a:	1110                	add	a2,sp,160
   10d4c:	854e                	mv	a0,s3
   10d4e:	6c4010ef          	jal	12412 <__sprint_r>
   10d52:	88051ce3          	bnez	a0,105ea <_vfprintf_r+0x34c>
   10d56:	48c1                	li	a7,16
   10d58:	1441                	add	s0,s0,-16
   10d5a:	572a                	lw	a4,168(sp)
   10d5c:	561a                	lw	a2,164(sp)
   10d5e:	117c                	add	a5,sp,172
   10d60:	fc88cae3          	blt	a7,s0,10d34 <_vfprintf_r+0xa96>
   10d64:	4f16                	lw	t5,68(sp)
   10d66:	4e26                	lw	t3,72(sp)
   10d68:	4ed6                	lw	t4,84(sp)
   10d6a:	8352                	mv	t1,s4
   10d6c:	82a6                	mv	t0,s1
   10d6e:	8a56                	mv	s4,s5
   10d70:	84ba                	mv	s1,a4
   10d72:	8aa2                	mv	s5,s0
   10d74:	843e                	mv	s0,a5
   10d76:	94d6                	add	s1,s1,s5
   10d78:	0605                	add	a2,a2,1
   10d7a:	00542023          	sw	t0,0(s0)
   10d7e:	01542223          	sw	s5,4(s0)
   10d82:	d526                	sw	s1,168(sp)
   10d84:	d332                	sw	a2,164(sp)
   10d86:	471d                	li	a4,7
   10d88:	0421                	add	s0,s0,8
   10d8a:	f0c75663          	bge	a4,a2,10496 <_vfprintf_r+0x1f8>
   10d8e:	45a2                	lw	a1,8(sp)
   10d90:	1110                	add	a2,sp,160
   10d92:	854e                	mv	a0,s3
   10d94:	cc9a                	sw	t1,88(sp)
   10d96:	caf6                	sw	t4,84(sp)
   10d98:	c4f2                	sw	t3,72(sp)
   10d9a:	c2fa                	sw	t5,68(sp)
   10d9c:	676010ef          	jal	12412 <__sprint_r>
   10da0:	840515e3          	bnez	a0,105ea <_vfprintf_r+0x34c>
   10da4:	54aa                	lw	s1,168(sp)
   10da6:	4366                	lw	t1,88(sp)
   10da8:	4ed6                	lw	t4,84(sp)
   10daa:	4e26                	lw	t3,72(sp)
   10dac:	4f16                	lw	t5,68(sp)
   10dae:	1160                	add	s0,sp,172
   10db0:	ee6ff06f          	j	10496 <_vfprintf_r+0x1f8>
   10db4:	4741                	li	a4,16
   10db6:	561a                	lw	a2,164(sp)
   10db8:	0000b297          	auipc	t0,0xb
   10dbc:	2e428293          	add	t0,t0,740 # 1c09c <zeroes.0>
   10dc0:	07575163          	bge	a4,s5,10e22 <_vfprintf_r+0xb84>
   10dc4:	87a2                	mv	a5,s0
   10dc6:	86a6                	mv	a3,s1
   10dc8:	8456                	mv	s0,s5
   10dca:	4741                	li	a4,16
   10dcc:	4d1d                	li	s10,7
   10dce:	c2fa                	sw	t5,68(sp)
   10dd0:	c4f2                	sw	t3,72(sp)
   10dd2:	84f6                	mv	s1,t4
   10dd4:	8a96                	mv	s5,t0
   10dd6:	a021                	j	10dde <_vfprintf_r+0xb40>
   10dd8:	1441                	add	s0,s0,-16
   10dda:	02875d63          	bge	a4,s0,10e14 <_vfprintf_r+0xb76>
   10dde:	06c1                	add	a3,a3,16
   10de0:	0605                	add	a2,a2,1
   10de2:	0000b597          	auipc	a1,0xb
   10de6:	2ba58593          	add	a1,a1,698 # 1c09c <zeroes.0>
   10dea:	c38c                	sw	a1,0(a5)
   10dec:	c3d8                	sw	a4,4(a5)
   10dee:	d536                	sw	a3,168(sp)
   10df0:	d332                	sw	a2,164(sp)
   10df2:	07a1                	add	a5,a5,8
   10df4:	fecd52e3          	bge	s10,a2,10dd8 <_vfprintf_r+0xb3a>
   10df8:	45a2                	lw	a1,8(sp)
   10dfa:	1110                	add	a2,sp,160
   10dfc:	854e                	mv	a0,s3
   10dfe:	614010ef          	jal	12412 <__sprint_r>
   10e02:	fe051463          	bnez	a0,105ea <_vfprintf_r+0x34c>
   10e06:	4741                	li	a4,16
   10e08:	1441                	add	s0,s0,-16
   10e0a:	56aa                	lw	a3,168(sp)
   10e0c:	561a                	lw	a2,164(sp)
   10e0e:	117c                	add	a5,sp,172
   10e10:	fc8747e3          	blt	a4,s0,10dde <_vfprintf_r+0xb40>
   10e14:	4f16                	lw	t5,68(sp)
   10e16:	4e26                	lw	t3,72(sp)
   10e18:	8ea6                	mv	t4,s1
   10e1a:	82d6                	mv	t0,s5
   10e1c:	84b6                	mv	s1,a3
   10e1e:	8aa2                	mv	s5,s0
   10e20:	843e                	mv	s0,a5
   10e22:	94d6                	add	s1,s1,s5
   10e24:	0605                	add	a2,a2,1
   10e26:	00542023          	sw	t0,0(s0)
   10e2a:	01542223          	sw	s5,4(s0)
   10e2e:	d526                	sw	s1,168(sp)
   10e30:	d332                	sw	a2,164(sp)
   10e32:	471d                	li	a4,7
   10e34:	0421                	add	s0,s0,8
   10e36:	e6c75463          	bge	a4,a2,1049e <_vfprintf_r+0x200>
   10e3a:	45a2                	lw	a1,8(sp)
   10e3c:	1110                	add	a2,sp,160
   10e3e:	854e                	mv	a0,s3
   10e40:	caf6                	sw	t4,84(sp)
   10e42:	c4f2                	sw	t3,72(sp)
   10e44:	c2fa                	sw	t5,68(sp)
   10e46:	5cc010ef          	jal	12412 <__sprint_r>
   10e4a:	fa051063          	bnez	a0,105ea <_vfprintf_r+0x34c>
   10e4e:	54aa                	lw	s1,168(sp)
   10e50:	4ed6                	lw	t4,84(sp)
   10e52:	4e26                	lw	t3,72(sp)
   10e54:	4f16                	lw	t5,68(sp)
   10e56:	1160                	add	s0,sp,172
   10e58:	e46ff06f          	j	1049e <_vfprintf_r+0x200>
   10e5c:	5d1a                	lw	s10,164(sp)
   10e5e:	47e2                	lw	a5,24(sp)
   10e60:	4685                	li	a3,1
   10e62:	01842023          	sw	s8,0(s0)
   10e66:	0485                	add	s1,s1,1
   10e68:	0d05                	add	s10,s10,1
   10e6a:	00840a93          	add	s5,s0,8
   10e6e:	1cf6d363          	bge	a3,a5,11034 <_vfprintf_r+0xd96>
   10e72:	4685                	li	a3,1
   10e74:	c054                	sw	a3,4(s0)
   10e76:	d526                	sw	s1,168(sp)
   10e78:	d36a                	sw	s10,164(sp)
   10e7a:	469d                	li	a3,7
   10e7c:	59a6c663          	blt	a3,s10,11408 <_vfprintf_r+0x116a>
   10e80:	57c2                	lw	a5,48(sp)
   10e82:	5752                	lw	a4,52(sp)
   10e84:	0d05                	add	s10,s10,1
   10e86:	94be                	add	s1,s1,a5
   10e88:	00eaa023          	sw	a4,0(s5)
   10e8c:	00faa223          	sw	a5,4(s5)
   10e90:	d526                	sw	s1,168(sp)
   10e92:	d36a                	sw	s10,164(sp)
   10e94:	469d                	li	a3,7
   10e96:	0aa1                	add	s5,s5,8
   10e98:	55a6c863          	blt	a3,s10,113e8 <_vfprintf_r+0x114a>
   10e9c:	5622                	lw	a2,40(sp)
   10e9e:	56b2                	lw	a3,44(sp)
   10ea0:	47e2                	lw	a5,24(sp)
   10ea2:	8532                	mv	a0,a2
   10ea4:	85b6                	mv	a1,a3
   10ea6:	4601                	li	a2,0
   10ea8:	4681                	li	a3,0
   10eaa:	d276                	sw	t4,36(sp)
   10eac:	d07a                	sw	t5,32(sp)
   10eae:	fff78413          	add	s0,a5,-1
   10eb2:	1af090ef          	jal	1a860 <__eqdf2>
   10eb6:	5f02                	lw	t5,32(sp)
   10eb8:	5e92                	lw	t4,36(sp)
   10eba:	1a050763          	beqz	a0,11068 <_vfprintf_r+0xdca>
   10ebe:	001c0793          	add	a5,s8,1
   10ec2:	0d05                	add	s10,s10,1
   10ec4:	94a2                	add	s1,s1,s0
   10ec6:	00faa023          	sw	a5,0(s5)
   10eca:	008aa223          	sw	s0,4(s5)
   10ece:	d526                	sw	s1,168(sp)
   10ed0:	d36a                	sw	s10,164(sp)
   10ed2:	479d                	li	a5,7
   10ed4:	0aa1                	add	s5,s5,8
   10ed6:	73a7cf63          	blt	a5,s10,11614 <_vfprintf_r+0x1376>
   10eda:	4706                	lw	a4,64(sp)
   10edc:	013c                	add	a5,sp,136
   10ede:	0d05                	add	s10,s10,1
   10ee0:	94ba                	add	s1,s1,a4
   10ee2:	00faa023          	sw	a5,0(s5)
   10ee6:	00eaa223          	sw	a4,4(s5)
   10eea:	d526                	sw	s1,168(sp)
   10eec:	d36a                	sw	s10,164(sp)
   10eee:	479d                	li	a5,7
   10ef0:	008a8413          	add	s0,s5,8
   10ef4:	dda7d663          	bge	a5,s10,104c0 <_vfprintf_r+0x222>
   10ef8:	45a2                	lw	a1,8(sp)
   10efa:	1110                	add	a2,sp,160
   10efc:	854e                	mv	a0,s3
   10efe:	d276                	sw	t4,36(sp)
   10f00:	d07a                	sw	t5,32(sp)
   10f02:	510010ef          	jal	12412 <__sprint_r>
   10f06:	ee051263          	bnez	a0,105ea <_vfprintf_r+0x34c>
   10f0a:	54aa                	lw	s1,168(sp)
   10f0c:	5e92                	lw	t4,36(sp)
   10f0e:	5f02                	lw	t5,32(sp)
   10f10:	1160                	add	s0,sp,172
   10f12:	daeff06f          	j	104c0 <_vfprintf_r+0x222>
   10f16:	45a2                	lw	a1,8(sp)
   10f18:	1110                	add	a2,sp,160
   10f1a:	854e                	mv	a0,s3
   10f1c:	cc9a                	sw	t1,88(sp)
   10f1e:	caf6                	sw	t4,84(sp)
   10f20:	c4f2                	sw	t3,72(sp)
   10f22:	c2fa                	sw	t5,68(sp)
   10f24:	4ee010ef          	jal	12412 <__sprint_r>
   10f28:	ec051163          	bnez	a0,105ea <_vfprintf_r+0x34c>
   10f2c:	54aa                	lw	s1,168(sp)
   10f2e:	4366                	lw	t1,88(sp)
   10f30:	4ed6                	lw	t4,84(sp)
   10f32:	4e26                	lw	t3,72(sp)
   10f34:	4f16                	lw	t5,68(sp)
   10f36:	1160                	add	s0,sp,172
   10f38:	d56ff06f          	j	1048e <_vfprintf_r+0x1f0>
   10f3c:	5676                	lw	a2,124(sp)
   10f3e:	22c05763          	blez	a2,1116c <_vfprintf_r+0xece>
   10f42:	47e2                	lw	a5,24(sp)
   10f44:	8ad2                	mv	s5,s4
   10f46:	0147d363          	bge	a5,s4,10f4c <_vfprintf_r+0xcae>
   10f4a:	8abe                	mv	s5,a5
   10f4c:	03505163          	blez	s5,10f6e <_vfprintf_r+0xcd0>
   10f50:	569a                	lw	a3,164(sp)
   10f52:	94d6                	add	s1,s1,s5
   10f54:	01842023          	sw	s8,0(s0)
   10f58:	0685                	add	a3,a3,1
   10f5a:	01542223          	sw	s5,4(s0)
   10f5e:	d526                	sw	s1,168(sp)
   10f60:	d336                	sw	a3,164(sp)
   10f62:	461d                	li	a2,7
   10f64:	0421                	add	s0,s0,8
   10f66:	00d65463          	bge	a2,a3,10f6e <_vfprintf_r+0xcd0>
   10f6a:	7890006f          	j	11ef2 <_vfprintf_r+0x1c54>
   10f6e:	fffac693          	not	a3,s5
   10f72:	86fd                	sra	a3,a3,0x1f
   10f74:	00daf733          	and	a4,s5,a3
   10f78:	40ea0ab3          	sub	s5,s4,a4
   10f7c:	015046e3          	bgtz	s5,11788 <_vfprintf_r+0x14ea>
   10f80:	400f7713          	and	a4,t5,1024
   10f84:	014c0b33          	add	s6,s8,s4
   10f88:	500714e3          	bnez	a4,11c90 <_vfprintf_r+0x19f2>
   10f8c:	5d76                	lw	s10,124(sp)
   10f8e:	47e2                	lw	a5,24(sp)
   10f90:	3efd4d63          	blt	s10,a5,1138a <_vfprintf_r+0x10ec>
   10f94:	001f7713          	and	a4,t5,1
   10f98:	3e071963          	bnez	a4,1138a <_vfprintf_r+0x10ec>
   10f9c:	4762                	lw	a4,24(sp)
   10f9e:	00ec07b3          	add	a5,s8,a4
   10fa2:	41a70d33          	sub	s10,a4,s10
   10fa6:	41678ab3          	sub	s5,a5,s6
   10faa:	015d5363          	bge	s10,s5,10fb0 <_vfprintf_r+0xd12>
   10fae:	8aea                	mv	s5,s10
   10fb0:	03505163          	blez	s5,10fd2 <_vfprintf_r+0xd34>
   10fb4:	571a                	lw	a4,164(sp)
   10fb6:	94d6                	add	s1,s1,s5
   10fb8:	01642023          	sw	s6,0(s0)
   10fbc:	0705                	add	a4,a4,1
   10fbe:	01542223          	sw	s5,4(s0)
   10fc2:	d526                	sw	s1,168(sp)
   10fc4:	d33a                	sw	a4,164(sp)
   10fc6:	469d                	li	a3,7
   10fc8:	0421                	add	s0,s0,8
   10fca:	00e6d463          	bge	a3,a4,10fd2 <_vfprintf_r+0xd34>
   10fce:	75d0006f          	j	11f2a <_vfprintf_r+0x1c8c>
   10fd2:	fffac713          	not	a4,s5
   10fd6:	877d                	sra	a4,a4,0x1f
   10fd8:	00eaf7b3          	and	a5,s5,a4
   10fdc:	40fd0d33          	sub	s10,s10,a5
   10fe0:	cfa05063          	blez	s10,104c0 <_vfprintf_r+0x222>
   10fe4:	4741                	li	a4,16
   10fe6:	579a                	lw	a5,164(sp)
   10fe8:	0000b297          	auipc	t0,0xb
   10fec:	0b428293          	add	t0,t0,180 # 1c09c <zeroes.0>
   10ff0:	75a75c63          	bge	a4,s10,11748 <_vfprintf_r+0x14aa>
   10ff4:	8726                	mv	a4,s1
   10ff6:	4b41                	li	s6,16
   10ff8:	4a9d                	li	s5,7
   10ffa:	8c7a                	mv	s8,t5
   10ffc:	84f6                	mv	s1,t4
   10ffe:	8a16                	mv	s4,t0
   11000:	a021                	j	11008 <_vfprintf_r+0xd6a>
   11002:	1d41                	add	s10,s10,-16
   11004:	73ab5e63          	bge	s6,s10,11740 <_vfprintf_r+0x14a2>
   11008:	0741                	add	a4,a4,16
   1100a:	0785                	add	a5,a5,1
   1100c:	01442023          	sw	s4,0(s0)
   11010:	01642223          	sw	s6,4(s0)
   11014:	d53a                	sw	a4,168(sp)
   11016:	d33e                	sw	a5,164(sp)
   11018:	0421                	add	s0,s0,8
   1101a:	fefad4e3          	bge	s5,a5,11002 <_vfprintf_r+0xd64>
   1101e:	45a2                	lw	a1,8(sp)
   11020:	1110                	add	a2,sp,160
   11022:	854e                	mv	a0,s3
   11024:	3ee010ef          	jal	12412 <__sprint_r>
   11028:	dc051163          	bnez	a0,105ea <_vfprintf_r+0x34c>
   1102c:	572a                	lw	a4,168(sp)
   1102e:	579a                	lw	a5,164(sp)
   11030:	1160                	add	s0,sp,172
   11032:	bfc1                	j	11002 <_vfprintf_r+0xd64>
   11034:	001f7613          	and	a2,t5,1
   11038:	e2061de3          	bnez	a2,10e72 <_vfprintf_r+0xbd4>
   1103c:	c054                	sw	a3,4(s0)
   1103e:	d526                	sw	s1,168(sp)
   11040:	d36a                	sw	s10,164(sp)
   11042:	479d                	li	a5,7
   11044:	e9a7dbe3          	bge	a5,s10,10eda <_vfprintf_r+0xc3c>
   11048:	45a2                	lw	a1,8(sp)
   1104a:	1110                	add	a2,sp,160
   1104c:	854e                	mv	a0,s3
   1104e:	d276                	sw	t4,36(sp)
   11050:	d07a                	sw	t5,32(sp)
   11052:	3c0010ef          	jal	12412 <__sprint_r>
   11056:	d8051a63          	bnez	a0,105ea <_vfprintf_r+0x34c>
   1105a:	54aa                	lw	s1,168(sp)
   1105c:	5d1a                	lw	s10,164(sp)
   1105e:	5e92                	lw	t4,36(sp)
   11060:	5f02                	lw	t5,32(sp)
   11062:	0ac10a93          	add	s5,sp,172
   11066:	bd95                	j	10eda <_vfprintf_r+0xc3c>
   11068:	4762                	lw	a4,24(sp)
   1106a:	4785                	li	a5,1
   1106c:	e6e7d7e3          	bge	a5,a4,10eda <_vfprintf_r+0xc3c>
   11070:	47c5                	li	a5,17
   11072:	0000b297          	auipc	t0,0xb
   11076:	02a28293          	add	t0,t0,42 # 1c09c <zeroes.0>
   1107a:	70e7d163          	bge	a5,a4,1177c <_vfprintf_r+0x14de>
   1107e:	8a22                	mv	s4,s0
   11080:	87a6                	mv	a5,s1
   11082:	4c41                	li	s8,16
   11084:	4b1d                	li	s6,7
   11086:	d07a                	sw	t5,32(sp)
   11088:	84f6                	mv	s1,t4
   1108a:	8416                	mv	s0,t0
   1108c:	a021                	j	11094 <_vfprintf_r+0xdf6>
   1108e:	1a41                	add	s4,s4,-16
   11090:	6f4c5163          	bge	s8,s4,11772 <_vfprintf_r+0x14d4>
   11094:	07c1                	add	a5,a5,16
   11096:	0d05                	add	s10,s10,1
   11098:	008aa023          	sw	s0,0(s5)
   1109c:	018aa223          	sw	s8,4(s5)
   110a0:	d53e                	sw	a5,168(sp)
   110a2:	d36a                	sw	s10,164(sp)
   110a4:	0aa1                	add	s5,s5,8
   110a6:	ffab54e3          	bge	s6,s10,1108e <_vfprintf_r+0xdf0>
   110aa:	45a2                	lw	a1,8(sp)
   110ac:	1110                	add	a2,sp,160
   110ae:	854e                	mv	a0,s3
   110b0:	362010ef          	jal	12412 <__sprint_r>
   110b4:	d2051b63          	bnez	a0,105ea <_vfprintf_r+0x34c>
   110b8:	57aa                	lw	a5,168(sp)
   110ba:	5d1a                	lw	s10,164(sp)
   110bc:	0ac10a93          	add	s5,sp,172
   110c0:	b7f9                	j	1108e <_vfprintf_r+0xdf0>
   110c2:	4752                	lw	a4,20(sp)
   110c4:	010f7793          	and	a5,t5,16
   110c8:	4304                	lw	s1,0(a4)
   110ca:	0711                	add	a4,a4,4
   110cc:	ca3a                	sw	a4,20(sp)
   110ce:	12079063          	bnez	a5,111ee <_vfprintf_r+0xf50>
   110d2:	040f7793          	and	a5,t5,64
   110d6:	10078863          	beqz	a5,111e6 <_vfprintf_r+0xf48>
   110da:	04c2                	sll	s1,s1,0x10
   110dc:	84c1                	sra	s1,s1,0x10
   110de:	41f4dc93          	sra	s9,s1,0x1f
   110e2:	87e6                	mv	a5,s9
   110e4:	a207d9e3          	bgez	a5,10b16 <_vfprintf_r+0x878>
   110e8:	009037b3          	snez	a5,s1
   110ec:	41900cb3          	neg	s9,s9
   110f0:	40fc8cb3          	sub	s9,s9,a5
   110f4:	409004b3          	neg	s1,s1
   110f8:	8d7a                	mv	s10,t5
   110fa:	02d00713          	li	a4,45
   110fe:	4785                	li	a5,1
   11100:	ba85                	j	10a70 <_vfprintf_r+0x7d2>
   11102:	4752                	lw	a4,20(sp)
   11104:	010d7793          	and	a5,s10,16
   11108:	4304                	lw	s1,0(a4)
   1110a:	0711                	add	a4,a4,4
   1110c:	ca3a                	sw	a4,20(sp)
   1110e:	e3f9                	bnez	a5,111d4 <_vfprintf_r+0xf36>
   11110:	040d7793          	and	a5,s10,64
   11114:	cbdd                	beqz	a5,111ca <_vfprintf_r+0xf2c>
   11116:	04c2                	sll	s1,s1,0x10
   11118:	80c1                	srl	s1,s1,0x10
   1111a:	4c81                	li	s9,0
   1111c:	4785                	li	a5,1
   1111e:	ba81                	j	10a6e <_vfprintf_r+0x7d0>
   11120:	4752                	lw	a4,20(sp)
   11122:	010f7793          	and	a5,t5,16
   11126:	4304                	lw	s1,0(a4)
   11128:	0711                	add	a4,a4,4
   1112a:	ca3a                	sw	a4,20(sp)
   1112c:	ebdd                	bnez	a5,111e2 <_vfprintf_r+0xf44>
   1112e:	040f7793          	and	a5,t5,64
   11132:	c7c5                	beqz	a5,111da <_vfprintf_r+0xf3c>
   11134:	04c2                	sll	s1,s1,0x10
   11136:	80c1                	srl	s1,s1,0x10
   11138:	4c81                	li	s9,0
   1113a:	b23d                	j	10a68 <_vfprintf_r+0x7ca>
   1113c:	4422                	lw	s0,8(sp)
   1113e:	c63e                	sw	a5,12(sp)
   11140:	4c28                	lw	a0,88(s0)
   11142:	160040ef          	jal	152a2 <__retarget_lock_acquire_recursive>
   11146:	00c41703          	lh	a4,12(s0)
   1114a:	47b2                	lw	a5,12(sp)
   1114c:	9a8ff06f          	j	102f4 <_vfprintf_r+0x56>
   11150:	001f7793          	and	a5,t5,1
   11154:	b6078663          	beqz	a5,104c0 <_vfprintf_r+0x222>
   11158:	bc59                	j	10bee <_vfprintf_r+0x950>
   1115a:	8f52                	mv	t5,s4
   1115c:	8ed6                	mv	t4,s5
   1115e:	835a                	mv	t1,s6
   11160:	ba41                	j	10af0 <_vfprintf_r+0x852>
   11162:	00094e03          	lbu	t3,0(s2)
   11166:	ca3e                	sw	a5,20(sp)
   11168:	a64ff06f          	j	103cc <_vfprintf_r+0x12e>
   1116c:	571a                	lw	a4,164(sp)
   1116e:	0000b697          	auipc	a3,0xb
   11172:	a2e68693          	add	a3,a3,-1490 # 1bb9c <__clzsi2+0xbc>
   11176:	c014                	sw	a3,0(s0)
   11178:	0485                	add	s1,s1,1
   1117a:	4685                	li	a3,1
   1117c:	0705                	add	a4,a4,1
   1117e:	c054                	sw	a3,4(s0)
   11180:	d526                	sw	s1,168(sp)
   11182:	d33a                	sw	a4,164(sp)
   11184:	469d                	li	a3,7
   11186:	0421                	add	s0,s0,8
   11188:	7ae6c463          	blt	a3,a4,11930 <_vfprintf_r+0x1692>
   1118c:	e4061363          	bnez	a2,107d2 <_vfprintf_r+0x534>
   11190:	47e2                	lw	a5,24(sp)
   11192:	001f7713          	and	a4,t5,1
   11196:	8f5d                	or	a4,a4,a5
   11198:	b2070463          	beqz	a4,104c0 <_vfprintf_r+0x222>
   1119c:	5752                	lw	a4,52(sp)
   1119e:	57c2                	lw	a5,48(sp)
   111a0:	469d                	li	a3,7
   111a2:	c018                	sw	a4,0(s0)
   111a4:	571a                	lw	a4,164(sp)
   111a6:	009785b3          	add	a1,a5,s1
   111aa:	c05c                	sw	a5,4(s0)
   111ac:	0705                	add	a4,a4,1
   111ae:	d52e                	sw	a1,168(sp)
   111b0:	d33a                	sw	a4,164(sp)
   111b2:	00e6cfe3          	blt	a3,a4,119d0 <_vfprintf_r+0x1732>
   111b6:	0421                	add	s0,s0,8
   111b8:	e42ff06f          	j	107fa <_vfprintf_r+0x55c>
   111bc:	03000793          	li	a5,48
   111c0:	14f107a3          	sb	a5,335(sp)
   111c4:	14f10c13          	add	s8,sp,335
   111c8:	b8c1                	j	10a98 <_vfprintf_r+0x7fa>
   111ca:	200d7793          	and	a5,s10,512
   111ce:	c399                	beqz	a5,111d4 <_vfprintf_r+0xf36>
   111d0:	0ff4f493          	zext.b	s1,s1
   111d4:	4c81                	li	s9,0
   111d6:	4785                	li	a5,1
   111d8:	b859                	j	10a6e <_vfprintf_r+0x7d0>
   111da:	200f7793          	and	a5,t5,512
   111de:	78079e63          	bnez	a5,1197a <_vfprintf_r+0x16dc>
   111e2:	4c81                	li	s9,0
   111e4:	b051                	j	10a68 <_vfprintf_r+0x7ca>
   111e6:	200f7793          	and	a5,t5,512
   111ea:	78079163          	bnez	a5,1196c <_vfprintf_r+0x16ce>
   111ee:	41f4dc93          	sra	s9,s1,0x1f
   111f2:	87e6                	mv	a5,s9
   111f4:	ba39                	j	10b12 <_vfprintf_r+0x874>
   111f6:	57f2                	lw	a5,60(sp)
   111f8:	00094e03          	lbu	t3,0(s2)
   111fc:	9c078863          	beqz	a5,103cc <_vfprintf_r+0x12e>
   11200:	0007c783          	lbu	a5,0(a5)
   11204:	9c078463          	beqz	a5,103cc <_vfprintf_r+0x12e>
   11208:	400a6a13          	or	s4,s4,1024
   1120c:	9c0ff06f          	j	103cc <_vfprintf_r+0x12e>
   11210:	47d2                	lw	a5,20(sp)
   11212:	1088                	add	a0,sp,96
   11214:	d256                	sw	s5,36(sp)
   11216:	4398                	lw	a4,0(a5)
   11218:	d072                	sw	t3,32(sp)
   1121a:	00478a93          	add	s5,a5,4
   1121e:	4314                	lw	a3,0(a4)
   11220:	c2da                	sw	s6,68(sp)
   11222:	c852                	sw	s4,16(sp)
   11224:	d0b6                	sw	a3,96(sp)
   11226:	4354                	lw	a3,4(a4)
   11228:	d2b6                	sw	a3,100(sp)
   1122a:	4714                	lw	a3,8(a4)
   1122c:	d4b6                	sw	a3,104(sp)
   1122e:	4758                	lw	a4,12(a4)
   11230:	d6ba                	sw	a4,108(sp)
   11232:	6040a0ef          	jal	1b836 <__trunctfdf2>
   11236:	5e02                	lw	t3,32(sp)
   11238:	5e92                	lw	t4,36(sp)
   1123a:	d42a                	sw	a0,40(sp)
   1123c:	d62e                	sw	a1,44(sp)
   1123e:	ca56                	sw	s5,20(sp)
   11240:	8f52                	mv	t5,s4
   11242:	835a                	mv	t1,s6
   11244:	c32ff06f          	j	10676 <_vfprintf_r+0x3d8>
   11248:	010a7793          	and	a5,s4,16
   1124c:	50079d63          	bnez	a5,11766 <_vfprintf_r+0x14c8>
   11250:	040a7793          	and	a5,s4,64
   11254:	70079163          	bnez	a5,11956 <_vfprintf_r+0x16b8>
   11258:	200a7f13          	and	t5,s4,512
   1125c:	500f0563          	beqz	t5,11766 <_vfprintf_r+0x14c8>
   11260:	47d2                	lw	a5,20(sp)
   11262:	4732                	lw	a4,12(sp)
   11264:	439c                	lw	a5,0(a5)
   11266:	00e78023          	sb	a4,0(a5)
   1126a:	b235                	j	10b96 <_vfprintf_r+0x8f8>
   1126c:	5b7d                	li	s6,-1
   1126e:	8936                	mv	s2,a3
   11270:	95eff06f          	j	103ce <_vfprintf_r+0x130>
   11274:	8ed6                	mv	t4,s5
   11276:	835a                	mv	t1,s6
   11278:	8d52                	mv	s10,s4
   1127a:	b081                	j	10aba <_vfprintf_r+0x81c>
   1127c:	0000b797          	auipc	a5,0xb
   11280:	90478793          	add	a5,a5,-1788 # 1bb80 <__clzsi2+0xa0>
   11284:	8f52                	mv	t5,s4
   11286:	8ed6                	mv	t4,s5
   11288:	835a                	mv	t1,s6
   1128a:	dc3e                	sw	a5,56(sp)
   1128c:	020f7793          	and	a5,t5,32
   11290:	12078963          	beqz	a5,113c2 <_vfprintf_r+0x1124>
   11294:	47d2                	lw	a5,20(sp)
   11296:	00778a93          	add	s5,a5,7
   1129a:	ff8afa93          	and	s5,s5,-8
   1129e:	000aa483          	lw	s1,0(s5)
   112a2:	004aac83          	lw	s9,4(s5)
   112a6:	008a8793          	add	a5,s5,8
   112aa:	ca3e                	sw	a5,20(sp)
   112ac:	001f7793          	and	a5,t5,1
   112b0:	cf81                	beqz	a5,112c8 <_vfprintf_r+0x102a>
   112b2:	0194e7b3          	or	a5,s1,s9
   112b6:	cb89                	beqz	a5,112c8 <_vfprintf_r+0x102a>
   112b8:	03000793          	li	a5,48
   112bc:	06f10c23          	sb	a5,120(sp)
   112c0:	07c10ca3          	sb	t3,121(sp)
   112c4:	002f6f13          	or	t5,t5,2
   112c8:	bfff7d13          	and	s10,t5,-1025
   112cc:	4789                	li	a5,2
   112ce:	fa0ff06f          	j	10a6e <_vfprintf_r+0x7d0>
   112d2:	00194e03          	lbu	t3,1(s2)
   112d6:	020a6a13          	or	s4,s4,32
   112da:	0905                	add	s2,s2,1
   112dc:	8f0ff06f          	j	103cc <_vfprintf_r+0x12e>
   112e0:	00194e03          	lbu	t3,1(s2)
   112e4:	200a6a13          	or	s4,s4,512
   112e8:	0905                	add	s2,s2,1
   112ea:	8e2ff06f          	j	103cc <_vfprintf_r+0x12e>
   112ee:	0000b797          	auipc	a5,0xb
   112f2:	87e78793          	add	a5,a5,-1922 # 1bb6c <__clzsi2+0x8c>
   112f6:	8f52                	mv	t5,s4
   112f8:	8ed6                	mv	t4,s5
   112fa:	835a                	mv	t1,s6
   112fc:	dc3e                	sw	a5,56(sp)
   112fe:	b779                	j	1128c <_vfprintf_r+0xfee>
   11300:	8f52                	mv	t5,s4
   11302:	8ed6                	mv	t4,s5
   11304:	835a                	mv	t1,s6
   11306:	f42ff06f          	j	10a48 <_vfprintf_r+0x7aa>
   1130a:	45a2                	lw	a1,8(sp)
   1130c:	1110                	add	a2,sp,160
   1130e:	854e                	mv	a0,s3
   11310:	d276                	sw	t4,36(sp)
   11312:	d07a                	sw	t5,32(sp)
   11314:	0fe010ef          	jal	12412 <__sprint_r>
   11318:	ac051963          	bnez	a0,105ea <_vfprintf_r+0x34c>
   1131c:	54aa                	lw	s1,168(sp)
   1131e:	5e92                	lw	t4,36(sp)
   11320:	5f02                	lw	t5,32(sp)
   11322:	1160                	add	s0,sp,172
   11324:	b0e5                	j	10c0c <_vfprintf_r+0x96e>
   11326:	4799                	li	a5,6
   11328:	8cda                	mv	s9,s6
   1132a:	6367e463          	bltu	a5,s6,11952 <_vfprintf_r+0x16b4>
   1132e:	ca56                	sw	s5,20(sp)
   11330:	c802                	sw	zero,16(sp)
   11332:	8b66                	mv	s6,s9
   11334:	4601                	li	a2,0
   11336:	4301                	li	t1,0
   11338:	d202                	sw	zero,36(sp)
   1133a:	d002                	sw	zero,32(sp)
   1133c:	4a01                	li	s4,0
   1133e:	0000bc17          	auipc	s8,0xb
   11342:	856c0c13          	add	s8,s8,-1962 # 1bb94 <__clzsi2+0xb4>
   11346:	8f0ff06f          	j	10436 <_vfprintf_r+0x198>
   1134a:	4621                	li	a2,8
   1134c:	4581                	li	a1,0
   1134e:	0928                	add	a0,sp,152
   11350:	d276                	sw	t4,36(sp)
   11352:	d072                	sw	t3,32(sp)
   11354:	c87a                	sw	t5,16(sp)
   11356:	2b9030ef          	jal	14e0e <memset>
   1135a:	47d2                	lw	a5,20(sp)
   1135c:	0ec10c13          	add	s8,sp,236
   11360:	0934                	add	a3,sp,152
   11362:	4390                	lw	a2,0(a5)
   11364:	85e2                	mv	a1,s8
   11366:	854e                	mv	a0,s3
   11368:	749030ef          	jal	152b0 <_wcrtomb_r>
   1136c:	57fd                	li	a5,-1
   1136e:	4f42                	lw	t5,16(sp)
   11370:	5e02                	lw	t3,32(sp)
   11372:	5e92                	lw	t4,36(sp)
   11374:	8b2a                	mv	s6,a0
   11376:	6ef50ae3          	beq	a0,a5,1226a <_vfprintf_r+0x1fcc>
   1137a:	fff54813          	not	a6,a0
   1137e:	41f85813          	sra	a6,a6,0x1f
   11382:	01057cb3          	and	s9,a0,a6
   11386:	d72ff06f          	j	108f8 <_vfprintf_r+0x65a>
   1138a:	5752                	lw	a4,52(sp)
   1138c:	57c2                	lw	a5,48(sp)
   1138e:	469d                	li	a3,7
   11390:	c018                	sw	a4,0(s0)
   11392:	571a                	lw	a4,164(sp)
   11394:	94be                	add	s1,s1,a5
   11396:	c05c                	sw	a5,4(s0)
   11398:	0705                	add	a4,a4,1
   1139a:	d526                	sw	s1,168(sp)
   1139c:	d33a                	sw	a4,164(sp)
   1139e:	0421                	add	s0,s0,8
   113a0:	bee6dee3          	bge	a3,a4,10f9c <_vfprintf_r+0xcfe>
   113a4:	45a2                	lw	a1,8(sp)
   113a6:	1110                	add	a2,sp,160
   113a8:	854e                	mv	a0,s3
   113aa:	d276                	sw	t4,36(sp)
   113ac:	d07a                	sw	t5,32(sp)
   113ae:	064010ef          	jal	12412 <__sprint_r>
   113b2:	a2051c63          	bnez	a0,105ea <_vfprintf_r+0x34c>
   113b6:	5d76                	lw	s10,124(sp)
   113b8:	54aa                	lw	s1,168(sp)
   113ba:	5e92                	lw	t4,36(sp)
   113bc:	5f02                	lw	t5,32(sp)
   113be:	1160                	add	s0,sp,172
   113c0:	bef1                	j	10f9c <_vfprintf_r+0xcfe>
   113c2:	4752                	lw	a4,20(sp)
   113c4:	010f7793          	and	a5,t5,16
   113c8:	4304                	lw	s1,0(a4)
   113ca:	0711                	add	a4,a4,4
   113cc:	ca3a                	sw	a4,20(sp)
   113ce:	e3ad                	bnez	a5,11430 <_vfprintf_r+0x1192>
   113d0:	040f7793          	and	a5,t5,64
   113d4:	cbb1                	beqz	a5,11428 <_vfprintf_r+0x118a>
   113d6:	04c2                	sll	s1,s1,0x10
   113d8:	80c1                	srl	s1,s1,0x10
   113da:	4c81                	li	s9,0
   113dc:	bdc1                	j	112ac <_vfprintf_r+0x100e>
   113de:	4b01                	li	s6,0
   113e0:	15010c13          	add	s8,sp,336
   113e4:	eb4ff06f          	j	10a98 <_vfprintf_r+0x7fa>
   113e8:	45a2                	lw	a1,8(sp)
   113ea:	1110                	add	a2,sp,160
   113ec:	854e                	mv	a0,s3
   113ee:	d276                	sw	t4,36(sp)
   113f0:	d07a                	sw	t5,32(sp)
   113f2:	020010ef          	jal	12412 <__sprint_r>
   113f6:	9e051a63          	bnez	a0,105ea <_vfprintf_r+0x34c>
   113fa:	54aa                	lw	s1,168(sp)
   113fc:	5d1a                	lw	s10,164(sp)
   113fe:	5e92                	lw	t4,36(sp)
   11400:	5f02                	lw	t5,32(sp)
   11402:	0ac10a93          	add	s5,sp,172
   11406:	bc59                	j	10e9c <_vfprintf_r+0xbfe>
   11408:	45a2                	lw	a1,8(sp)
   1140a:	1110                	add	a2,sp,160
   1140c:	854e                	mv	a0,s3
   1140e:	d276                	sw	t4,36(sp)
   11410:	d07a                	sw	t5,32(sp)
   11412:	000010ef          	jal	12412 <__sprint_r>
   11416:	9c051a63          	bnez	a0,105ea <_vfprintf_r+0x34c>
   1141a:	54aa                	lw	s1,168(sp)
   1141c:	5d1a                	lw	s10,164(sp)
   1141e:	5e92                	lw	t4,36(sp)
   11420:	5f02                	lw	t5,32(sp)
   11422:	0ac10a93          	add	s5,sp,172
   11426:	bca9                	j	10e80 <_vfprintf_r+0xbe2>
   11428:	200f7793          	and	a5,t5,512
   1142c:	52079c63          	bnez	a5,11964 <_vfprintf_r+0x16c6>
   11430:	4c81                	li	s9,0
   11432:	bdad                	j	112ac <_vfprintf_r+0x100e>
   11434:	ccccdb37          	lui	s6,0xccccd
   11438:	ccccdab7          	lui	s5,0xccccd
   1143c:	5772                	lw	a4,60(sp)
   1143e:	400d7f13          	and	t5,s10,1024
   11442:	4581                	li	a1,0
   11444:	0a90                	add	a2,sp,336
   11446:	4895                	li	a7,5
   11448:	ccdb0b13          	add	s6,s6,-819 # cccccccd <__BSS_END__+0xcccaef85>
   1144c:	ccca8a93          	add	s5,s5,-820 # cccccccc <__BSS_END__+0xcccaef84>
   11450:	0ff00a13          	li	s4,255
   11454:	a081                	j	11494 <_vfprintf_r+0x11f6>
   11456:	009c37b3          	sltu	a5,s8,s1
   1145a:	97e2                	add	a5,a5,s8
   1145c:	0317f7b3          	remu	a5,a5,a7
   11460:	40f487b3          	sub	a5,s1,a5
   11464:	00f4b633          	sltu	a2,s1,a5
   11468:	40cc8633          	sub	a2,s9,a2
   1146c:	03578833          	mul	a6,a5,s5
   11470:	03660633          	mul	a2,a2,s6
   11474:	0367b533          	mulhu	a0,a5,s6
   11478:	9642                	add	a2,a2,a6
   1147a:	036787b3          	mul	a5,a5,s6
   1147e:	962a                	add	a2,a2,a0
   11480:	01f61513          	sll	a0,a2,0x1f
   11484:	8205                	srl	a2,a2,0x1
   11486:	8385                	srl	a5,a5,0x1
   11488:	8fc9                	or	a5,a5,a0
   1148a:	280c83e3          	beqz	s9,11f10 <_vfprintf_r+0x1c72>
   1148e:	8cb2                	mv	s9,a2
   11490:	84be                	mv	s1,a5
   11492:	8636                	mv	a2,a3
   11494:	01948c33          	add	s8,s1,s9
   11498:	009c37b3          	sltu	a5,s8,s1
   1149c:	97e2                	add	a5,a5,s8
   1149e:	0317f7b3          	remu	a5,a5,a7
   114a2:	fff60693          	add	a3,a2,-1
   114a6:	0585                	add	a1,a1,1
   114a8:	40f487b3          	sub	a5,s1,a5
   114ac:	00f4b533          	sltu	a0,s1,a5
   114b0:	40ac8533          	sub	a0,s9,a0
   114b4:	0367b833          	mulhu	a6,a5,s6
   114b8:	03650533          	mul	a0,a0,s6
   114bc:	036787b3          	mul	a5,a5,s6
   114c0:	9542                	add	a0,a0,a6
   114c2:	057e                	sll	a0,a0,0x1f
   114c4:	8385                	srl	a5,a5,0x1
   114c6:	8fc9                	or	a5,a5,a0
   114c8:	00279513          	sll	a0,a5,0x2
   114cc:	97aa                	add	a5,a5,a0
   114ce:	0786                	sll	a5,a5,0x1
   114d0:	40f487b3          	sub	a5,s1,a5
   114d4:	03078793          	add	a5,a5,48
   114d8:	fef60fa3          	sb	a5,-1(a2)
   114dc:	f60f0de3          	beqz	t5,11456 <_vfprintf_r+0x11b8>
   114e0:	00074783          	lbu	a5,0(a4)
   114e4:	f6f599e3          	bne	a1,a5,11456 <_vfprintf_r+0x11b8>
   114e8:	f74587e3          	beq	a1,s4,11456 <_vfprintf_r+0x11b8>
   114ec:	140c98e3          	bnez	s9,11e3c <_vfprintf_r+0x1b9e>
   114f0:	47a5                	li	a5,9
   114f2:	1497e5e3          	bltu	a5,s1,11e3c <_vfprintf_r+0x1b9e>
   114f6:	8c36                	mv	s8,a3
   114f8:	0a9c                	add	a5,sp,336
   114fa:	de3a                	sw	a4,60(sp)
   114fc:	cc2e                	sw	a1,24(sp)
   114fe:	41878b33          	sub	s6,a5,s8
   11502:	8f6a                	mv	t5,s10
   11504:	d94ff06f          	j	10a98 <_vfprintf_r+0x7fa>
   11508:	45a2                	lw	a1,8(sp)
   1150a:	1110                	add	a2,sp,160
   1150c:	854e                	mv	a0,s3
   1150e:	ce9a                	sw	t1,92(sp)
   11510:	ccf6                	sw	t4,88(sp)
   11512:	caf2                	sw	t3,84(sp)
   11514:	c4fa                	sw	t5,72(sp)
   11516:	c296                	sw	t0,68(sp)
   11518:	6fb000ef          	jal	12412 <__sprint_r>
   1151c:	8c051763          	bnez	a0,105ea <_vfprintf_r+0x34c>
   11520:	07714603          	lbu	a2,119(sp)
   11524:	54aa                	lw	s1,168(sp)
   11526:	4376                	lw	t1,92(sp)
   11528:	4ee6                	lw	t4,88(sp)
   1152a:	4e56                	lw	t3,84(sp)
   1152c:	4f26                	lw	t5,72(sp)
   1152e:	4296                	lw	t0,68(sp)
   11530:	1160                	add	s0,sp,172
   11532:	f21fe06f          	j	10452 <_vfprintf_r+0x1b4>
   11536:	854e                	mv	a0,s3
   11538:	5e2020ef          	jal	13b1a <__sinit>
   1153c:	47b2                	lw	a5,12(sp)
   1153e:	da3fe06f          	j	102e0 <_vfprintf_r+0x42>
   11542:	58a2                	lw	a7,40(sp)
   11544:	5732                	lw	a4,44(sp)
   11546:	c29a                	sw	t1,68(sp)
   11548:	8646                	mv	a2,a7
   1154a:	8546                	mv	a0,a7
   1154c:	86ba                	mv	a3,a4
   1154e:	85ba                	mv	a1,a4
   11550:	d276                	sw	t4,36(sp)
   11552:	d072                	sw	t3,32(sp)
   11554:	c87a                	sw	t5,16(sp)
   11556:	1620a0ef          	jal	1b6b8 <__unorddf2>
   1155a:	4f42                	lw	t5,16(sp)
   1155c:	5e02                	lw	t3,32(sp)
   1155e:	5e92                	lw	t4,36(sp)
   11560:	4316                	lw	t1,68(sp)
   11562:	380515e3          	bnez	a0,120ec <_vfprintf_r+0x1e4e>
   11566:	06100713          	li	a4,97
   1156a:	06ee0263          	beq	t3,a4,115ce <_vfprintf_r+0x1330>
   1156e:	04100713          	li	a4,65
   11572:	05800793          	li	a5,88
   11576:	04ee0e63          	beq	t3,a4,115d2 <_vfprintf_r+0x1334>
   1157a:	577d                	li	a4,-1
   1157c:	34e303e3          	beq	t1,a4,120c2 <_vfprintf_r+0x1e24>
   11580:	fdfe7713          	and	a4,t3,-33
   11584:	04700693          	li	a3,71
   11588:	c802                	sw	zero,16(sp)
   1158a:	00d71563          	bne	a4,a3,11594 <_vfprintf_r+0x12f6>
   1158e:	00031363          	bnez	t1,11594 <_vfprintf_r+0x12f6>
   11592:	4305                	li	t1,1
   11594:	100f6793          	or	a5,t5,256
   11598:	8abe                	mv	s5,a5
   1159a:	57b2                	lw	a5,44(sp)
   1159c:	c282                	sw	zero,68(sp)
   1159e:	84be                	mv	s1,a5
   115a0:	0007d863          	bgez	a5,115b0 <_vfprintf_r+0x1312>
   115a4:	800004b7          	lui	s1,0x80000
   115a8:	8cbd                	xor	s1,s1,a5
   115aa:	02d00793          	li	a5,45
   115ae:	c2be                	sw	a5,68(sp)
   115b0:	fbfe0713          	add	a4,t3,-65
   115b4:	02500693          	li	a3,37
   115b8:	26e6e463          	bltu	a3,a4,11820 <_vfprintf_r+0x1582>
   115bc:	0000b697          	auipc	a3,0xb
   115c0:	a4868693          	add	a3,a3,-1464 # 1c004 <__clzsi2+0x524>
   115c4:	070a                	sll	a4,a4,0x2
   115c6:	9736                	add	a4,a4,a3
   115c8:	4318                	lw	a4,0(a4)
   115ca:	9736                	add	a4,a4,a3
   115cc:	8702                	jr	a4
   115ce:	07800793          	li	a5,120
   115d2:	03000713          	li	a4,48
   115d6:	06e10c23          	sb	a4,120(sp)
   115da:	06f10ca3          	sb	a5,121(sp)
   115de:	06300713          	li	a4,99
   115e2:	c802                	sw	zero,16(sp)
   115e4:	002f6f13          	or	t5,t5,2
   115e8:	0ec10c13          	add	s8,sp,236
   115ec:	fa6754e3          	bge	a4,t1,11594 <_vfprintf_r+0x12f6>
   115f0:	00130593          	add	a1,t1,1
   115f4:	854e                	mv	a0,s3
   115f6:	d276                	sw	t4,36(sp)
   115f8:	d072                	sw	t3,32(sp)
   115fa:	cc7a                	sw	t5,24(sp)
   115fc:	c81a                	sw	t1,16(sp)
   115fe:	3c2050ef          	jal	169c0 <_malloc_r>
   11602:	4342                	lw	t1,16(sp)
   11604:	4f62                	lw	t5,24(sp)
   11606:	5e02                	lw	t3,32(sp)
   11608:	5e92                	lw	t4,36(sp)
   1160a:	8c2a                	mv	s8,a0
   1160c:	44050fe3          	beqz	a0,1226a <_vfprintf_r+0x1fcc>
   11610:	c82a                	sw	a0,16(sp)
   11612:	b749                	j	11594 <_vfprintf_r+0x12f6>
   11614:	45a2                	lw	a1,8(sp)
   11616:	1110                	add	a2,sp,160
   11618:	854e                	mv	a0,s3
   1161a:	d276                	sw	t4,36(sp)
   1161c:	d07a                	sw	t5,32(sp)
   1161e:	5f5000ef          	jal	12412 <__sprint_r>
   11622:	c119                	beqz	a0,11628 <_vfprintf_r+0x138a>
   11624:	fc7fe06f          	j	105ea <_vfprintf_r+0x34c>
   11628:	54aa                	lw	s1,168(sp)
   1162a:	5d1a                	lw	s10,164(sp)
   1162c:	5f02                	lw	t5,32(sp)
   1162e:	5e92                	lw	t4,36(sp)
   11630:	0ac10a93          	add	s5,sp,172
   11634:	b05d                	j	10eda <_vfprintf_r+0xc3c>
   11636:	45a2                	lw	a1,8(sp)
   11638:	1110                	add	a2,sp,160
   1163a:	854e                	mv	a0,s3
   1163c:	d276                	sw	t4,36(sp)
   1163e:	d07a                	sw	t5,32(sp)
   11640:	5d3000ef          	jal	12412 <__sprint_r>
   11644:	c119                	beqz	a0,1164a <_vfprintf_r+0x13ac>
   11646:	fa5fe06f          	j	105ea <_vfprintf_r+0x34c>
   1164a:	54aa                	lw	s1,168(sp)
   1164c:	5e92                	lw	t4,36(sp)
   1164e:	5f02                	lw	t5,32(sp)
   11650:	1160                	add	s0,sp,172
   11652:	d94ff06f          	j	10be6 <_vfprintf_r+0x948>
   11656:	4621                	li	a2,8
   11658:	4581                	li	a1,0
   1165a:	0928                	add	a0,sp,152
   1165c:	d21a                	sw	t1,36(sp)
   1165e:	d076                	sw	t4,32(sp)
   11660:	ca72                	sw	t3,20(sp)
   11662:	c87a                	sw	t5,16(sp)
   11664:	c362                	sw	s8,132(sp)
   11666:	7a8030ef          	jal	14e0e <memset>
   1166a:	5312                	lw	t1,36(sp)
   1166c:	4f42                	lw	t5,16(sp)
   1166e:	4e52                	lw	t3,20(sp)
   11670:	5e82                	lw	t4,32(sp)
   11672:	5e034c63          	bltz	t1,11c6a <_vfprintf_r+0x19cc>
   11676:	4b01                	li	s6,0
   11678:	c84a                	sw	s2,16(sp)
   1167a:	4c81                	li	s9,0
   1167c:	895a                	mv	s2,s6
   1167e:	54fd                	li	s1,-1
   11680:	8b56                	mv	s6,s5
   11682:	8a7a                	mv	s4,t5
   11684:	8aa2                	mv	s5,s0
   11686:	8d72                	mv	s10,t3
   11688:	ca76                	sw	t4,20(sp)
   1168a:	841a                	mv	s0,t1
   1168c:	a005                	j	116ac <_vfprintf_r+0x140e>
   1168e:	0934                	add	a3,sp,152
   11690:	11ec                	add	a1,sp,236
   11692:	854e                	mv	a0,s3
   11694:	41d030ef          	jal	152b0 <_wcrtomb_r>
   11698:	229509e3          	beq	a0,s1,120ca <_vfprintf_r+0x1e2c>
   1169c:	00a907b3          	add	a5,s2,a0
   116a0:	00f44a63          	blt	s0,a5,116b4 <_vfprintf_r+0x1416>
   116a4:	0c91                	add	s9,s9,4
   116a6:	2c878de3          	beq	a5,s0,12180 <_vfprintf_r+0x1ee2>
   116aa:	893e                	mv	s2,a5
   116ac:	479a                	lw	a5,132(sp)
   116ae:	97e6                	add	a5,a5,s9
   116b0:	4390                	lw	a2,0(a5)
   116b2:	fe71                	bnez	a2,1168e <_vfprintf_r+0x13f0>
   116b4:	8456                	mv	s0,s5
   116b6:	4ed2                	lw	t4,20(sp)
   116b8:	8ada                	mv	s5,s6
   116ba:	8b4a                	mv	s6,s2
   116bc:	4942                	lw	s2,16(sp)
   116be:	8f52                	mv	t5,s4
   116c0:	8e6a                	mv	t3,s10
   116c2:	7e0b0c63          	beqz	s6,11eba <_vfprintf_r+0x1c1c>
   116c6:	06300793          	li	a5,99
   116ca:	0f67d6e3          	bge	a5,s6,11fb6 <_vfprintf_r+0x1d18>
   116ce:	001b0593          	add	a1,s6,1
   116d2:	854e                	mv	a0,s3
   116d4:	d076                	sw	t4,32(sp)
   116d6:	ca72                	sw	t3,20(sp)
   116d8:	c87a                	sw	t5,16(sp)
   116da:	2e6050ef          	jal	169c0 <_malloc_r>
   116de:	4f42                	lw	t5,16(sp)
   116e0:	4e52                	lw	t3,20(sp)
   116e2:	5e82                	lw	t4,32(sp)
   116e4:	8c2a                	mv	s8,a0
   116e6:	1e0502e3          	beqz	a0,120ca <_vfprintf_r+0x1e2c>
   116ea:	c82a                	sw	a0,16(sp)
   116ec:	4621                	li	a2,8
   116ee:	4581                	li	a1,0
   116f0:	0928                	add	a0,sp,152
   116f2:	d276                	sw	t4,36(sp)
   116f4:	d072                	sw	t3,32(sp)
   116f6:	ca7a                	sw	t5,20(sp)
   116f8:	716030ef          	jal	14e0e <memset>
   116fc:	0938                	add	a4,sp,152
   116fe:	86da                	mv	a3,s6
   11700:	0150                	add	a2,sp,132
   11702:	85e2                	mv	a1,s8
   11704:	854e                	mv	a0,s3
   11706:	459030ef          	jal	1535e <_wcsrtombs_r>
   1170a:	4f52                	lw	t5,20(sp)
   1170c:	5e02                	lw	t3,32(sp)
   1170e:	5e92                	lw	t4,36(sp)
   11710:	36ab1ae3          	bne	s6,a0,12284 <_vfprintf_r+0x1fe6>
   11714:	016c0733          	add	a4,s8,s6
   11718:	00070023          	sb	zero,0(a4)
   1171c:	07714603          	lbu	a2,119(sp)
   11720:	fffb4813          	not	a6,s6
   11724:	41f85813          	sra	a6,a6,0x1f
   11728:	ca56                	sw	s5,20(sp)
   1172a:	d202                	sw	zero,36(sp)
   1172c:	d002                	sw	zero,32(sp)
   1172e:	010b7cb3          	and	s9,s6,a6
   11732:	4301                	li	t1,0
   11734:	4a01                	li	s4,0
   11736:	e219                	bnez	a2,1173c <_vfprintf_r+0x149e>
   11738:	cfffe06f          	j	10436 <_vfprintf_r+0x198>
   1173c:	fd9fe06f          	j	10714 <_vfprintf_r+0x476>
   11740:	8ea6                	mv	t4,s1
   11742:	8f62                	mv	t5,s8
   11744:	84ba                	mv	s1,a4
   11746:	82d2                	mv	t0,s4
   11748:	00542023          	sw	t0,0(s0)
   1174c:	01a42223          	sw	s10,4(s0)
   11750:	94ea                	add	s1,s1,s10
   11752:	0785                	add	a5,a5,1
   11754:	d526                	sw	s1,168(sp)
   11756:	d33e                	sw	a5,164(sp)
   11758:	471d                	li	a4,7
   1175a:	00f74463          	blt	a4,a5,11762 <_vfprintf_r+0x14c4>
   1175e:	d61fe06f          	j	104be <_vfprintf_r+0x220>
   11762:	8b0ff06f          	j	10812 <_vfprintf_r+0x574>
   11766:	47d2                	lw	a5,20(sp)
   11768:	4732                	lw	a4,12(sp)
   1176a:	439c                	lw	a5,0(a5)
   1176c:	c398                	sw	a4,0(a5)
   1176e:	c28ff06f          	j	10b96 <_vfprintf_r+0x8f8>
   11772:	5f02                	lw	t5,32(sp)
   11774:	8ea6                	mv	t4,s1
   11776:	82a2                	mv	t0,s0
   11778:	84be                	mv	s1,a5
   1177a:	8452                	mv	s0,s4
   1177c:	94a2                	add	s1,s1,s0
   1177e:	0d05                	add	s10,s10,1
   11780:	005aa023          	sw	t0,0(s5)
   11784:	f46ff06f          	j	10eca <_vfprintf_r+0xc2c>
   11788:	4641                	li	a2,16
   1178a:	569a                	lw	a3,164(sp)
   1178c:	0000b297          	auipc	t0,0xb
   11790:	91028293          	add	t0,t0,-1776 # 1c09c <zeroes.0>
   11794:	05565a63          	bge	a2,s5,117e8 <_vfprintf_r+0x154a>
   11798:	87a2                	mv	a5,s0
   1179a:	8726                	mv	a4,s1
   1179c:	4d22                	lw	s10,8(sp)
   1179e:	48c1                	li	a7,16
   117a0:	4b1d                	li	s6,7
   117a2:	c2fa                	sw	t5,68(sp)
   117a4:	84f6                	mv	s1,t4
   117a6:	8416                	mv	s0,t0
   117a8:	a021                	j	117b0 <_vfprintf_r+0x1512>
   117aa:	1ac1                	add	s5,s5,-16
   117ac:	0358d963          	bge	a7,s5,117de <_vfprintf_r+0x1540>
   117b0:	0741                	add	a4,a4,16
   117b2:	0685                	add	a3,a3,1
   117b4:	c380                	sw	s0,0(a5)
   117b6:	0117a223          	sw	a7,4(a5)
   117ba:	d53a                	sw	a4,168(sp)
   117bc:	d336                	sw	a3,164(sp)
   117be:	07a1                	add	a5,a5,8
   117c0:	fedb55e3          	bge	s6,a3,117aa <_vfprintf_r+0x150c>
   117c4:	1110                	add	a2,sp,160
   117c6:	85ea                	mv	a1,s10
   117c8:	854e                	mv	a0,s3
   117ca:	449000ef          	jal	12412 <__sprint_r>
   117ce:	c119                	beqz	a0,117d4 <_vfprintf_r+0x1536>
   117d0:	e1bfe06f          	j	105ea <_vfprintf_r+0x34c>
   117d4:	572a                	lw	a4,168(sp)
   117d6:	569a                	lw	a3,164(sp)
   117d8:	117c                	add	a5,sp,172
   117da:	48c1                	li	a7,16
   117dc:	b7f9                	j	117aa <_vfprintf_r+0x150c>
   117de:	4f16                	lw	t5,68(sp)
   117e0:	8ea6                	mv	t4,s1
   117e2:	82a2                	mv	t0,s0
   117e4:	84ba                	mv	s1,a4
   117e6:	843e                	mv	s0,a5
   117e8:	94d6                	add	s1,s1,s5
   117ea:	0685                	add	a3,a3,1
   117ec:	00542023          	sw	t0,0(s0)
   117f0:	01542223          	sw	s5,4(s0)
   117f4:	d526                	sw	s1,168(sp)
   117f6:	d336                	sw	a3,164(sp)
   117f8:	471d                	li	a4,7
   117fa:	0421                	add	s0,s0,8
   117fc:	f8d75263          	bge	a4,a3,10f80 <_vfprintf_r+0xce2>
   11800:	45a2                	lw	a1,8(sp)
   11802:	1110                	add	a2,sp,160
   11804:	854e                	mv	a0,s3
   11806:	c4f6                	sw	t4,72(sp)
   11808:	c2fa                	sw	t5,68(sp)
   1180a:	409000ef          	jal	12412 <__sprint_r>
   1180e:	c119                	beqz	a0,11814 <_vfprintf_r+0x1576>
   11810:	ddbfe06f          	j	105ea <_vfprintf_r+0x34c>
   11814:	54aa                	lw	s1,168(sp)
   11816:	4ea6                	lw	t4,72(sp)
   11818:	4f16                	lw	t5,68(sp)
   1181a:	1160                	add	s0,sp,172
   1181c:	f64ff06f          	j	10f80 <_vfprintf_r+0xce2>
   11820:	5722                	lw	a4,40(sp)
   11822:	09810893          	add	a7,sp,152
   11826:	08410813          	add	a6,sp,132
   1182a:	853a                	mv	a0,a4
   1182c:	85aa                	mv	a1,a0
   1182e:	871a                	mv	a4,t1
   11830:	18fc                	add	a5,sp,124
   11832:	4689                	li	a3,2
   11834:	8626                	mv	a2,s1
   11836:	854e                	mv	a0,s3
   11838:	c4f6                	sw	t4,72(sp)
   1183a:	d272                	sw	t3,36(sp)
   1183c:	d07a                	sw	t5,32(sp)
   1183e:	cc1a                	sw	t1,24(sp)
   11840:	685030ef          	jal	156c4 <_dtoa_r>
   11844:	5f02                	lw	t5,32(sp)
   11846:	4362                	lw	t1,24(sp)
   11848:	5e12                	lw	t3,36(sp)
   1184a:	001f7713          	and	a4,t5,1
   1184e:	4ea6                	lw	t4,72(sp)
   11850:	8c2a                	mv	s8,a0
   11852:	6c071463          	bnez	a4,11f1a <_vfprintf_r+0x1c7c>
   11856:	4b6a                	lw	s6,152(sp)
   11858:	5a76                	lw	s4,124(sp)
   1185a:	40ab07b3          	sub	a5,s6,a0
   1185e:	cc3e                	sw	a5,24(sp)
   11860:	5775                	li	a4,-3
   11862:	00ea4463          	blt	s4,a4,1186a <_vfprintf_r+0x15cc>
   11866:	59435763          	bge	t1,s4,11df4 <_vfprintf_r+0x1b56>
   1186a:	1e79                	add	t3,t3,-2
   1186c:	fffa0313          	add	t1,s4,-1
   11870:	de9a                	sw	t1,124(sp)
   11872:	0ffe7713          	zext.b	a4,t3
   11876:	4681                	li	a3,0
   11878:	08e10423          	sb	a4,136(sp)
   1187c:	02b00713          	li	a4,43
   11880:	00035763          	bgez	t1,1188e <_vfprintf_r+0x15f0>
   11884:	4305                	li	t1,1
   11886:	41430333          	sub	t1,t1,s4
   1188a:	02d00713          	li	a4,45
   1188e:	08e104a3          	sb	a4,137(sp)
   11892:	4725                	li	a4,9
   11894:	006752e3          	bge	a4,t1,12098 <_vfprintf_r+0x1dfa>
   11898:	09f10893          	add	a7,sp,159
   1189c:	8fc6                	mv	t6,a7
   1189e:	4629                	li	a2,10
   118a0:	06300513          	li	a0,99
   118a4:	02c367b3          	rem	a5,t1,a2
   118a8:	887e                	mv	a6,t6
   118aa:	871a                	mv	a4,t1
   118ac:	1ffd                	add	t6,t6,-1
   118ae:	03078793          	add	a5,a5,48
   118b2:	fef80fa3          	sb	a5,-1(a6)
   118b6:	02c34333          	div	t1,t1,a2
   118ba:	fee545e3          	blt	a0,a4,118a4 <_vfprintf_r+0x1606>
   118be:	03030313          	add	t1,t1,48
   118c2:	ffe80713          	add	a4,a6,-2
   118c6:	fe6f8fa3          	sb	t1,-1(t6)
   118ca:	19177ce3          	bgeu	a4,a7,12262 <_vfprintf_r+0x1fc4>
   118ce:	08a10693          	add	a3,sp,138
   118d2:	00074783          	lbu	a5,0(a4)
   118d6:	0705                	add	a4,a4,1
   118d8:	0685                	add	a3,a3,1
   118da:	fef68fa3          	sb	a5,-1(a3)
   118de:	ff171ae3          	bne	a4,a7,118d2 <_vfprintf_r+0x1634>
   118e2:	0a9c                	add	a5,sp,336
   118e4:	41078733          	sub	a4,a5,a6
   118e8:	f5370793          	add	a5,a4,-173
   118ec:	c0be                	sw	a5,64(sp)
   118ee:	47e2                	lw	a5,24(sp)
   118f0:	4686                	lw	a3,64(sp)
   118f2:	4705                	li	a4,1
   118f4:	00d78b33          	add	s6,a5,a3
   118f8:	7ef75463          	bge	a4,a5,120e0 <_vfprintf_r+0x1e42>
   118fc:	57c2                	lw	a5,48(sp)
   118fe:	9b3e                	add	s6,s6,a5
   11900:	fffb4813          	not	a6,s6
   11904:	bfff7f13          	and	t5,t5,-1025
   11908:	41f85813          	sra	a6,a6,0x1f
   1190c:	100f6f13          	or	t5,t5,256
   11910:	010b7cb3          	and	s9,s6,a6
   11914:	d202                	sw	zero,36(sp)
   11916:	d002                	sw	zero,32(sp)
   11918:	4a01                	li	s4,0
   1191a:	4796                	lw	a5,68(sp)
   1191c:	32079d63          	bnez	a5,11c56 <_vfprintf_r+0x19b8>
   11920:	07714603          	lbu	a2,119(sp)
   11924:	4301                	li	t1,0
   11926:	e219                	bnez	a2,1192c <_vfprintf_r+0x168e>
   11928:	b0ffe06f          	j	10436 <_vfprintf_r+0x198>
   1192c:	de9fe06f          	j	10714 <_vfprintf_r+0x476>
   11930:	45a2                	lw	a1,8(sp)
   11932:	1110                	add	a2,sp,160
   11934:	854e                	mv	a0,s3
   11936:	d276                	sw	t4,36(sp)
   11938:	d07a                	sw	t5,32(sp)
   1193a:	2d9000ef          	jal	12412 <__sprint_r>
   1193e:	c119                	beqz	a0,11944 <_vfprintf_r+0x16a6>
   11940:	cabfe06f          	j	105ea <_vfprintf_r+0x34c>
   11944:	5676                	lw	a2,124(sp)
   11946:	54aa                	lw	s1,168(sp)
   11948:	5e92                	lw	t4,36(sp)
   1194a:	5f02                	lw	t5,32(sp)
   1194c:	1160                	add	s0,sp,172
   1194e:	83fff06f          	j	1118c <_vfprintf_r+0xeee>
   11952:	4c99                	li	s9,6
   11954:	bae9                	j	1132e <_vfprintf_r+0x1090>
   11956:	47d2                	lw	a5,20(sp)
   11958:	4732                	lw	a4,12(sp)
   1195a:	439c                	lw	a5,0(a5)
   1195c:	00e79023          	sh	a4,0(a5)
   11960:	a36ff06f          	j	10b96 <_vfprintf_r+0x8f8>
   11964:	0ff4f493          	zext.b	s1,s1
   11968:	4c81                	li	s9,0
   1196a:	b289                	j	112ac <_vfprintf_r+0x100e>
   1196c:	04e2                	sll	s1,s1,0x18
   1196e:	84e1                	sra	s1,s1,0x18
   11970:	41f4dc93          	sra	s9,s1,0x1f
   11974:	87e6                	mv	a5,s9
   11976:	99cff06f          	j	10b12 <_vfprintf_r+0x874>
   1197a:	0ff4f493          	zext.b	s1,s1
   1197e:	4c81                	li	s9,0
   11980:	8e8ff06f          	j	10a68 <_vfprintf_r+0x7ca>
   11984:	45a2                	lw	a1,8(sp)
   11986:	1110                	add	a2,sp,160
   11988:	854e                	mv	a0,s3
   1198a:	289000ef          	jal	12412 <__sprint_r>
   1198e:	e119                	bnez	a0,11994 <_vfprintf_r+0x16f6>
   11990:	c33fe06f          	j	105c2 <_vfprintf_r+0x324>
   11994:	c65fe06f          	j	105f8 <_vfprintf_r+0x35a>
   11998:	8562                	mv	a0,s8
   1199a:	c4f6                	sw	t4,72(sp)
   1199c:	c2fa                	sw	t5,68(sp)
   1199e:	65e030ef          	jal	14ffc <strlen>
   119a2:	07714603          	lbu	a2,119(sp)
   119a6:	fff54813          	not	a6,a0
   119aa:	41f85813          	sra	a6,a6,0x1f
   119ae:	ca56                	sw	s5,20(sp)
   119b0:	d202                	sw	zero,36(sp)
   119b2:	d002                	sw	zero,32(sp)
   119b4:	c802                	sw	zero,16(sp)
   119b6:	4f16                	lw	t5,68(sp)
   119b8:	4ea6                	lw	t4,72(sp)
   119ba:	8b2a                	mv	s6,a0
   119bc:	01057cb3          	and	s9,a0,a6
   119c0:	4301                	li	t1,0
   119c2:	07300e13          	li	t3,115
   119c6:	e219                	bnez	a2,119cc <_vfprintf_r+0x172e>
   119c8:	a6ffe06f          	j	10436 <_vfprintf_r+0x198>
   119cc:	d49fe06f          	j	10714 <_vfprintf_r+0x476>
   119d0:	45a2                	lw	a1,8(sp)
   119d2:	1110                	add	a2,sp,160
   119d4:	854e                	mv	a0,s3
   119d6:	d276                	sw	t4,36(sp)
   119d8:	d07a                	sw	t5,32(sp)
   119da:	239000ef          	jal	12412 <__sprint_r>
   119de:	c119                	beqz	a0,119e4 <_vfprintf_r+0x1746>
   119e0:	c0bfe06f          	j	105ea <_vfprintf_r+0x34c>
   119e4:	5676                	lw	a2,124(sp)
   119e6:	55aa                	lw	a1,168(sp)
   119e8:	571a                	lw	a4,164(sp)
   119ea:	5e92                	lw	t4,36(sp)
   119ec:	5f02                	lw	t5,32(sp)
   119ee:	1160                	add	s0,sp,172
   119f0:	e03fe06f          	j	107f2 <_vfprintf_r+0x554>
   119f4:	4e28                	lw	a0,88(a2)
   119f6:	c63e                	sw	a5,12(sp)
   119f8:	0b7030ef          	jal	152ae <__retarget_lock_release_recursive>
   119fc:	47b2                	lw	a5,12(sp)
   119fe:	b33fe06f          	j	10530 <_vfprintf_r+0x292>
   11a02:	00130b13          	add	s6,t1,1
   11a06:	4689                	li	a3,2
   11a08:	5722                	lw	a4,40(sp)
   11a0a:	08410813          	add	a6,sp,132
   11a0e:	09810893          	add	a7,sp,152
   11a12:	853a                	mv	a0,a4
   11a14:	85aa                	mv	a1,a0
   11a16:	875a                	mv	a4,s6
   11a18:	18fc                	add	a5,sp,124
   11a1a:	8626                	mv	a2,s1
   11a1c:	854e                	mv	a0,s3
   11a1e:	c49a                	sw	t1,72(sp)
   11a20:	d276                	sw	t4,36(sp)
   11a22:	d072                	sw	t3,32(sp)
   11a24:	cc7a                	sw	t5,24(sp)
   11a26:	49f030ef          	jal	156c4 <_dtoa_r>
   11a2a:	5e02                	lw	t3,32(sp)
   11a2c:	04600693          	li	a3,70
   11a30:	4f62                	lw	t5,24(sp)
   11a32:	fdfe7813          	and	a6,t3,-33
   11a36:	5e92                	lw	t4,36(sp)
   11a38:	4326                	lw	t1,72(sp)
   11a3a:	8c2a                	mv	s8,a0
   11a3c:	01650733          	add	a4,a0,s6
   11a40:	02d81ee3          	bne	a6,a3,1227c <_vfprintf_r+0x1fde>
   11a44:	000c4603          	lbu	a2,0(s8)
   11a48:	03000693          	li	a3,48
   11a4c:	50d60263          	beq	a2,a3,11f50 <_vfprintf_r+0x1cb2>
   11a50:	56f6                	lw	a3,124(sp)
   11a52:	9736                	add	a4,a4,a3
   11a54:	56a2                	lw	a3,40(sp)
   11a56:	85a6                	mv	a1,s1
   11a58:	4601                	li	a2,0
   11a5a:	8536                	mv	a0,a3
   11a5c:	4681                	li	a3,0
   11a5e:	ccba                	sw	a4,88(sp)
   11a60:	ca9a                	sw	t1,84(sp)
   11a62:	c4f6                	sw	t4,72(sp)
   11a64:	d272                	sw	t3,36(sp)
   11a66:	d07a                	sw	t5,32(sp)
   11a68:	cc42                	sw	a6,24(sp)
   11a6a:	5f7080ef          	jal	1a860 <__eqdf2>
   11a6e:	4862                	lw	a6,24(sp)
   11a70:	5f02                	lw	t5,32(sp)
   11a72:	5e12                	lw	t3,36(sp)
   11a74:	4ea6                	lw	t4,72(sp)
   11a76:	4356                	lw	t1,84(sp)
   11a78:	4766                	lw	a4,88(sp)
   11a7a:	4a050563          	beqz	a0,11f24 <_vfprintf_r+0x1c86>
   11a7e:	4b6a                	lw	s6,152(sp)
   11a80:	00eb7c63          	bgeu	s6,a4,11a98 <_vfprintf_r+0x17fa>
   11a84:	03000613          	li	a2,48
   11a88:	001b0793          	add	a5,s6,1
   11a8c:	cd3e                	sw	a5,152(sp)
   11a8e:	00cb0023          	sb	a2,0(s6)
   11a92:	4b6a                	lw	s6,152(sp)
   11a94:	feeb6ae3          	bltu	s6,a4,11a88 <_vfprintf_r+0x17ea>
   11a98:	5a76                	lw	s4,124(sp)
   11a9a:	418b07b3          	sub	a5,s6,s8
   11a9e:	04700713          	li	a4,71
   11aa2:	cc3e                	sw	a5,24(sp)
   11aa4:	dae80ee3          	beq	a6,a4,11860 <_vfprintf_r+0x15c2>
   11aa8:	04600713          	li	a4,70
   11aac:	4ce80c63          	beq	a6,a4,11f84 <_vfprintf_r+0x1ce6>
   11ab0:	fffa0313          	add	t1,s4,-1
   11ab4:	bb75                	j	11870 <_vfprintf_r+0x15d2>
   11ab6:	5722                	lw	a4,40(sp)
   11ab8:	18f0                	add	a2,sp,124
   11aba:	85a6                	mv	a1,s1
   11abc:	853a                	mv	a0,a4
   11abe:	c09a                	sw	t1,64(sp)
   11ac0:	d276                	sw	t4,36(sp)
   11ac2:	d072                	sw	t3,32(sp)
   11ac4:	cc7a                	sw	t5,24(sp)
   11ac6:	155030ef          	jal	1541a <frexp>
   11aca:	0000c717          	auipc	a4,0xc
   11ace:	c0e70713          	add	a4,a4,-1010 # 1d6d8 <__SDATA_BEGIN__+0x8>
   11ad2:	4310                	lw	a2,0(a4)
   11ad4:	4354                	lw	a3,4(a4)
   11ad6:	777080ef          	jal	1aa4c <__muldf3>
   11ada:	4601                	li	a2,0
   11adc:	4681                	li	a3,0
   11ade:	8b2a                	mv	s6,a0
   11ae0:	8d2e                	mv	s10,a1
   11ae2:	57f080ef          	jal	1a860 <__eqdf2>
   11ae6:	4f62                	lw	t5,24(sp)
   11ae8:	5e02                	lw	t3,32(sp)
   11aea:	5e92                	lw	t4,36(sp)
   11aec:	4306                	lw	t1,64(sp)
   11aee:	e119                	bnez	a0,11af4 <_vfprintf_r+0x1856>
   11af0:	4705                	li	a4,1
   11af2:	deba                	sw	a4,124(sp)
   11af4:	0000a797          	auipc	a5,0xa
   11af8:	08c78793          	add	a5,a5,140 # 1bb80 <__clzsi2+0xa0>
   11afc:	06100713          	li	a4,97
   11b00:	d03e                	sw	a5,32(sp)
   11b02:	00ee1763          	bne	t3,a4,11b10 <_vfprintf_r+0x1872>
   11b06:	0000a797          	auipc	a5,0xa
   11b0a:	06678793          	add	a5,a5,102 # 1bb6c <__clzsi2+0x8c>
   11b0e:	d03e                	sw	a5,32(sp)
   11b10:	0000c717          	auipc	a4,0xc
   11b14:	bd070713          	add	a4,a4,-1072 # 1d6e0 <__SDATA_BEGIN__+0x10>
   11b18:	431c                	lw	a5,0(a4)
   11b1a:	00472803          	lw	a6,4(a4)
   11b1e:	d24a                	sw	s2,36(sp)
   11b20:	cc3e                	sw	a5,24(sp)
   11b22:	87ea                	mv	a5,s10
   11b24:	895a                	mv	s2,s6
   11b26:	8d62                	mv	s10,s8
   11b28:	8b22                	mv	s6,s0
   11b2a:	5482                	lw	s1,32(sp)
   11b2c:	8462                	mv	s0,s8
   11b2e:	ce42                	sw	a6,28(sp)
   11b30:	8c4e                	mv	s8,s3
   11b32:	fff30a93          	add	s5,t1,-1
   11b36:	5cfd                	li	s9,-1
   11b38:	c0fa                	sw	t5,64(sp)
   11b3a:	c4f2                	sw	t3,72(sp)
   11b3c:	caf6                	sw	t4,84(sp)
   11b3e:	89be                	mv	s3,a5
   11b40:	a811                	j	11b54 <_vfprintf_r+0x18b6>
   11b42:	4601                	li	a2,0
   11b44:	4681                	li	a3,0
   11b46:	fffa8a13          	add	s4,s5,-1
   11b4a:	517080ef          	jal	1a860 <__eqdf2>
   11b4e:	66050263          	beqz	a0,121b2 <_vfprintf_r+0x1f14>
   11b52:	8ad2                	mv	s5,s4
   11b54:	4662                	lw	a2,24(sp)
   11b56:	46f2                	lw	a3,28(sp)
   11b58:	854a                	mv	a0,s2
   11b5a:	85ce                	mv	a1,s3
   11b5c:	6f1080ef          	jal	1aa4c <__muldf3>
   11b60:	892e                	mv	s2,a1
   11b62:	89aa                	mv	s3,a0
   11b64:	391090ef          	jal	1b6f4 <__fixdfsi>
   11b68:	8a2a                	mv	s4,a0
   11b6a:	3f1090ef          	jal	1b75a <__floatsidf>
   11b6e:	86ae                	mv	a3,a1
   11b70:	862a                	mv	a2,a0
   11b72:	85ca                	mv	a1,s2
   11b74:	854e                	mv	a0,s3
   11b76:	3f4090ef          	jal	1af6a <__subdf3>
   11b7a:	01448733          	add	a4,s1,s4
   11b7e:	00074683          	lbu	a3,0(a4)
   11b82:	8822                	mv	a6,s0
   11b84:	892a                	mv	s2,a0
   11b86:	00d40023          	sb	a3,0(s0)
   11b8a:	89ae                	mv	s3,a1
   11b8c:	0405                	add	s0,s0,1
   11b8e:	fb9a9ae3          	bne	s5,s9,11b42 <_vfprintf_r+0x18a4>
   11b92:	0000c697          	auipc	a3,0xc
   11b96:	b5668693          	add	a3,a3,-1194 # 1d6e8 <__SDATA_BEGIN__+0x18>
   11b9a:	0006a303          	lw	t1,0(a3)
   11b9e:	0046a383          	lw	t2,4(a3)
   11ba2:	4f06                	lw	t5,64(sp)
   11ba4:	4ed6                	lw	t4,84(sp)
   11ba6:	861a                	mv	a2,t1
   11ba8:	869e                	mv	a3,t2
   11baa:	ccfa                	sw	t5,88(sp)
   11bac:	c0f6                	sw	t4,64(sp)
   11bae:	cc42                	sw	a6,24(sp)
   11bb0:	84a2                	mv	s1,s0
   11bb2:	89e2                	mv	s3,s8
   11bb4:	845a                	mv	s0,s6
   11bb6:	8c6a                	mv	s8,s10
   11bb8:	8b2a                	mv	s6,a0
   11bba:	8d2e                	mv	s10,a1
   11bbc:	511080ef          	jal	1a8cc <__gedf2>
   11bc0:	0000c797          	auipc	a5,0xc
   11bc4:	b2878793          	add	a5,a5,-1240 # 1d6e8 <__SDATA_BEGIN__+0x18>
   11bc8:	5912                	lw	s2,36(sp)
   11bca:	0007a303          	lw	t1,0(a5)
   11bce:	0047a383          	lw	t2,4(a5)
   11bd2:	4862                	lw	a6,24(sp)
   11bd4:	4e86                	lw	t4,64(sp)
   11bd6:	4e26                	lw	t3,72(sp)
   11bd8:	4f66                	lw	t5,88(sp)
   11bda:	60a05e63          	blez	a0,121f6 <_vfprintf_r+0x1f58>
   11bde:	5782                	lw	a5,32(sp)
   11be0:	cd42                	sw	a6,152(sp)
   11be2:	fff4c603          	lbu	a2,-1(s1) # 7fffffff <__BSS_END__+0x7ffe22b7>
   11be6:	00f7c583          	lbu	a1,15(a5)
   11bea:	86a6                	mv	a3,s1
   11bec:	00b61e63          	bne	a2,a1,11c08 <_vfprintf_r+0x196a>
   11bf0:	03000513          	li	a0,48
   11bf4:	fea68fa3          	sb	a0,-1(a3)
   11bf8:	46ea                	lw	a3,152(sp)
   11bfa:	fff68793          	add	a5,a3,-1
   11bfe:	cd3e                	sw	a5,152(sp)
   11c00:	fff6c603          	lbu	a2,-1(a3)
   11c04:	feb608e3          	beq	a2,a1,11bf4 <_vfprintf_r+0x1956>
   11c08:	00160593          	add	a1,a2,1
   11c0c:	03900513          	li	a0,57
   11c10:	0ff5f593          	zext.b	a1,a1
   11c14:	02a60b63          	beq	a2,a0,11c4a <_vfprintf_r+0x19ac>
   11c18:	feb68fa3          	sb	a1,-1(a3)
   11c1c:	8b26                	mv	s6,s1
   11c1e:	5a76                	lw	s4,124(sp)
   11c20:	418b07b3          	sub	a5,s6,s8
   11c24:	06100693          	li	a3,97
   11c28:	fffa0313          	add	t1,s4,-1
   11c2c:	cc3e                	sw	a5,24(sp)
   11c2e:	de9a                	sw	t1,124(sp)
   11c30:	07000713          	li	a4,112
   11c34:	00de0663          	beq	t3,a3,11c40 <_vfprintf_r+0x19a2>
   11c38:	05000713          	li	a4,80
   11c3c:	04100e13          	li	t3,65
   11c40:	4685                	li	a3,1
   11c42:	b91d                	j	11878 <_vfprintf_r+0x15da>
   11c44:	8b1a                	mv	s6,t1
   11c46:	468d                	li	a3,3
   11c48:	b3c1                	j	11a08 <_vfprintf_r+0x176a>
   11c4a:	5782                	lw	a5,32(sp)
   11c4c:	00a7c583          	lbu	a1,10(a5)
   11c50:	feb68fa3          	sb	a1,-1(a3)
   11c54:	b7e1                	j	11c1c <_vfprintf_r+0x197e>
   11c56:	02d00713          	li	a4,45
   11c5a:	06e10ba3          	sb	a4,119(sp)
   11c5e:	02d00613          	li	a2,45
   11c62:	4301                	li	t1,0
   11c64:	0c85                	add	s9,s9,1
   11c66:	fd0fe06f          	j	10436 <_vfprintf_r+0x198>
   11c6a:	0938                	add	a4,sp,152
   11c6c:	4681                	li	a3,0
   11c6e:	0150                	add	a2,sp,132
   11c70:	4581                	li	a1,0
   11c72:	854e                	mv	a0,s3
   11c74:	d076                	sw	t4,32(sp)
   11c76:	ca72                	sw	t3,20(sp)
   11c78:	c87a                	sw	t5,16(sp)
   11c7a:	6e4030ef          	jal	1535e <_wcsrtombs_r>
   11c7e:	577d                	li	a4,-1
   11c80:	4f42                	lw	t5,16(sp)
   11c82:	4e52                	lw	t3,20(sp)
   11c84:	5e82                	lw	t4,32(sp)
   11c86:	8b2a                	mv	s6,a0
   11c88:	44e50163          	beq	a0,a4,120ca <_vfprintf_r+0x1e2c>
   11c8c:	c362                	sw	s8,132(sp)
   11c8e:	bc15                	j	116c2 <_vfprintf_r+0x1424>
   11c90:	47e2                	lw	a5,24(sp)
   11c92:	8722                	mv	a4,s0
   11c94:	5402                	lw	s0,32(sp)
   11c96:	97e2                	add	a5,a5,s8
   11c98:	cee6                	sw	s9,92(sp)
   11c9a:	8626                	mv	a2,s1
   11c9c:	c2be                	sw	a5,68(sp)
   11c9e:	5492                	lw	s1,36(sp)
   11ca0:	c4ca                	sw	s2,72(sp)
   11ca2:	d262                	sw	s8,36(sp)
   11ca4:	cafa                	sw	t5,84(sp)
   11ca6:	ccf6                	sw	t4,88(sp)
   11ca8:	8c5a                	mv	s8,s6
   11caa:	4cc6                	lw	s9,80(sp)
   11cac:	4a22                	lw	s4,8(sp)
   11cae:	5b72                	lw	s6,60(sp)
   11cb0:	469d                	li	a3,7
   11cb2:	4d41                	li	s10,16
   11cb4:	0000aa97          	auipc	s5,0xa
   11cb8:	3e8a8a93          	add	s5,s5,1000 # 1c09c <zeroes.0>
   11cbc:	06805563          	blez	s0,11d26 <_vfprintf_r+0x1a88>
   11cc0:	0e905f63          	blez	s1,11dbe <_vfprintf_r+0x1b20>
   11cc4:	14fd                	add	s1,s1,-1
   11cc6:	47b6                	lw	a5,76(sp)
   11cc8:	9666                	add	a2,a2,s9
   11cca:	01972223          	sw	s9,4(a4)
   11cce:	c31c                	sw	a5,0(a4)
   11cd0:	579a                	lw	a5,164(sp)
   11cd2:	d532                	sw	a2,168(sp)
   11cd4:	0721                	add	a4,a4,8
   11cd6:	0785                	add	a5,a5,1
   11cd8:	d33e                	sw	a5,164(sp)
   11cda:	0ef6c563          	blt	a3,a5,11dc4 <_vfprintf_r+0x1b26>
   11cde:	4796                	lw	a5,68(sp)
   11ce0:	000b4583          	lbu	a1,0(s6)
   11ce4:	41878933          	sub	s2,a5,s8
   11ce8:	0125d363          	bge	a1,s2,11cee <_vfprintf_r+0x1a50>
   11cec:	892e                	mv	s2,a1
   11cee:	03205063          	blez	s2,11d0e <_vfprintf_r+0x1a70>
   11cf2:	559a                	lw	a1,164(sp)
   11cf4:	964a                	add	a2,a2,s2
   11cf6:	01872023          	sw	s8,0(a4)
   11cfa:	0585                	add	a1,a1,1
   11cfc:	01272223          	sw	s2,4(a4)
   11d00:	d532                	sw	a2,168(sp)
   11d02:	d32e                	sw	a1,164(sp)
   11d04:	0cb6cb63          	blt	a3,a1,11dda <_vfprintf_r+0x1b3c>
   11d08:	000b4583          	lbu	a1,0(s6)
   11d0c:	0721                	add	a4,a4,8
   11d0e:	fff94513          	not	a0,s2
   11d12:	857d                	sra	a0,a0,0x1f
   11d14:	00a977b3          	and	a5,s2,a0
   11d18:	40f58933          	sub	s2,a1,a5
   11d1c:	03204863          	bgtz	s2,11d4c <_vfprintf_r+0x1aae>
   11d20:	9c2e                	add	s8,s8,a1
   11d22:	f8804fe3          	bgtz	s0,11cc0 <_vfprintf_r+0x1a22>
   11d26:	f8904fe3          	bgtz	s1,11cc4 <_vfprintf_r+0x1a26>
   11d2a:	47e2                	lw	a5,24(sp)
   11d2c:	de5a                	sw	s6,60(sp)
   11d2e:	8b62                	mv	s6,s8
   11d30:	5c12                	lw	s8,36(sp)
   11d32:	843a                	mv	s0,a4
   11d34:	4926                	lw	s2,72(sp)
   11d36:	00fc0733          	add	a4,s8,a5
   11d3a:	4f56                	lw	t5,84(sp)
   11d3c:	4ee6                	lw	t4,88(sp)
   11d3e:	4cf6                	lw	s9,92(sp)
   11d40:	84b2                	mv	s1,a2
   11d42:	a5677563          	bgeu	a4,s6,10f8c <_vfprintf_r+0xcee>
   11d46:	8b3a                	mv	s6,a4
   11d48:	a44ff06f          	j	10f8c <_vfprintf_r+0xcee>
   11d4c:	559a                	lw	a1,164(sp)
   11d4e:	0000ae97          	auipc	t4,0xa
   11d52:	34ee8e93          	add	t4,t4,846 # 1c09c <zeroes.0>
   11d56:	052d5563          	bge	s10,s2,11da0 <_vfprintf_r+0x1b02>
   11d5a:	d022                	sw	s0,32(sp)
   11d5c:	844a                	mv	s0,s2
   11d5e:	8956                	mv	s2,s5
   11d60:	a021                	j	11d68 <_vfprintf_r+0x1aca>
   11d62:	1441                	add	s0,s0,-16
   11d64:	028d5b63          	bge	s10,s0,11d9a <_vfprintf_r+0x1afc>
   11d68:	0641                	add	a2,a2,16
   11d6a:	0585                	add	a1,a1,1
   11d6c:	01572023          	sw	s5,0(a4)
   11d70:	01a72223          	sw	s10,4(a4)
   11d74:	d532                	sw	a2,168(sp)
   11d76:	d32e                	sw	a1,164(sp)
   11d78:	0721                	add	a4,a4,8
   11d7a:	feb6d4e3          	bge	a3,a1,11d62 <_vfprintf_r+0x1ac4>
   11d7e:	1110                	add	a2,sp,160
   11d80:	85d2                	mv	a1,s4
   11d82:	854e                	mv	a0,s3
   11d84:	2579                	jal	12412 <__sprint_r>
   11d86:	c119                	beqz	a0,11d8c <_vfprintf_r+0x1aee>
   11d88:	863fe06f          	j	105ea <_vfprintf_r+0x34c>
   11d8c:	1441                	add	s0,s0,-16
   11d8e:	562a                	lw	a2,168(sp)
   11d90:	559a                	lw	a1,164(sp)
   11d92:	1178                	add	a4,sp,172
   11d94:	469d                	li	a3,7
   11d96:	fc8d49e3          	blt	s10,s0,11d68 <_vfprintf_r+0x1aca>
   11d9a:	8eca                	mv	t4,s2
   11d9c:	8922                	mv	s2,s0
   11d9e:	5402                	lw	s0,32(sp)
   11da0:	964a                	add	a2,a2,s2
   11da2:	0585                	add	a1,a1,1
   11da4:	01d72023          	sw	t4,0(a4)
   11da8:	01272223          	sw	s2,4(a4)
   11dac:	d532                	sw	a2,168(sp)
   11dae:	d32e                	sw	a1,164(sp)
   11db0:	12b6c363          	blt	a3,a1,11ed6 <_vfprintf_r+0x1c38>
   11db4:	000b4583          	lbu	a1,0(s6)
   11db8:	0721                	add	a4,a4,8
   11dba:	9c2e                	add	s8,s8,a1
   11dbc:	b79d                	j	11d22 <_vfprintf_r+0x1a84>
   11dbe:	1b7d                	add	s6,s6,-1
   11dc0:	147d                	add	s0,s0,-1
   11dc2:	b711                	j	11cc6 <_vfprintf_r+0x1a28>
   11dc4:	1110                	add	a2,sp,160
   11dc6:	85d2                	mv	a1,s4
   11dc8:	854e                	mv	a0,s3
   11dca:	25a1                	jal	12412 <__sprint_r>
   11dcc:	c119                	beqz	a0,11dd2 <_vfprintf_r+0x1b34>
   11dce:	81dfe06f          	j	105ea <_vfprintf_r+0x34c>
   11dd2:	562a                	lw	a2,168(sp)
   11dd4:	1178                	add	a4,sp,172
   11dd6:	469d                	li	a3,7
   11dd8:	b719                	j	11cde <_vfprintf_r+0x1a40>
   11dda:	1110                	add	a2,sp,160
   11ddc:	85d2                	mv	a1,s4
   11dde:	854e                	mv	a0,s3
   11de0:	2d0d                	jal	12412 <__sprint_r>
   11de2:	c119                	beqz	a0,11de8 <_vfprintf_r+0x1b4a>
   11de4:	807fe06f          	j	105ea <_vfprintf_r+0x34c>
   11de8:	000b4583          	lbu	a1,0(s6)
   11dec:	562a                	lw	a2,168(sp)
   11dee:	1178                	add	a4,sp,172
   11df0:	469d                	li	a3,7
   11df2:	bf31                	j	11d0e <_vfprintf_r+0x1a70>
   11df4:	47e2                	lw	a5,24(sp)
   11df6:	1cfa4563          	blt	s4,a5,11fc0 <_vfprintf_r+0x1d22>
   11dfa:	001f7713          	and	a4,t5,1
   11dfe:	8b52                	mv	s6,s4
   11e00:	c701                	beqz	a4,11e08 <_vfprintf_r+0x1b6a>
   11e02:	57c2                	lw	a5,48(sp)
   11e04:	00fa0b33          	add	s6,s4,a5
   11e08:	400f7f13          	and	t5,t5,1024
   11e0c:	000f0463          	beqz	t5,11e14 <_vfprintf_r+0x1b76>
   11e10:	31404363          	bgtz	s4,12116 <_vfprintf_r+0x1e78>
   11e14:	fffb4813          	not	a6,s6
   11e18:	41f85813          	sra	a6,a6,0x1f
   11e1c:	010b7cb3          	and	s9,s6,a6
   11e20:	06700e13          	li	t3,103
   11e24:	8f56                	mv	t5,s5
   11e26:	d202                	sw	zero,36(sp)
   11e28:	d002                	sw	zero,32(sp)
   11e2a:	bcc5                	j	1191a <_vfprintf_r+0x167c>
   11e2c:	02d00793          	li	a5,45
   11e30:	06f10ba3          	sb	a5,119(sp)
   11e34:	02d00613          	li	a2,45
   11e38:	8affe06f          	j	106e6 <_vfprintf_r+0x448>
   11e3c:	47c6                	lw	a5,80(sp)
   11e3e:	45b6                	lw	a1,76(sp)
   11e40:	c2fa                	sw	t5,68(sp)
   11e42:	8e9d                	sub	a3,a3,a5
   11e44:	863e                	mv	a2,a5
   11e46:	8536                	mv	a0,a3
   11e48:	de1a                	sw	t1,60(sp)
   11e4a:	d276                	sw	t4,36(sp)
   11e4c:	d072                	sw	t3,32(sp)
   11e4e:	cc3a                	sw	a4,24(sp)
   11e50:	c836                	sw	a3,16(sp)
   11e52:	47a020ef          	jal	142cc <strncpy>
   11e56:	009c37b3          	sltu	a5,s8,s1
   11e5a:	4615                	li	a2,5
   11e5c:	97e2                	add	a5,a5,s8
   11e5e:	02c7f7b3          	remu	a5,a5,a2
   11e62:	4762                	lw	a4,24(sp)
   11e64:	ccccd537          	lui	a0,0xccccd
   11e68:	ccccd837          	lui	a6,0xccccd
   11e6c:	00174603          	lbu	a2,1(a4)
   11e70:	ccd50513          	add	a0,a0,-819 # cccccccd <__BSS_END__+0xcccaef85>
   11e74:	ccc80813          	add	a6,a6,-820 # cccccccc <__BSS_END__+0xcccaef84>
   11e78:	00c03633          	snez	a2,a2
   11e7c:	9732                	add	a4,a4,a2
   11e7e:	46c2                	lw	a3,16(sp)
   11e80:	5e02                	lw	t3,32(sp)
   11e82:	5e92                	lw	t4,36(sp)
   11e84:	5372                	lw	t1,60(sp)
   11e86:	4f16                	lw	t5,68(sp)
   11e88:	4581                	li	a1,0
   11e8a:	4895                	li	a7,5
   11e8c:	40f487b3          	sub	a5,s1,a5
   11e90:	00f4b633          	sltu	a2,s1,a5
   11e94:	40cc8633          	sub	a2,s9,a2
   11e98:	02a60633          	mul	a2,a2,a0
   11e9c:	03078833          	mul	a6,a5,a6
   11ea0:	02a7bfb3          	mulhu	t6,a5,a0
   11ea4:	9642                	add	a2,a2,a6
   11ea6:	02a78533          	mul	a0,a5,a0
   11eaa:	967e                	add	a2,a2,t6
   11eac:	01f61793          	sll	a5,a2,0x1f
   11eb0:	8205                	srl	a2,a2,0x1
   11eb2:	8105                	srl	a0,a0,0x1
   11eb4:	8fc9                	or	a5,a5,a0
   11eb6:	dd8ff06f          	j	1148e <_vfprintf_r+0x11f0>
   11eba:	07714603          	lbu	a2,119(sp)
   11ebe:	ca56                	sw	s5,20(sp)
   11ec0:	d202                	sw	zero,36(sp)
   11ec2:	d002                	sw	zero,32(sp)
   11ec4:	c802                	sw	zero,16(sp)
   11ec6:	4c81                	li	s9,0
   11ec8:	4301                	li	t1,0
   11eca:	4a01                	li	s4,0
   11ecc:	e219                	bnez	a2,11ed2 <_vfprintf_r+0x1c34>
   11ece:	d68fe06f          	j	10436 <_vfprintf_r+0x198>
   11ed2:	843fe06f          	j	10714 <_vfprintf_r+0x476>
   11ed6:	1110                	add	a2,sp,160
   11ed8:	85d2                	mv	a1,s4
   11eda:	854e                	mv	a0,s3
   11edc:	2b1d                	jal	12412 <__sprint_r>
   11ede:	c119                	beqz	a0,11ee4 <_vfprintf_r+0x1c46>
   11ee0:	f0afe06f          	j	105ea <_vfprintf_r+0x34c>
   11ee4:	000b4583          	lbu	a1,0(s6)
   11ee8:	562a                	lw	a2,168(sp)
   11eea:	1178                	add	a4,sp,172
   11eec:	469d                	li	a3,7
   11eee:	9c2e                	add	s8,s8,a1
   11ef0:	bd0d                	j	11d22 <_vfprintf_r+0x1a84>
   11ef2:	45a2                	lw	a1,8(sp)
   11ef4:	1110                	add	a2,sp,160
   11ef6:	854e                	mv	a0,s3
   11ef8:	c4f6                	sw	t4,72(sp)
   11efa:	c2fa                	sw	t5,68(sp)
   11efc:	2b19                	jal	12412 <__sprint_r>
   11efe:	c119                	beqz	a0,11f04 <_vfprintf_r+0x1c66>
   11f00:	eeafe06f          	j	105ea <_vfprintf_r+0x34c>
   11f04:	54aa                	lw	s1,168(sp)
   11f06:	4ea6                	lw	t4,72(sp)
   11f08:	4f16                	lw	t5,68(sp)
   11f0a:	1160                	add	s0,sp,172
   11f0c:	862ff06f          	j	10f6e <_vfprintf_r+0xcd0>
   11f10:	4525                	li	a0,9
   11f12:	d6956e63          	bltu	a0,s1,1148e <_vfprintf_r+0x11f0>
   11f16:	de0ff06f          	j	114f6 <_vfprintf_r+0x1258>
   11f1a:	00650733          	add	a4,a0,t1
   11f1e:	04700813          	li	a6,71
   11f22:	be0d                	j	11a54 <_vfprintf_r+0x17b6>
   11f24:	5a76                	lw	s4,124(sp)
   11f26:	8b3a                	mv	s6,a4
   11f28:	be8d                	j	11a9a <_vfprintf_r+0x17fc>
   11f2a:	45a2                	lw	a1,8(sp)
   11f2c:	1110                	add	a2,sp,160
   11f2e:	854e                	mv	a0,s3
   11f30:	d276                	sw	t4,36(sp)
   11f32:	d07a                	sw	t5,32(sp)
   11f34:	29f9                	jal	12412 <__sprint_r>
   11f36:	c119                	beqz	a0,11f3c <_vfprintf_r+0x1c9e>
   11f38:	eb2fe06f          	j	105ea <_vfprintf_r+0x34c>
   11f3c:	5d76                	lw	s10,124(sp)
   11f3e:	47e2                	lw	a5,24(sp)
   11f40:	54aa                	lw	s1,168(sp)
   11f42:	5e92                	lw	t4,36(sp)
   11f44:	5f02                	lw	t5,32(sp)
   11f46:	1160                	add	s0,sp,172
   11f48:	41a78d33          	sub	s10,a5,s10
   11f4c:	886ff06f          	j	10fd2 <_vfprintf_r+0xd34>
   11f50:	5622                	lw	a2,40(sp)
   11f52:	85a6                	mv	a1,s1
   11f54:	4681                	li	a3,0
   11f56:	8532                	mv	a0,a2
   11f58:	4601                	li	a2,0
   11f5a:	ccba                	sw	a4,88(sp)
   11f5c:	ca9a                	sw	t1,84(sp)
   11f5e:	c4f6                	sw	t4,72(sp)
   11f60:	d272                	sw	t3,36(sp)
   11f62:	d07a                	sw	t5,32(sp)
   11f64:	cc42                	sw	a6,24(sp)
   11f66:	0fb080ef          	jal	1a860 <__eqdf2>
   11f6a:	4862                	lw	a6,24(sp)
   11f6c:	5f02                	lw	t5,32(sp)
   11f6e:	5e12                	lw	t3,36(sp)
   11f70:	4ea6                	lw	t4,72(sp)
   11f72:	4356                	lw	t1,84(sp)
   11f74:	4766                	lw	a4,88(sp)
   11f76:	26051a63          	bnez	a0,121ea <_vfprintf_r+0x1f4c>
   11f7a:	5a76                	lw	s4,124(sp)
   11f7c:	9752                	add	a4,a4,s4
   11f7e:	418707b3          	sub	a5,a4,s8
   11f82:	cc3e                	sw	a5,24(sp)
   11f84:	001f7713          	and	a4,t5,1
   11f88:	00676733          	or	a4,a4,t1
   11f8c:	29405a63          	blez	s4,12220 <_vfprintf_r+0x1f82>
   11f90:	1e071063          	bnez	a4,12170 <_vfprintf_r+0x1ed2>
   11f94:	8b52                	mv	s6,s4
   11f96:	06600e13          	li	t3,102
   11f9a:	400f7f13          	and	t5,t5,1024
   11f9e:	160f1e63          	bnez	t5,1211a <_vfprintf_r+0x1e7c>
   11fa2:	fffb4813          	not	a6,s6
   11fa6:	41f85813          	sra	a6,a6,0x1f
   11faa:	010b7cb3          	and	s9,s6,a6
   11fae:	bd9d                	j	11e24 <_vfprintf_r+0x1b86>
   11fb0:	8d7a                	mv	s10,t5
   11fb2:	b8dfe06f          	j	10b3e <_vfprintf_r+0x8a0>
   11fb6:	c802                	sw	zero,16(sp)
   11fb8:	0ec10c13          	add	s8,sp,236
   11fbc:	f30ff06f          	j	116ec <_vfprintf_r+0x144e>
   11fc0:	47e2                	lw	a5,24(sp)
   11fc2:	5742                	lw	a4,48(sp)
   11fc4:	06700e13          	li	t3,103
   11fc8:	00e78b33          	add	s6,a5,a4
   11fcc:	fd4047e3          	bgtz	s4,11f9a <_vfprintf_r+0x1cfc>
   11fd0:	414b06b3          	sub	a3,s6,s4
   11fd4:	00168b13          	add	s6,a3,1
   11fd8:	fffb4813          	not	a6,s6
   11fdc:	41f85813          	sra	a6,a6,0x1f
   11fe0:	010b7cb3          	and	s9,s6,a6
   11fe4:	b581                	j	11e24 <_vfprintf_r+0x1b86>
   11fe6:	47a2                	lw	a5,8(sp)
   11fe8:	53fc                	lw	a5,100(a5)
   11fea:	8b85                	and	a5,a5,1
   11fec:	eb99                	bnez	a5,12002 <_vfprintf_r+0x1d64>
   11fee:	47a2                	lw	a5,8(sp)
   11ff0:	00c7d783          	lhu	a5,12(a5)
   11ff4:	2007f793          	and	a5,a5,512
   11ff8:	e789                	bnez	a5,12002 <_vfprintf_r+0x1d64>
   11ffa:	47a2                	lw	a5,8(sp)
   11ffc:	4fa8                	lw	a0,88(a5)
   11ffe:	2b0030ef          	jal	152ae <__retarget_lock_release_recursive>
   12002:	57fd                	li	a5,-1
   12004:	c63e                	sw	a5,12(sp)
   12006:	e34fe06f          	j	1063a <_vfprintf_r+0x39c>
   1200a:	56c1                	li	a3,-16
   1200c:	40c00d33          	neg	s10,a2
   12010:	0000a297          	auipc	t0,0xa
   12014:	08c28293          	add	t0,t0,140 # 1c09c <zeroes.0>
   12018:	04d65563          	bge	a2,a3,12062 <_vfprintf_r+0x1dc4>
   1201c:	d04a                	sw	s2,32(sp)
   1201e:	44c1                	li	s1,16
   12020:	4a9d                	li	s5,7
   12022:	8a7a                	mv	s4,t5
   12024:	8b76                	mv	s6,t4
   12026:	8916                	mv	s2,t0
   12028:	a021                	j	12030 <_vfprintf_r+0x1d92>
   1202a:	1d41                	add	s10,s10,-16
   1202c:	03a4d763          	bge	s1,s10,1205a <_vfprintf_r+0x1dbc>
   12030:	05c1                	add	a1,a1,16
   12032:	0705                	add	a4,a4,1
   12034:	01242023          	sw	s2,0(s0)
   12038:	c044                	sw	s1,4(s0)
   1203a:	d52e                	sw	a1,168(sp)
   1203c:	d33a                	sw	a4,164(sp)
   1203e:	0421                	add	s0,s0,8
   12040:	feead5e3          	bge	s5,a4,1202a <_vfprintf_r+0x1d8c>
   12044:	45a2                	lw	a1,8(sp)
   12046:	1110                	add	a2,sp,160
   12048:	854e                	mv	a0,s3
   1204a:	26e1                	jal	12412 <__sprint_r>
   1204c:	c119                	beqz	a0,12052 <_vfprintf_r+0x1db4>
   1204e:	d9cfe06f          	j	105ea <_vfprintf_r+0x34c>
   12052:	55aa                	lw	a1,168(sp)
   12054:	571a                	lw	a4,164(sp)
   12056:	1160                	add	s0,sp,172
   12058:	bfc9                	j	1202a <_vfprintf_r+0x1d8c>
   1205a:	82ca                	mv	t0,s2
   1205c:	5902                	lw	s2,32(sp)
   1205e:	8f52                	mv	t5,s4
   12060:	8eda                	mv	t4,s6
   12062:	95ea                	add	a1,a1,s10
   12064:	0705                	add	a4,a4,1
   12066:	00542023          	sw	t0,0(s0)
   1206a:	01a42223          	sw	s10,4(s0)
   1206e:	d52e                	sw	a1,168(sp)
   12070:	d33a                	sw	a4,164(sp)
   12072:	469d                	li	a3,7
   12074:	94e6d163          	bge	a3,a4,111b6 <_vfprintf_r+0xf18>
   12078:	45a2                	lw	a1,8(sp)
   1207a:	1110                	add	a2,sp,160
   1207c:	854e                	mv	a0,s3
   1207e:	d276                	sw	t4,36(sp)
   12080:	d07a                	sw	t5,32(sp)
   12082:	2e41                	jal	12412 <__sprint_r>
   12084:	c119                	beqz	a0,1208a <_vfprintf_r+0x1dec>
   12086:	d64fe06f          	j	105ea <_vfprintf_r+0x34c>
   1208a:	55aa                	lw	a1,168(sp)
   1208c:	571a                	lw	a4,164(sp)
   1208e:	5e92                	lw	t4,36(sp)
   12090:	5f02                	lw	t5,32(sp)
   12092:	1160                	add	s0,sp,172
   12094:	f66fe06f          	j	107fa <_vfprintf_r+0x55c>
   12098:	08a10713          	add	a4,sp,138
   1209c:	e699                	bnez	a3,120aa <_vfprintf_r+0x1e0c>
   1209e:	03000713          	li	a4,48
   120a2:	08e10523          	sb	a4,138(sp)
   120a6:	08b10713          	add	a4,sp,139
   120aa:	0a9c                	add	a5,sp,336
   120ac:	40f706b3          	sub	a3,a4,a5
   120b0:	03030313          	add	t1,t1,48
   120b4:	0c968793          	add	a5,a3,201
   120b8:	00670023          	sb	t1,0(a4)
   120bc:	c0be                	sw	a5,64(sp)
   120be:	831ff06f          	j	118ee <_vfprintf_r+0x1650>
   120c2:	c802                	sw	zero,16(sp)
   120c4:	4319                	li	t1,6
   120c6:	cceff06f          	j	11594 <_vfprintf_r+0x12f6>
   120ca:	47a2                	lw	a5,8(sp)
   120cc:	4f01                	li	t5,0
   120ce:	00c79783          	lh	a5,12(a5)
   120d2:	0407e793          	or	a5,a5,64
   120d6:	4722                	lw	a4,8(sp)
   120d8:	00f71623          	sh	a5,12(a4)
   120dc:	d10fe06f          	j	105ec <_vfprintf_r+0x34e>
   120e0:	001f7713          	and	a4,t5,1
   120e4:	80070ee3          	beqz	a4,11900 <_vfprintf_r+0x1662>
   120e8:	815ff06f          	j	118fc <_vfprintf_r+0x165e>
   120ec:	57b2                	lw	a5,44(sp)
   120ee:	0e07c763          	bltz	a5,121dc <_vfprintf_r+0x1f3e>
   120f2:	07714603          	lbu	a2,119(sp)
   120f6:	04700713          	li	a4,71
   120fa:	0000ac17          	auipc	s8,0xa
   120fe:	a6ec0c13          	add	s8,s8,-1426 # 1bb68 <__clzsi2+0x88>
   12102:	01c75463          	bge	a4,t3,1210a <_vfprintf_r+0x1e6c>
   12106:	df8fe06f          	j	106fe <_vfprintf_r+0x460>
   1210a:	0000ac17          	auipc	s8,0xa
   1210e:	a5ac0c13          	add	s8,s8,-1446 # 1bb64 <__clzsi2+0x84>
   12112:	decfe06f          	j	106fe <_vfprintf_r+0x460>
   12116:	06700e13          	li	t3,103
   1211a:	57f2                	lw	a5,60(sp)
   1211c:	0ff00613          	li	a2,255
   12120:	0007c703          	lbu	a4,0(a5)
   12124:	16c70763          	beq	a4,a2,12292 <_vfprintf_r+0x1ff4>
   12128:	4581                	li	a1,0
   1212a:	4681                	li	a3,0
   1212c:	01475b63          	bge	a4,s4,12142 <_vfprintf_r+0x1ea4>
   12130:	40ea0a33          	sub	s4,s4,a4
   12134:	0017c703          	lbu	a4,1(a5)
   12138:	cb05                	beqz	a4,12168 <_vfprintf_r+0x1eca>
   1213a:	0685                	add	a3,a3,1
   1213c:	0785                	add	a5,a5,1
   1213e:	fec717e3          	bne	a4,a2,1212c <_vfprintf_r+0x1e8e>
   12142:	de3e                	sw	a5,60(sp)
   12144:	d036                	sw	a3,32(sp)
   12146:	d22e                	sw	a1,36(sp)
   12148:	5782                	lw	a5,32(sp)
   1214a:	5712                	lw	a4,36(sp)
   1214c:	8f56                	mv	t5,s5
   1214e:	973e                	add	a4,a4,a5
   12150:	47c6                	lw	a5,80(sp)
   12152:	02f70733          	mul	a4,a4,a5
   12156:	9b3a                	add	s6,s6,a4
   12158:	fffb4813          	not	a6,s6
   1215c:	41f85813          	sra	a6,a6,0x1f
   12160:	010b7cb3          	and	s9,s6,a6
   12164:	fb6ff06f          	j	1191a <_vfprintf_r+0x167c>
   12168:	0007c703          	lbu	a4,0(a5)
   1216c:	0585                	add	a1,a1,1
   1216e:	bfc1                	j	1213e <_vfprintf_r+0x1ea0>
   12170:	57c2                	lw	a5,48(sp)
   12172:	06600e13          	li	t3,102
   12176:	00f306b3          	add	a3,t1,a5
   1217a:	01468b33          	add	s6,a3,s4
   1217e:	bd31                	j	11f9a <_vfprintf_r+0x1cfc>
   12180:	8322                	mv	t1,s0
   12182:	4942                	lw	s2,16(sp)
   12184:	8456                	mv	s0,s5
   12186:	4ed2                	lw	t4,20(sp)
   12188:	8ada                	mv	s5,s6
   1218a:	8f52                	mv	t5,s4
   1218c:	8e6a                	mv	t3,s10
   1218e:	8b1a                	mv	s6,t1
   12190:	d32ff06f          	j	116c2 <_vfprintf_r+0x1424>
   12194:	07714603          	lbu	a2,119(sp)
   12198:	ca56                	sw	s5,20(sp)
   1219a:	d202                	sw	zero,36(sp)
   1219c:	d002                	sw	zero,32(sp)
   1219e:	8c9a                	mv	s9,t1
   121a0:	8b1a                	mv	s6,t1
   121a2:	07300e13          	li	t3,115
   121a6:	4301                	li	t1,0
   121a8:	e219                	bnez	a2,121ae <_vfprintf_r+0x1f10>
   121aa:	a8cfe06f          	j	10436 <_vfprintf_r+0x198>
   121ae:	d66fe06f          	j	10714 <_vfprintf_r+0x476>
   121b2:	84a2                	mv	s1,s0
   121b4:	845a                	mv	s0,s6
   121b6:	001a8b13          	add	s6,s5,1
   121ba:	89e2                	mv	s3,s8
   121bc:	5912                	lw	s2,36(sp)
   121be:	4f06                	lw	t5,64(sp)
   121c0:	4e26                	lw	t3,72(sp)
   121c2:	4ed6                	lw	t4,84(sp)
   121c4:	8c6a                	mv	s8,s10
   121c6:	9b26                	add	s6,s6,s1
   121c8:	03000693          	li	a3,48
   121cc:	a40ac8e3          	bltz	s5,11c1c <_vfprintf_r+0x197e>
   121d0:	0485                	add	s1,s1,1
   121d2:	fed48fa3          	sb	a3,-1(s1)
   121d6:	ff649de3          	bne	s1,s6,121d0 <_vfprintf_r+0x1f32>
   121da:	b491                	j	11c1e <_vfprintf_r+0x1980>
   121dc:	02d00793          	li	a5,45
   121e0:	06f10ba3          	sb	a5,119(sp)
   121e4:	02d00613          	li	a2,45
   121e8:	b739                	j	120f6 <_vfprintf_r+0x1e58>
   121ea:	4685                	li	a3,1
   121ec:	416686b3          	sub	a3,a3,s6
   121f0:	deb6                	sw	a3,124(sp)
   121f2:	861ff06f          	j	11a52 <_vfprintf_r+0x17b4>
   121f6:	855a                	mv	a0,s6
   121f8:	85ea                	mv	a1,s10
   121fa:	861a                	mv	a2,t1
   121fc:	869e                	mv	a3,t2
   121fe:	c4c2                	sw	a6,72(sp)
   12200:	c0f6                	sw	t4,64(sp)
   12202:	d272                	sw	t3,36(sp)
   12204:	cc7a                	sw	t5,24(sp)
   12206:	65a080ef          	jal	1a860 <__eqdf2>
   1220a:	4f62                	lw	t5,24(sp)
   1220c:	5e12                	lw	t3,36(sp)
   1220e:	4e86                	lw	t4,64(sp)
   12210:	4826                	lw	a6,72(sp)
   12212:	a00515e3          	bnez	a0,11c1c <_vfprintf_r+0x197e>
   12216:	001a7693          	and	a3,s4,1
   1221a:	a00681e3          	beqz	a3,11c1c <_vfprintf_r+0x197e>
   1221e:	b2c1                	j	11bde <_vfprintf_r+0x1940>
   12220:	e711                	bnez	a4,1222c <_vfprintf_r+0x1f8e>
   12222:	4c85                	li	s9,1
   12224:	06600e13          	li	t3,102
   12228:	4b05                	li	s6,1
   1222a:	beed                	j	11e24 <_vfprintf_r+0x1b86>
   1222c:	57c2                	lw	a5,48(sp)
   1222e:	06600e13          	li	t3,102
   12232:	00178693          	add	a3,a5,1
   12236:	00668b33          	add	s6,a3,t1
   1223a:	fffb4813          	not	a6,s6
   1223e:	41f85813          	sra	a6,a6,0x1f
   12242:	010b7cb3          	and	s9,s6,a6
   12246:	bef9                	j	11e24 <_vfprintf_r+0x1b86>
   12248:	47d2                	lw	a5,20(sp)
   1224a:	0007ab03          	lw	s6,0(a5)
   1224e:	0791                	add	a5,a5,4
   12250:	000b5363          	bgez	s6,12256 <_vfprintf_r+0x1fb8>
   12254:	5b7d                	li	s6,-1
   12256:	00194e03          	lbu	t3,1(s2)
   1225a:	ca3e                	sw	a5,20(sp)
   1225c:	8936                	mv	s2,a3
   1225e:	96efe06f          	j	103cc <_vfprintf_r+0x12e>
   12262:	4789                	li	a5,2
   12264:	c0be                	sw	a5,64(sp)
   12266:	e88ff06f          	j	118ee <_vfprintf_r+0x1650>
   1226a:	4722                	lw	a4,8(sp)
   1226c:	00c71783          	lh	a5,12(a4)
   12270:	0407e793          	or	a5,a5,64
   12274:	00f71623          	sh	a5,12(a4)
   12278:	b86fe06f          	j	105fe <_vfprintf_r+0x360>
   1227c:	04500813          	li	a6,69
   12280:	fd4ff06f          	j	11a54 <_vfprintf_r+0x17b6>
   12284:	47a2                	lw	a5,8(sp)
   12286:	4f42                	lw	t5,16(sp)
   12288:	00c79783          	lh	a5,12(a5)
   1228c:	0407e793          	or	a5,a5,64
   12290:	b599                	j	120d6 <_vfprintf_r+0x1e38>
   12292:	d202                	sw	zero,36(sp)
   12294:	d002                	sw	zero,32(sp)
   12296:	bd4d                	j	12148 <_vfprintf_r+0x1eaa>

00012298 <vfprintf>:
   12298:	86b2                	mv	a3,a2
   1229a:	862e                	mv	a2,a1
   1229c:	85aa                	mv	a1,a0
   1229e:	f2c1a503          	lw	a0,-212(gp) # 1d73c <_impure_ptr>
   122a2:	ffdfd06f          	j	1029e <_vfprintf_r>

000122a6 <__sbprintf>:
   122a6:	b7010113          	add	sp,sp,-1168
   122aa:	00c59783          	lh	a5,12(a1)
   122ae:	00e5d703          	lhu	a4,14(a1)
   122b2:	48812423          	sw	s0,1160(sp)
   122b6:	842e                	mv	s0,a1
   122b8:	65c1                	lui	a1,0x10
   122ba:	15f5                	add	a1,a1,-3 # fffd <exit-0x97>
   122bc:	06442303          	lw	t1,100(s0)
   122c0:	01c42883          	lw	a7,28(s0)
   122c4:	02442803          	lw	a6,36(s0)
   122c8:	0742                	sll	a4,a4,0x10
   122ca:	8fed                	and	a5,a5,a1
   122cc:	8fd9                	or	a5,a5,a4
   122ce:	40000593          	li	a1,1024
   122d2:	49212023          	sw	s2,1152(sp)
   122d6:	ca3e                	sw	a5,20(sp)
   122d8:	892a                	mv	s2,a0
   122da:	189c                	add	a5,sp,112
   122dc:	1088                	add	a0,sp,96
   122de:	48112623          	sw	ra,1164(sp)
   122e2:	48912223          	sw	s1,1156(sp)
   122e6:	47312e23          	sw	s3,1148(sp)
   122ea:	84b2                	mv	s1,a2
   122ec:	89b6                	mv	s3,a3
   122ee:	d69a                	sw	t1,108(sp)
   122f0:	d246                	sw	a7,36(sp)
   122f2:	d642                	sw	a6,44(sp)
   122f4:	c43e                	sw	a5,8(sp)
   122f6:	cc3e                	sw	a5,24(sp)
   122f8:	c82e                	sw	a1,16(sp)
   122fa:	ce2e                	sw	a1,28(sp)
   122fc:	d002                	sw	zero,32(sp)
   122fe:	79d020ef          	jal	1529a <__retarget_lock_init_recursive>
   12302:	8626                	mv	a2,s1
   12304:	86ce                	mv	a3,s3
   12306:	002c                	add	a1,sp,8
   12308:	854a                	mv	a0,s2
   1230a:	f95fd0ef          	jal	1029e <_vfprintf_r>
   1230e:	84aa                	mv	s1,a0
   12310:	02055e63          	bgez	a0,1234c <__sbprintf+0xa6>
   12314:	01415783          	lhu	a5,20(sp)
   12318:	0407f793          	and	a5,a5,64
   1231c:	c799                	beqz	a5,1232a <__sbprintf+0x84>
   1231e:	00c45783          	lhu	a5,12(s0)
   12322:	0407e793          	or	a5,a5,64
   12326:	00f41623          	sh	a5,12(s0)
   1232a:	5506                	lw	a0,96(sp)
   1232c:	773020ef          	jal	1529e <__retarget_lock_close_recursive>
   12330:	48c12083          	lw	ra,1164(sp)
   12334:	48812403          	lw	s0,1160(sp)
   12338:	48012903          	lw	s2,1152(sp)
   1233c:	47c12983          	lw	s3,1148(sp)
   12340:	8526                	mv	a0,s1
   12342:	48412483          	lw	s1,1156(sp)
   12346:	49010113          	add	sp,sp,1168
   1234a:	8082                	ret
   1234c:	002c                	add	a1,sp,8
   1234e:	854a                	mv	a0,s2
   12350:	404010ef          	jal	13754 <_fflush_r>
   12354:	d161                	beqz	a0,12314 <__sbprintf+0x6e>
   12356:	54fd                	li	s1,-1
   12358:	bf75                	j	12314 <__sbprintf+0x6e>

0001235a <__sprint_r.part.0>:
   1235a:	51fc                	lw	a5,100(a1)
   1235c:	7179                	add	sp,sp,-48
   1235e:	c85a                	sw	s6,16(sp)
   12360:	d606                	sw	ra,44(sp)
   12362:	01279713          	sll	a4,a5,0x12
   12366:	8b32                	mv	s6,a2
   12368:	08075b63          	bgez	a4,123fe <__sprint_r.part.0+0xa4>
   1236c:	461c                	lw	a5,8(a2)
   1236e:	d04a                	sw	s2,32(sp)
   12370:	ce4e                	sw	s3,28(sp)
   12372:	ca56                	sw	s5,20(sp)
   12374:	c65e                	sw	s7,12(sp)
   12376:	892e                	mv	s2,a1
   12378:	00062b83          	lw	s7,0(a2)
   1237c:	89aa                	mv	s3,a0
   1237e:	5afd                	li	s5,-1
   12380:	cbad                	beqz	a5,123f2 <__sprint_r.part.0+0x98>
   12382:	d422                	sw	s0,40(sp)
   12384:	d226                	sw	s1,36(sp)
   12386:	cc52                	sw	s4,24(sp)
   12388:	c462                	sw	s8,8(sp)
   1238a:	004bac03          	lw	s8,4(s7)
   1238e:	000ba403          	lw	s0,0(s7)
   12392:	002c5a13          	srl	s4,s8,0x2
   12396:	040a0263          	beqz	s4,123da <__sprint_r.part.0+0x80>
   1239a:	4481                	li	s1,0
   1239c:	a021                	j	123a4 <__sprint_r.part.0+0x4a>
   1239e:	0411                	add	s0,s0,4
   123a0:	029a0b63          	beq	s4,s1,123d6 <__sprint_r.part.0+0x7c>
   123a4:	400c                	lw	a1,0(s0)
   123a6:	864a                	mv	a2,s2
   123a8:	854e                	mv	a0,s3
   123aa:	617010ef          	jal	141c0 <_fputwc_r>
   123ae:	0485                	add	s1,s1,1
   123b0:	ff5517e3          	bne	a0,s5,1239e <__sprint_r.part.0+0x44>
   123b4:	5422                	lw	s0,40(sp)
   123b6:	5492                	lw	s1,36(sp)
   123b8:	5902                	lw	s2,32(sp)
   123ba:	49f2                	lw	s3,28(sp)
   123bc:	4a62                	lw	s4,24(sp)
   123be:	4ad2                	lw	s5,20(sp)
   123c0:	4bb2                	lw	s7,12(sp)
   123c2:	4c22                	lw	s8,8(sp)
   123c4:	557d                	li	a0,-1
   123c6:	50b2                	lw	ra,44(sp)
   123c8:	000b2423          	sw	zero,8(s6)
   123cc:	000b2223          	sw	zero,4(s6)
   123d0:	4b42                	lw	s6,16(sp)
   123d2:	6145                	add	sp,sp,48
   123d4:	8082                	ret
   123d6:	008b2783          	lw	a5,8(s6)
   123da:	ffcc7c13          	and	s8,s8,-4
   123de:	418787b3          	sub	a5,a5,s8
   123e2:	00fb2423          	sw	a5,8(s6)
   123e6:	0ba1                	add	s7,s7,8
   123e8:	f3cd                	bnez	a5,1238a <__sprint_r.part.0+0x30>
   123ea:	5422                	lw	s0,40(sp)
   123ec:	5492                	lw	s1,36(sp)
   123ee:	4a62                	lw	s4,24(sp)
   123f0:	4c22                	lw	s8,8(sp)
   123f2:	5902                	lw	s2,32(sp)
   123f4:	49f2                	lw	s3,28(sp)
   123f6:	4ad2                	lw	s5,20(sp)
   123f8:	4bb2                	lw	s7,12(sp)
   123fa:	4501                	li	a0,0
   123fc:	b7e9                	j	123c6 <__sprint_r.part.0+0x6c>
   123fe:	7b6010ef          	jal	13bb4 <__sfvwrite_r>
   12402:	50b2                	lw	ra,44(sp)
   12404:	000b2423          	sw	zero,8(s6)
   12408:	000b2223          	sw	zero,4(s6)
   1240c:	4b42                	lw	s6,16(sp)
   1240e:	6145                	add	sp,sp,48
   12410:	8082                	ret

00012412 <__sprint_r>:
   12412:	4618                	lw	a4,8(a2)
   12414:	c311                	beqz	a4,12418 <__sprint_r+0x6>
   12416:	b791                	j	1235a <__sprint_r.part.0>
   12418:	00062223          	sw	zero,4(a2)
   1241c:	4501                	li	a0,0
   1241e:	8082                	ret

00012420 <_vfiprintf_r>:
   12420:	714d                	add	sp,sp,-336
   12422:	14912223          	sw	s1,324(sp)
   12426:	13412c23          	sw	s4,312(sp)
   1242a:	13912223          	sw	s9,292(sp)
   1242e:	84aa                	mv	s1,a0
   12430:	8a2e                	mv	s4,a1
   12432:	8cb2                	mv	s9,a2
   12434:	4581                	li	a1,0
   12436:	4621                	li	a2,8
   12438:	0888                	add	a0,sp,80
   1243a:	13612823          	sw	s6,304(sp)
   1243e:	14112623          	sw	ra,332(sp)
   12442:	8b36                	mv	s6,a3
   12444:	1cb020ef          	jal	14e0e <memset>
   12448:	c481                	beqz	s1,12450 <_vfiprintf_r+0x30>
   1244a:	58dc                	lw	a5,52(s1)
   1244c:	6c0784e3          	beqz	a5,13314 <_vfiprintf_r+0xef4>
   12450:	064a2703          	lw	a4,100(s4)
   12454:	00ca1783          	lh	a5,12(s4)
   12458:	8b05                	and	a4,a4,1
   1245a:	e709                	bnez	a4,12464 <_vfiprintf_r+0x44>
   1245c:	2007f713          	and	a4,a5,512
   12460:	36070be3          	beqz	a4,12fd6 <_vfiprintf_r+0xbb6>
   12464:	01279713          	sll	a4,a5,0x12
   12468:	00074f63          	bltz	a4,12486 <_vfiprintf_r+0x66>
   1246c:	064a2703          	lw	a4,100(s4)
   12470:	6609                	lui	a2,0x2
   12472:	76f9                	lui	a3,0xffffe
   12474:	8fd1                	or	a5,a5,a2
   12476:	16fd                	add	a3,a3,-1 # ffffdfff <__BSS_END__+0xfffe02b7>
   12478:	07c2                	sll	a5,a5,0x10
   1247a:	87c1                	sra	a5,a5,0x10
   1247c:	8f75                	and	a4,a4,a3
   1247e:	00fa1623          	sh	a5,12(s4)
   12482:	06ea2223          	sw	a4,100(s4)
   12486:	0087f713          	and	a4,a5,8
   1248a:	20070063          	beqz	a4,1268a <_vfiprintf_r+0x26a>
   1248e:	010a2703          	lw	a4,16(s4)
   12492:	1e070c63          	beqz	a4,1268a <_vfiprintf_r+0x26a>
   12496:	01a7f713          	and	a4,a5,26
   1249a:	46a9                	li	a3,10
   1249c:	20d70463          	beq	a4,a3,126a4 <_vfiprintf_r+0x284>
   124a0:	13512a23          	sw	s5,308(sp)
   124a4:	06c10a93          	add	s5,sp,108
   124a8:	14812423          	sw	s0,328(sp)
   124ac:	15212023          	sw	s2,320(sp)
   124b0:	13312e23          	sw	s3,316(sp)
   124b4:	13712623          	sw	s7,300(sp)
   124b8:	13812423          	sw	s8,296(sp)
   124bc:	13a12023          	sw	s10,288(sp)
   124c0:	11b12e23          	sw	s11,284(sp)
   124c4:	d0d6                	sw	s5,96(sp)
   124c6:	d482                	sw	zero,104(sp)
   124c8:	d282                	sw	zero,100(sp)
   124ca:	8456                	mv	s0,s5
   124cc:	ca02                	sw	zero,20(sp)
   124ce:	d602                	sw	zero,44(sp)
   124d0:	d802                	sw	zero,48(sp)
   124d2:	da02                	sw	zero,52(sp)
   124d4:	c602                	sw	zero,12(sp)
   124d6:	0000b917          	auipc	s2,0xb
   124da:	b4690913          	add	s2,s2,-1210 # 1d01c <__global_locale>
   124de:	02500993          	li	s3,37
   124e2:	0000ac17          	auipc	s8,0xa
   124e6:	bdac0c13          	add	s8,s8,-1062 # 1c0bc <blanks.1+0x10>
   124ea:	0000ab97          	auipc	s7,0xa
   124ee:	d3eb8b93          	add	s7,s7,-706 # 1c228 <zeroes.0>
   124f2:	8d66                	mv	s10,s9
   124f4:	8dea                	mv	s11,s10
   124f6:	0e492c83          	lw	s9,228(s2)
   124fa:	025020ef          	jal	14d1e <__locale_mb_cur_max>
   124fe:	86aa                	mv	a3,a0
   12500:	0898                	add	a4,sp,80
   12502:	866e                	mv	a2,s11
   12504:	00ac                	add	a1,sp,72
   12506:	8526                	mv	a0,s1
   12508:	9c82                	jalr	s9
   1250a:	24050d63          	beqz	a0,12764 <_vfiprintf_r+0x344>
   1250e:	24054363          	bltz	a0,12754 <_vfiprintf_r+0x334>
   12512:	47a6                	lw	a5,72(sp)
   12514:	01378463          	beq	a5,s3,1251c <_vfiprintf_r+0xfc>
   12518:	9daa                	add	s11,s11,a0
   1251a:	bff1                	j	124f6 <_vfiprintf_r+0xd6>
   1251c:	8caa                	mv	s9,a0
   1251e:	41ad87b3          	sub	a5,s11,s10
   12522:	25ad9663          	bne	s11,s10,1276e <_vfiprintf_r+0x34e>
   12526:	001dc703          	lbu	a4,1(s11)
   1252a:	001d8d13          	add	s10,s11,1
   1252e:	040101a3          	sb	zero,67(sp)
   12532:	5cfd                	li	s9,-1
   12534:	4881                	li	a7,0
   12536:	4e01                	li	t3,0
   12538:	05a00d93          	li	s11,90
   1253c:	0d05                	add	s10,s10,1
   1253e:	fe070793          	add	a5,a4,-32
   12542:	02fdeb63          	bltu	s11,a5,12578 <_vfiprintf_r+0x158>
   12546:	078a                	sll	a5,a5,0x2
   12548:	97e2                	add	a5,a5,s8
   1254a:	439c                	lw	a5,0(a5)
   1254c:	97e2                	add	a5,a5,s8
   1254e:	8782                	jr	a5
   12550:	4881                	li	a7,0
   12552:	fd070793          	add	a5,a4,-48
   12556:	4625                	li	a2,9
   12558:	000d4703          	lbu	a4,0(s10)
   1255c:	00289693          	sll	a3,a7,0x2
   12560:	98b6                	add	a7,a7,a3
   12562:	0886                	sll	a7,a7,0x1
   12564:	98be                	add	a7,a7,a5
   12566:	fd070793          	add	a5,a4,-48
   1256a:	0d05                	add	s10,s10,1
   1256c:	fef676e3          	bgeu	a2,a5,12558 <_vfiprintf_r+0x138>
   12570:	fe070793          	add	a5,a4,-32
   12574:	fcfdf9e3          	bgeu	s11,a5,12546 <_vfiprintf_r+0x126>
   12578:	22070763          	beqz	a4,127a6 <_vfiprintf_r+0x386>
   1257c:	0ae10623          	sb	a4,172(sp)
   12580:	040101a3          	sb	zero,67(sp)
   12584:	4e85                	li	t4,1
   12586:	4d85                	li	s11,1
   12588:	0ac10813          	add	a6,sp,172
   1258c:	c802                	sw	zero,16(sp)
   1258e:	4c81                	li	s9,0
   12590:	4f81                	li	t6,0
   12592:	5616                	lw	a2,100(sp)
   12594:	084e7293          	and	t0,t3,132
   12598:	57a6                	lw	a5,104(sp)
   1259a:	00160593          	add	a1,a2,1 # 2001 <exit-0xe093>
   1259e:	8f2e                	mv	t5,a1
   125a0:	00029663          	bnez	t0,125ac <_vfiprintf_r+0x18c>
   125a4:	41d88733          	sub	a4,a7,t4
   125a8:	0ae04fe3          	bgtz	a4,12e66 <_vfiprintf_r+0xa46>
   125ac:	04314703          	lbu	a4,67(sp)
   125b0:	cf19                	beqz	a4,125ce <_vfiprintf_r+0x1ae>
   125b2:	04310713          	add	a4,sp,67
   125b6:	0785                	add	a5,a5,1
   125b8:	c018                	sw	a4,0(s0)
   125ba:	4705                	li	a4,1
   125bc:	c058                	sw	a4,4(s0)
   125be:	d4be                	sw	a5,104(sp)
   125c0:	d2fa                	sw	t5,100(sp)
   125c2:	471d                	li	a4,7
   125c4:	01e74ae3          	blt	a4,t5,12dd8 <_vfiprintf_r+0x9b8>
   125c8:	867a                	mv	a2,t5
   125ca:	0421                	add	s0,s0,8
   125cc:	0f05                	add	t5,t5,1
   125ce:	040f8363          	beqz	t6,12614 <_vfiprintf_r+0x1f4>
   125d2:	00d8                	add	a4,sp,68
   125d4:	0789                	add	a5,a5,2
   125d6:	c018                	sw	a4,0(s0)
   125d8:	4709                	li	a4,2
   125da:	c058                	sw	a4,4(s0)
   125dc:	d4be                	sw	a5,104(sp)
   125de:	d2fa                	sw	t5,100(sp)
   125e0:	471d                	li	a4,7
   125e2:	03e75ee3          	bge	a4,t5,12e1e <_vfiprintf_r+0x9fe>
   125e6:	1a0783e3          	beqz	a5,12f8c <_vfiprintf_r+0xb6c>
   125ea:	1090                	add	a2,sp,96
   125ec:	85d2                	mv	a1,s4
   125ee:	8526                	mv	a0,s1
   125f0:	d476                	sw	t4,40(sp)
   125f2:	d246                	sw	a7,36(sp)
   125f4:	d042                	sw	a6,32(sp)
   125f6:	ce16                	sw	t0,28(sp)
   125f8:	cc72                	sw	t3,24(sp)
   125fa:	3385                	jal	1235a <__sprint_r.part.0>
   125fc:	1c051263          	bnez	a0,127c0 <_vfiprintf_r+0x3a0>
   12600:	5616                	lw	a2,100(sp)
   12602:	57a6                	lw	a5,104(sp)
   12604:	5ea2                	lw	t4,40(sp)
   12606:	5892                	lw	a7,36(sp)
   12608:	5802                	lw	a6,32(sp)
   1260a:	42f2                	lw	t0,28(sp)
   1260c:	4e62                	lw	t3,24(sp)
   1260e:	8456                	mv	s0,s5
   12610:	00160f13          	add	t5,a2,1
   12614:	08000713          	li	a4,128
   12618:	64e28a63          	beq	t0,a4,12c6c <_vfiprintf_r+0x84c>
   1261c:	41bc82b3          	sub	t0,s9,s11
   12620:	70504c63          	bgtz	t0,12d38 <_vfiprintf_r+0x918>
   12624:	97ee                	add	a5,a5,s11
   12626:	01042023          	sw	a6,0(s0)
   1262a:	01b42223          	sw	s11,4(s0)
   1262e:	d4be                	sw	a5,104(sp)
   12630:	d2fa                	sw	t5,100(sp)
   12632:	471d                	li	a4,7
   12634:	63e75663          	bge	a4,t5,12c60 <_vfiprintf_r+0x840>
   12638:	1e078263          	beqz	a5,1281c <_vfiprintf_r+0x3fc>
   1263c:	1090                	add	a2,sp,96
   1263e:	85d2                	mv	a1,s4
   12640:	8526                	mv	a0,s1
   12642:	d076                	sw	t4,32(sp)
   12644:	ce46                	sw	a7,28(sp)
   12646:	cc72                	sw	t3,24(sp)
   12648:	3b09                	jal	1235a <__sprint_r.part.0>
   1264a:	16051b63          	bnez	a0,127c0 <_vfiprintf_r+0x3a0>
   1264e:	57a6                	lw	a5,104(sp)
   12650:	5e82                	lw	t4,32(sp)
   12652:	48f2                	lw	a7,28(sp)
   12654:	4e62                	lw	t3,24(sp)
   12656:	8456                	mv	s0,s5
   12658:	004e7e13          	and	t3,t3,4
   1265c:	000e0663          	beqz	t3,12668 <_vfiprintf_r+0x248>
   12660:	41d88cb3          	sub	s9,a7,t4
   12664:	1d904663          	bgtz	s9,12830 <_vfiprintf_r+0x410>
   12668:	01d8d363          	bge	a7,t4,1266e <_vfiprintf_r+0x24e>
   1266c:	88f6                	mv	a7,t4
   1266e:	4732                	lw	a4,12(sp)
   12670:	9746                	add	a4,a4,a7
   12672:	c63a                	sw	a4,12(sp)
   12674:	14079063          	bnez	a5,127b4 <_vfiprintf_r+0x394>
   12678:	47c2                	lw	a5,16(sp)
   1267a:	d282                	sw	zero,100(sp)
   1267c:	c789                	beqz	a5,12686 <_vfiprintf_r+0x266>
   1267e:	85be                	mv	a1,a5
   12680:	8526                	mv	a0,s1
   12682:	044040ef          	jal	166c6 <_free_r>
   12686:	8456                	mv	s0,s5
   12688:	b5b5                	j	124f4 <_vfiprintf_r+0xd4>
   1268a:	85d2                	mv	a1,s4
   1268c:	8526                	mv	a0,s1
   1268e:	0f1010ef          	jal	13f7e <__swsetup_r>
   12692:	5e0519e3          	bnez	a0,13484 <_vfiprintf_r+0x1064>
   12696:	00ca1783          	lh	a5,12(s4)
   1269a:	46a9                	li	a3,10
   1269c:	01a7f713          	and	a4,a5,26
   126a0:	e0d710e3          	bne	a4,a3,124a0 <_vfiprintf_r+0x80>
   126a4:	00ea1703          	lh	a4,14(s4)
   126a8:	de074ce3          	bltz	a4,124a0 <_vfiprintf_r+0x80>
   126ac:	064a2703          	lw	a4,100(s4)
   126b0:	8b05                	and	a4,a4,1
   126b2:	e709                	bnez	a4,126bc <_vfiprintf_r+0x29c>
   126b4:	2007f793          	and	a5,a5,512
   126b8:	54078be3          	beqz	a5,1340e <_vfiprintf_r+0xfee>
   126bc:	86da                	mv	a3,s6
   126be:	8666                	mv	a2,s9
   126c0:	85d2                	mv	a1,s4
   126c2:	8526                	mv	a0,s1
   126c4:	64b000ef          	jal	1350e <__sbprintf>
   126c8:	14c12083          	lw	ra,332(sp)
   126cc:	c62a                	sw	a0,12(sp)
   126ce:	4532                	lw	a0,12(sp)
   126d0:	14412483          	lw	s1,324(sp)
   126d4:	13812a03          	lw	s4,312(sp)
   126d8:	13012b03          	lw	s6,304(sp)
   126dc:	12412c83          	lw	s9,292(sp)
   126e0:	6171                	add	sp,sp,336
   126e2:	8082                	ret
   126e4:	000b2883          	lw	a7,0(s6)
   126e8:	0b11                	add	s6,s6,4
   126ea:	3208c363          	bltz	a7,12a10 <_vfiprintf_r+0x5f0>
   126ee:	000d4703          	lbu	a4,0(s10)
   126f2:	b5a9                	j	1253c <_vfiprintf_r+0x11c>
   126f4:	000d4703          	lbu	a4,0(s10)
   126f8:	020e6e13          	or	t3,t3,32
   126fc:	b581                	j	1253c <_vfiprintf_r+0x11c>
   126fe:	010e6e13          	or	t3,t3,16
   12702:	020e7793          	and	a5,t3,32
   12706:	1e078163          	beqz	a5,128e8 <_vfiprintf_r+0x4c8>
   1270a:	0b1d                	add	s6,s6,7
   1270c:	ff8b7b13          	and	s6,s6,-8
   12710:	004b2783          	lw	a5,4(s6)
   12714:	000b2d83          	lw	s11,0(s6)
   12718:	0b21                	add	s6,s6,8
   1271a:	8ebe                	mv	t4,a5
   1271c:	1e07c963          	bltz	a5,1290e <_vfiprintf_r+0x4ee>
   12720:	200cc763          	bltz	s9,1292e <_vfiprintf_r+0x50e>
   12724:	01dde7b3          	or	a5,s11,t4
   12728:	f7fe7e13          	and	t3,t3,-129
   1272c:	20079163          	bnez	a5,1292e <_vfiprintf_r+0x50e>
   12730:	4c0c97e3          	bnez	s9,133fe <_vfiprintf_r+0xfde>
   12734:	04314783          	lbu	a5,67(sp)
   12738:	c802                	sw	zero,16(sp)
   1273a:	4e81                	li	t4,0
   1273c:	4d81                	li	s11,0
   1273e:	11010813          	add	a6,sp,272
   12742:	c391                	beqz	a5,12746 <_vfiprintf_r+0x326>
   12744:	0e85                	add	t4,t4,1
   12746:	002e7f93          	and	t6,t3,2
   1274a:	e40f84e3          	beqz	t6,12592 <_vfiprintf_r+0x172>
   1274e:	0e89                	add	t4,t4,2
   12750:	4f89                	li	t6,2
   12752:	b581                	j	12592 <_vfiprintf_r+0x172>
   12754:	4621                	li	a2,8
   12756:	4581                	li	a1,0
   12758:	0888                	add	a0,sp,80
   1275a:	6b4020ef          	jal	14e0e <memset>
   1275e:	4505                	li	a0,1
   12760:	9daa                	add	s11,s11,a0
   12762:	bb51                	j	124f6 <_vfiprintf_r+0xd6>
   12764:	8caa                	mv	s9,a0
   12766:	41ad87b3          	sub	a5,s11,s10
   1276a:	03ad8e63          	beq	s11,s10,127a6 <_vfiprintf_r+0x386>
   1276e:	56a6                	lw	a3,104(sp)
   12770:	5716                	lw	a4,100(sp)
   12772:	01a42023          	sw	s10,0(s0)
   12776:	96be                	add	a3,a3,a5
   12778:	0705                	add	a4,a4,1
   1277a:	c05c                	sw	a5,4(s0)
   1277c:	d4b6                	sw	a3,104(sp)
   1277e:	d2ba                	sw	a4,100(sp)
   12780:	461d                	li	a2,7
   12782:	0421                	add	s0,s0,8
   12784:	00e65c63          	bge	a2,a4,1279c <_vfiprintf_r+0x37c>
   12788:	7c068363          	beqz	a3,12f4e <_vfiprintf_r+0xb2e>
   1278c:	1090                	add	a2,sp,96
   1278e:	85d2                	mv	a1,s4
   12790:	8526                	mv	a0,s1
   12792:	c83e                	sw	a5,16(sp)
   12794:	36d9                	jal	1235a <__sprint_r.part.0>
   12796:	47c2                	lw	a5,16(sp)
   12798:	e915                	bnez	a0,127cc <_vfiprintf_r+0x3ac>
   1279a:	8456                	mv	s0,s5
   1279c:	4732                	lw	a4,12(sp)
   1279e:	97ba                	add	a5,a5,a4
   127a0:	c63e                	sw	a5,12(sp)
   127a2:	d80c92e3          	bnez	s9,12526 <_vfiprintf_r+0x106>
   127a6:	57a6                	lw	a5,104(sp)
   127a8:	4a0797e3          	bnez	a5,13456 <_vfiprintf_r+0x1036>
   127ac:	00ca1783          	lh	a5,12(s4)
   127b0:	d282                	sw	zero,100(sp)
   127b2:	a839                	j	127d0 <_vfiprintf_r+0x3b0>
   127b4:	1090                	add	a2,sp,96
   127b6:	85d2                	mv	a1,s4
   127b8:	8526                	mv	a0,s1
   127ba:	3645                	jal	1235a <__sprint_r.part.0>
   127bc:	ea050ee3          	beqz	a0,12678 <_vfiprintf_r+0x258>
   127c0:	47c2                	lw	a5,16(sp)
   127c2:	c789                	beqz	a5,127cc <_vfiprintf_r+0x3ac>
   127c4:	45c2                	lw	a1,16(sp)
   127c6:	8526                	mv	a0,s1
   127c8:	6ff030ef          	jal	166c6 <_free_r>
   127cc:	00ca1783          	lh	a5,12(s4)
   127d0:	064a2703          	lw	a4,100(s4)
   127d4:	8b05                	and	a4,a4,1
   127d6:	0e070e63          	beqz	a4,128d2 <_vfiprintf_r+0x4b2>
   127da:	0407f793          	and	a5,a5,64
   127de:	14812403          	lw	s0,328(sp)
   127e2:	14012903          	lw	s2,320(sp)
   127e6:	13c12983          	lw	s3,316(sp)
   127ea:	13412a83          	lw	s5,308(sp)
   127ee:	12c12b83          	lw	s7,300(sp)
   127f2:	12812c03          	lw	s8,296(sp)
   127f6:	12012d03          	lw	s10,288(sp)
   127fa:	11c12d83          	lw	s11,284(sp)
   127fe:	4a0790e3          	bnez	a5,1349e <_vfiprintf_r+0x107e>
   12802:	14c12083          	lw	ra,332(sp)
   12806:	4532                	lw	a0,12(sp)
   12808:	14412483          	lw	s1,324(sp)
   1280c:	13812a03          	lw	s4,312(sp)
   12810:	13012b03          	lw	s6,304(sp)
   12814:	12412c83          	lw	s9,292(sp)
   12818:	6171                	add	sp,sp,336
   1281a:	8082                	ret
   1281c:	d282                	sw	zero,100(sp)
   1281e:	004e7e13          	and	t3,t3,4
   12822:	6e0e0763          	beqz	t3,12f10 <_vfiprintf_r+0xaf0>
   12826:	41d88cb3          	sub	s9,a7,t4
   1282a:	6f905363          	blez	s9,12f10 <_vfiprintf_r+0xaf0>
   1282e:	8456                	mv	s0,s5
   12830:	4741                	li	a4,16
   12832:	5696                	lw	a3,100(sp)
   12834:	43975ae3          	bge	a4,s9,13468 <_vfiprintf_r+0x1048>
   12838:	0000a317          	auipc	t1,0xa
   1283c:	a0030313          	add	t1,t1,-1536 # 1c238 <blanks.1>
   12840:	85a2                	mv	a1,s0
   12842:	4841                	li	a6,16
   12844:	8466                	mv	s0,s9
   12846:	4d9d                	li	s11,7
   12848:	8cda                	mv	s9,s6
   1284a:	cc46                	sw	a7,24(sp)
   1284c:	ce76                	sw	t4,28(sp)
   1284e:	8b1a                	mv	s6,t1
   12850:	a801                	j	12860 <_vfiprintf_r+0x440>
   12852:	00268613          	add	a2,a3,2
   12856:	05a1                	add	a1,a1,8
   12858:	86ba                	mv	a3,a4
   1285a:	1441                	add	s0,s0,-16
   1285c:	02885d63          	bge	a6,s0,12896 <_vfiprintf_r+0x476>
   12860:	07c1                	add	a5,a5,16
   12862:	00168713          	add	a4,a3,1
   12866:	0165a023          	sw	s6,0(a1)
   1286a:	0105a223          	sw	a6,4(a1)
   1286e:	d4be                	sw	a5,104(sp)
   12870:	d2ba                	sw	a4,100(sp)
   12872:	feedd0e3          	bge	s11,a4,12852 <_vfiprintf_r+0x432>
   12876:	3e078763          	beqz	a5,12c64 <_vfiprintf_r+0x844>
   1287a:	1090                	add	a2,sp,96
   1287c:	85d2                	mv	a1,s4
   1287e:	8526                	mv	a0,s1
   12880:	3ce9                	jal	1235a <__sprint_r.part.0>
   12882:	fd1d                	bnez	a0,127c0 <_vfiprintf_r+0x3a0>
   12884:	5696                	lw	a3,100(sp)
   12886:	4841                	li	a6,16
   12888:	1441                	add	s0,s0,-16
   1288a:	57a6                	lw	a5,104(sp)
   1288c:	85d6                	mv	a1,s5
   1288e:	00168613          	add	a2,a3,1
   12892:	fc8847e3          	blt	a6,s0,12860 <_vfiprintf_r+0x440>
   12896:	48e2                	lw	a7,24(sp)
   12898:	4ef2                	lw	t4,28(sp)
   1289a:	835a                	mv	t1,s6
   1289c:	8b66                	mv	s6,s9
   1289e:	8ca2                	mv	s9,s0
   128a0:	842e                	mv	s0,a1
   128a2:	97e6                	add	a5,a5,s9
   128a4:	00642023          	sw	t1,0(s0)
   128a8:	01942223          	sw	s9,4(s0)
   128ac:	d4be                	sw	a5,104(sp)
   128ae:	d2b2                	sw	a2,100(sp)
   128b0:	471d                	li	a4,7
   128b2:	dac75be3          	bge	a4,a2,12668 <_vfiprintf_r+0x248>
   128b6:	64078d63          	beqz	a5,12f10 <_vfiprintf_r+0xaf0>
   128ba:	1090                	add	a2,sp,96
   128bc:	85d2                	mv	a1,s4
   128be:	8526                	mv	a0,s1
   128c0:	ce76                	sw	t4,28(sp)
   128c2:	cc46                	sw	a7,24(sp)
   128c4:	3c59                	jal	1235a <__sprint_r.part.0>
   128c6:	ee051de3          	bnez	a0,127c0 <_vfiprintf_r+0x3a0>
   128ca:	57a6                	lw	a5,104(sp)
   128cc:	4ef2                	lw	t4,28(sp)
   128ce:	48e2                	lw	a7,24(sp)
   128d0:	bb61                	j	12668 <_vfiprintf_r+0x248>
   128d2:	2007f713          	and	a4,a5,512
   128d6:	f00712e3          	bnez	a4,127da <_vfiprintf_r+0x3ba>
   128da:	058a2503          	lw	a0,88(s4)
   128de:	1d1020ef          	jal	152ae <__retarget_lock_release_recursive>
   128e2:	00ca1783          	lh	a5,12(s4)
   128e6:	bdd5                	j	127da <_vfiprintf_r+0x3ba>
   128e8:	010e7793          	and	a5,t3,16
   128ec:	000b2d83          	lw	s11,0(s6)
   128f0:	0b11                	add	s6,s6,4
   128f2:	70079463          	bnez	a5,12ffa <_vfiprintf_r+0xbda>
   128f6:	040e7793          	and	a5,t3,64
   128fa:	6e078c63          	beqz	a5,12ff2 <_vfiprintf_r+0xbd2>
   128fe:	0dc2                	sll	s11,s11,0x10
   12900:	410ddd93          	sra	s11,s11,0x10
   12904:	41fdde93          	sra	t4,s11,0x1f
   12908:	87f6                	mv	a5,t4
   1290a:	e007dbe3          	bgez	a5,12720 <_vfiprintf_r+0x300>
   1290e:	02d00713          	li	a4,45
   12912:	01b037b3          	snez	a5,s11
   12916:	41d00eb3          	neg	t4,t4
   1291a:	04e101a3          	sb	a4,67(sp)
   1291e:	40fe8eb3          	sub	t4,t4,a5
   12922:	41b00db3          	neg	s11,s11
   12926:	000cc463          	bltz	s9,1292e <_vfiprintf_r+0x50e>
   1292a:	f7fe7e13          	and	t3,t3,-129
   1292e:	080e92e3          	bnez	t4,131b2 <_vfiprintf_r+0xd92>
   12932:	47a5                	li	a5,9
   12934:	07b7efe3          	bltu	a5,s11,131b2 <_vfiprintf_r+0xd92>
   12938:	030d8793          	add	a5,s11,48
   1293c:	0ff7f793          	zext.b	a5,a5
   12940:	10f107a3          	sb	a5,271(sp)
   12944:	8ee6                	mv	t4,s9
   12946:	01904363          	bgtz	s9,1294c <_vfiprintf_r+0x52c>
   1294a:	4e85                	li	t4,1
   1294c:	4d85                	li	s11,1
   1294e:	10f10813          	add	a6,sp,271
   12952:	04314783          	lbu	a5,67(sp)
   12956:	c802                	sw	zero,16(sp)
   12958:	de0796e3          	bnez	a5,12744 <_vfiprintf_r+0x324>
   1295c:	b3ed                	j	12746 <_vfiprintf_r+0x326>
   1295e:	000b2803          	lw	a6,0(s6)
   12962:	004b0793          	add	a5,s6,4
   12966:	040101a3          	sb	zero,67(sp)
   1296a:	cc3e                	sw	a5,24(sp)
   1296c:	1c080ee3          	beqz	a6,13348 <_vfiprintf_r+0xf28>
   12970:	05300793          	li	a5,83
   12974:	74f70663          	beq	a4,a5,130c0 <_vfiprintf_r+0xca0>
   12978:	010e7793          	and	a5,t3,16
   1297c:	74079263          	bnez	a5,130c0 <_vfiprintf_r+0xca0>
   12980:	d246                	sw	a7,36(sp)
   12982:	d072                	sw	t3,32(sp)
   12984:	2a0cc9e3          	bltz	s9,13436 <_vfiprintf_r+0x1016>
   12988:	8542                	mv	a0,a6
   1298a:	8666                	mv	a2,s9
   1298c:	4581                	li	a1,0
   1298e:	ce42                	sw	a6,28(sp)
   12990:	6c8010ef          	jal	14058 <memchr>
   12994:	c82a                	sw	a0,16(sp)
   12996:	4872                	lw	a6,28(sp)
   12998:	5e02                	lw	t3,32(sp)
   1299a:	5892                	lw	a7,36(sp)
   1299c:	26050fe3          	beqz	a0,1341a <_vfiprintf_r+0xffa>
   129a0:	41050db3          	sub	s11,a0,a6
   129a4:	fffdce93          	not	t4,s11
   129a8:	41fede93          	sra	t4,t4,0x1f
   129ac:	01ddfeb3          	and	t4,s11,t4
   129b0:	c802                	sw	zero,16(sp)
   129b2:	1f10006f          	j	133a2 <_vfiprintf_r+0xf82>
   129b6:	04300793          	li	a5,67
   129ba:	004b0813          	add	a6,s6,4
   129be:	00f70663          	beq	a4,a5,129ca <_vfiprintf_r+0x5aa>
   129c2:	010e7793          	and	a5,t3,16
   129c6:	66078463          	beqz	a5,1302e <_vfiprintf_r+0xc0e>
   129ca:	4621                	li	a2,8
   129cc:	4581                	li	a1,0
   129ce:	08a8                	add	a0,sp,88
   129d0:	ce42                	sw	a6,28(sp)
   129d2:	cc46                	sw	a7,24(sp)
   129d4:	c872                	sw	t3,16(sp)
   129d6:	438020ef          	jal	14e0e <memset>
   129da:	000b2603          	lw	a2,0(s6)
   129de:	0ac10c93          	add	s9,sp,172
   129e2:	08b4                	add	a3,sp,88
   129e4:	85e6                	mv	a1,s9
   129e6:	8526                	mv	a0,s1
   129e8:	0c9020ef          	jal	152b0 <_wcrtomb_r>
   129ec:	57fd                	li	a5,-1
   129ee:	4e42                	lw	t3,16(sp)
   129f0:	48e2                	lw	a7,24(sp)
   129f2:	4872                	lw	a6,28(sp)
   129f4:	8daa                	mv	s11,a0
   129f6:	2cf50ae3          	beq	a0,a5,134ca <_vfiprintf_r+0x10aa>
   129fa:	fff54e93          	not	t4,a0
   129fe:	41fede93          	sra	t4,t4,0x1f
   12a02:	01d57eb3          	and	t4,a0,t4
   12a06:	8b42                	mv	s6,a6
   12a08:	040101a3          	sb	zero,67(sp)
   12a0c:	8866                	mv	a6,s9
   12a0e:	bebd                	j	1258c <_vfiprintf_r+0x16c>
   12a10:	411008b3          	neg	a7,a7
   12a14:	000d4703          	lbu	a4,0(s10)
   12a18:	004e6e13          	or	t3,t3,4
   12a1c:	b605                	j	1253c <_vfiprintf_r+0x11c>
   12a1e:	02b00793          	li	a5,43
   12a22:	000d4703          	lbu	a4,0(s10)
   12a26:	04f101a3          	sb	a5,67(sp)
   12a2a:	be09                	j	1253c <_vfiprintf_r+0x11c>
   12a2c:	000d4703          	lbu	a4,0(s10)
   12a30:	080e6e13          	or	t3,t3,128
   12a34:	b621                	j	1253c <_vfiprintf_r+0x11c>
   12a36:	000d4703          	lbu	a4,0(s10)
   12a3a:	02a00793          	li	a5,42
   12a3e:	001d0613          	add	a2,s10,1
   12a42:	28f70ce3          	beq	a4,a5,134da <_vfiprintf_r+0x10ba>
   12a46:	fd070793          	add	a5,a4,-48
   12a4a:	46a5                	li	a3,9
   12a4c:	4c81                	li	s9,0
   12a4e:	45a5                	li	a1,9
   12a50:	02f6e063          	bltu	a3,a5,12a70 <_vfiprintf_r+0x650>
   12a54:	00064703          	lbu	a4,0(a2)
   12a58:	002c9693          	sll	a3,s9,0x2
   12a5c:	9cb6                	add	s9,s9,a3
   12a5e:	0c86                	sll	s9,s9,0x1
   12a60:	9cbe                	add	s9,s9,a5
   12a62:	fd070793          	add	a5,a4,-48
   12a66:	0605                	add	a2,a2,1
   12a68:	fef5f6e3          	bgeu	a1,a5,12a54 <_vfiprintf_r+0x634>
   12a6c:	5c0ccd63          	bltz	s9,13046 <_vfiprintf_r+0xc26>
   12a70:	8d32                	mv	s10,a2
   12a72:	b4f1                	j	1253e <_vfiprintf_r+0x11e>
   12a74:	8526                	mv	a0,s1
   12a76:	cc46                	sw	a7,24(sp)
   12a78:	c872                	sw	t3,16(sp)
   12a7a:	2bc020ef          	jal	14d36 <_localeconv_r>
   12a7e:	415c                	lw	a5,4(a0)
   12a80:	853e                	mv	a0,a5
   12a82:	da3e                	sw	a5,52(sp)
   12a84:	578020ef          	jal	14ffc <strlen>
   12a88:	87aa                	mv	a5,a0
   12a8a:	8526                	mv	a0,s1
   12a8c:	d83e                	sw	a5,48(sp)
   12a8e:	2a8020ef          	jal	14d36 <_localeconv_r>
   12a92:	4518                	lw	a4,8(a0)
   12a94:	57c2                	lw	a5,48(sp)
   12a96:	4e42                	lw	t3,16(sp)
   12a98:	d63a                	sw	a4,44(sp)
   12a9a:	48e2                	lw	a7,24(sp)
   12a9c:	c40789e3          	beqz	a5,126ee <_vfiprintf_r+0x2ce>
   12aa0:	57b2                	lw	a5,44(sp)
   12aa2:	000d4703          	lbu	a4,0(s10)
   12aa6:	a8078be3          	beqz	a5,1253c <_vfiprintf_r+0x11c>
   12aaa:	0007c783          	lbu	a5,0(a5)
   12aae:	a80787e3          	beqz	a5,1253c <_vfiprintf_r+0x11c>
   12ab2:	400e6e13          	or	t3,t3,1024
   12ab6:	b459                	j	1253c <_vfiprintf_r+0x11c>
   12ab8:	000d4703          	lbu	a4,0(s10)
   12abc:	001e6e13          	or	t3,t3,1
   12ac0:	bcb5                	j	1253c <_vfiprintf_r+0x11c>
   12ac2:	04314783          	lbu	a5,67(sp)
   12ac6:	000d4703          	lbu	a4,0(s10)
   12aca:	a60799e3          	bnez	a5,1253c <_vfiprintf_r+0x11c>
   12ace:	02000793          	li	a5,32
   12ad2:	04f101a3          	sb	a5,67(sp)
   12ad6:	b49d                	j	1253c <_vfiprintf_r+0x11c>
   12ad8:	010e6713          	or	a4,t3,16
   12adc:	02077793          	and	a5,a4,32
   12ae0:	48078963          	beqz	a5,12f72 <_vfiprintf_r+0xb52>
   12ae4:	0b1d                	add	s6,s6,7
   12ae6:	ff8b7b13          	and	s6,s6,-8
   12aea:	000b2783          	lw	a5,0(s6)
   12aee:	004b2603          	lw	a2,4(s6)
   12af2:	0b21                	add	s6,s6,8
   12af4:	040101a3          	sb	zero,67(sp)
   12af8:	bff77e13          	and	t3,a4,-1025
   12afc:	0a0cc163          	bltz	s9,12b9e <_vfiprintf_r+0x77e>
   12b00:	00c7e6b3          	or	a3,a5,a2
   12b04:	b7f77713          	and	a4,a4,-1153
   12b08:	000691e3          	bnez	a3,1330a <_vfiprintf_r+0xeea>
   12b0c:	86f2                	mv	a3,t3
   12b0e:	4781                	li	a5,0
   12b10:	8e3a                	mv	t3,a4
   12b12:	060c9e63          	bnez	s9,12b8e <_vfiprintf_r+0x76e>
   12b16:	c0079fe3          	bnez	a5,12734 <_vfiprintf_r+0x314>
   12b1a:	0016fd93          	and	s11,a3,1
   12b1e:	4a0d8863          	beqz	s11,12fce <_vfiprintf_r+0xbae>
   12b22:	03000793          	li	a5,48
   12b26:	10f107a3          	sb	a5,271(sp)
   12b2a:	8eee                	mv	t4,s11
   12b2c:	10f10813          	add	a6,sp,271
   12b30:	b50d                	j	12952 <_vfiprintf_r+0x532>
   12b32:	000d4703          	lbu	a4,0(s10)
   12b36:	06c00793          	li	a5,108
   12b3a:	7ef70963          	beq	a4,a5,1332c <_vfiprintf_r+0xf0c>
   12b3e:	010e6e13          	or	t3,t3,16
   12b42:	baed                	j	1253c <_vfiprintf_r+0x11c>
   12b44:	000d4703          	lbu	a4,0(s10)
   12b48:	06800793          	li	a5,104
   12b4c:	7cf70963          	beq	a4,a5,1331e <_vfiprintf_r+0xefe>
   12b50:	040e6e13          	or	t3,t3,64
   12b54:	b2e5                	j	1253c <_vfiprintf_r+0x11c>
   12b56:	010e6693          	or	a3,t3,16
   12b5a:	0206f793          	and	a5,a3,32
   12b5e:	3e078b63          	beqz	a5,12f54 <_vfiprintf_r+0xb34>
   12b62:	0b1d                	add	s6,s6,7
   12b64:	ff8b7b13          	and	s6,s6,-8
   12b68:	000b2d83          	lw	s11,0(s6)
   12b6c:	004b2e83          	lw	t4,4(s6)
   12b70:	0b21                	add	s6,s6,8
   12b72:	040101a3          	sb	zero,67(sp)
   12b76:	8e36                	mv	t3,a3
   12b78:	da0ccbe3          	bltz	s9,1292e <_vfiprintf_r+0x50e>
   12b7c:	01dde7b3          	or	a5,s11,t4
   12b80:	f7f6fe13          	and	t3,a3,-129
   12b84:	da0795e3          	bnez	a5,1292e <_vfiprintf_r+0x50e>
   12b88:	4785                	li	a5,1
   12b8a:	f80c86e3          	beqz	s9,12b16 <_vfiprintf_r+0x6f6>
   12b8e:	4705                	li	a4,1
   12b90:	06e787e3          	beq	a5,a4,133fe <_vfiprintf_r+0xfde>
   12b94:	4709                	li	a4,2
   12b96:	7ce78e63          	beq	a5,a4,13372 <_vfiprintf_r+0xf52>
   12b9a:	4781                	li	a5,0
   12b9c:	4601                	li	a2,0
   12b9e:	11010813          	add	a6,sp,272
   12ba2:	01d61693          	sll	a3,a2,0x1d
   12ba6:	0077f713          	and	a4,a5,7
   12baa:	838d                	srl	a5,a5,0x3
   12bac:	03070713          	add	a4,a4,48
   12bb0:	8fd5                	or	a5,a5,a3
   12bb2:	820d                	srl	a2,a2,0x3
   12bb4:	fee80fa3          	sb	a4,-1(a6)
   12bb8:	00c7e6b3          	or	a3,a5,a2
   12bbc:	85c2                	mv	a1,a6
   12bbe:	187d                	add	a6,a6,-1
   12bc0:	f2ed                	bnez	a3,12ba2 <_vfiprintf_r+0x782>
   12bc2:	001e7793          	and	a5,t3,1
   12bc6:	28078863          	beqz	a5,12e56 <_vfiprintf_r+0xa36>
   12bca:	03000793          	li	a5,48
   12bce:	28f70463          	beq	a4,a5,12e56 <_vfiprintf_r+0xa36>
   12bd2:	15f9                	add	a1,a1,-2
   12bd4:	fef80fa3          	sb	a5,-1(a6)
   12bd8:	0a1c                	add	a5,sp,272
   12bda:	40b78db3          	sub	s11,a5,a1
   12bde:	8ee6                	mv	t4,s9
   12be0:	47bcc063          	blt	s9,s11,13040 <_vfiprintf_r+0xc20>
   12be4:	882e                	mv	a6,a1
   12be6:	b3b5                	j	12952 <_vfiprintf_r+0x532>
   12be8:	6721                	lui	a4,0x8
   12bea:	83070713          	add	a4,a4,-2000 # 7830 <exit-0x8864>
   12bee:	04e11223          	sh	a4,68(sp)
   12bf2:	00009717          	auipc	a4,0x9
   12bf6:	f7a70713          	add	a4,a4,-134 # 1bb6c <__clzsi2+0x8c>
   12bfa:	000b2783          	lw	a5,0(s6)
   12bfe:	4601                	li	a2,0
   12c00:	002e6e13          	or	t3,t3,2
   12c04:	0b11                	add	s6,s6,4
   12c06:	ca3a                	sw	a4,20(sp)
   12c08:	040101a3          	sb	zero,67(sp)
   12c0c:	220cc263          	bltz	s9,12e30 <_vfiprintf_r+0xa10>
   12c10:	00c7e733          	or	a4,a5,a2
   12c14:	f7fe7593          	and	a1,t3,-129
   12c18:	20071863          	bnez	a4,12e28 <_vfiprintf_r+0xa08>
   12c1c:	86f2                	mv	a3,t3
   12c1e:	4789                	li	a5,2
   12c20:	8e2e                	mv	t3,a1
   12c22:	bdc5                	j	12b12 <_vfiprintf_r+0x6f2>
   12c24:	020e7793          	and	a5,t3,32
   12c28:	3e079463          	bnez	a5,13010 <_vfiprintf_r+0xbf0>
   12c2c:	010e7793          	and	a5,t3,16
   12c30:	70079563          	bnez	a5,1333a <_vfiprintf_r+0xf1a>
   12c34:	040e7793          	and	a5,t3,64
   12c38:	78079a63          	bnez	a5,133cc <_vfiprintf_r+0xfac>
   12c3c:	200e7e13          	and	t3,t3,512
   12c40:	6e0e0d63          	beqz	t3,1333a <_vfiprintf_r+0xf1a>
   12c44:	000b2783          	lw	a5,0(s6)
   12c48:	4732                	lw	a4,12(sp)
   12c4a:	0b11                	add	s6,s6,4
   12c4c:	00e78023          	sb	a4,0(a5)
   12c50:	b055                	j	124f4 <_vfiprintf_r+0xd4>
   12c52:	4705                	li	a4,1
   12c54:	87ee                	mv	a5,s11
   12c56:	d6c2                	sw	a6,108(sp)
   12c58:	d8ee                	sw	s11,112(sp)
   12c5a:	d4ee                	sw	s11,104(sp)
   12c5c:	d2ba                	sw	a4,100(sp)
   12c5e:	8456                	mv	s0,s5
   12c60:	0421                	add	s0,s0,8
   12c62:	badd                	j	12658 <_vfiprintf_r+0x238>
   12c64:	4605                	li	a2,1
   12c66:	4681                	li	a3,0
   12c68:	85d6                	mv	a1,s5
   12c6a:	bec5                	j	1285a <_vfiprintf_r+0x43a>
   12c6c:	41d88733          	sub	a4,a7,t4
   12c70:	9ae056e3          	blez	a4,1261c <_vfiprintf_r+0x1fc>
   12c74:	45c1                	li	a1,16
   12c76:	00e5d1e3          	bge	a1,a4,13478 <_vfiprintf_r+0x1058>
   12c7a:	00009f97          	auipc	t6,0x9
   12c7e:	5aef8f93          	add	t6,t6,1454 # 1c228 <zeroes.0>
   12c82:	85a2                	mv	a1,s0
   12c84:	d45a                	sw	s6,40(sp)
   12c86:	4f41                	li	t5,16
   12c88:	429d                	li	t0,7
   12c8a:	cc72                	sw	t3,24(sp)
   12c8c:	ce42                	sw	a6,28(sp)
   12c8e:	d046                	sw	a7,32(sp)
   12c90:	d276                	sw	t4,36(sp)
   12c92:	843a                	mv	s0,a4
   12c94:	8b7e                	mv	s6,t6
   12c96:	a801                	j	12ca6 <_vfiprintf_r+0x886>
   12c98:	00260513          	add	a0,a2,2
   12c9c:	05a1                	add	a1,a1,8
   12c9e:	8636                	mv	a2,a3
   12ca0:	1441                	add	s0,s0,-16
   12ca2:	048f5063          	bge	t5,s0,12ce2 <_vfiprintf_r+0x8c2>
   12ca6:	07c1                	add	a5,a5,16
   12ca8:	00160693          	add	a3,a2,1
   12cac:	0165a023          	sw	s6,0(a1)
   12cb0:	01e5a223          	sw	t5,4(a1)
   12cb4:	d4be                	sw	a5,104(sp)
   12cb6:	d2b6                	sw	a3,100(sp)
   12cb8:	fed2d0e3          	bge	t0,a3,12c98 <_vfiprintf_r+0x878>
   12cbc:	10078a63          	beqz	a5,12dd0 <_vfiprintf_r+0x9b0>
   12cc0:	1090                	add	a2,sp,96
   12cc2:	85d2                	mv	a1,s4
   12cc4:	8526                	mv	a0,s1
   12cc6:	e94ff0ef          	jal	1235a <__sprint_r.part.0>
   12cca:	ae051be3          	bnez	a0,127c0 <_vfiprintf_r+0x3a0>
   12cce:	5616                	lw	a2,100(sp)
   12cd0:	4f41                	li	t5,16
   12cd2:	1441                	add	s0,s0,-16
   12cd4:	57a6                	lw	a5,104(sp)
   12cd6:	85d6                	mv	a1,s5
   12cd8:	00160513          	add	a0,a2,1
   12cdc:	429d                	li	t0,7
   12cde:	fc8f44e3          	blt	t5,s0,12ca6 <_vfiprintf_r+0x886>
   12ce2:	8fda                	mv	t6,s6
   12ce4:	4e62                	lw	t3,24(sp)
   12ce6:	4872                	lw	a6,28(sp)
   12ce8:	5882                	lw	a7,32(sp)
   12cea:	5e92                	lw	t4,36(sp)
   12cec:	5b22                	lw	s6,40(sp)
   12cee:	8722                	mv	a4,s0
   12cf0:	842e                	mv	s0,a1
   12cf2:	97ba                	add	a5,a5,a4
   12cf4:	c058                	sw	a4,4(s0)
   12cf6:	01f42023          	sw	t6,0(s0)
   12cfa:	d4be                	sw	a5,104(sp)
   12cfc:	d2aa                	sw	a0,100(sp)
   12cfe:	471d                	li	a4,7
   12d00:	2ea75363          	bge	a4,a0,12fe6 <_vfiprintf_r+0xbc6>
   12d04:	6a078863          	beqz	a5,133b4 <_vfiprintf_r+0xf94>
   12d08:	1090                	add	a2,sp,96
   12d0a:	85d2                	mv	a1,s4
   12d0c:	8526                	mv	a0,s1
   12d0e:	d276                	sw	t4,36(sp)
   12d10:	d046                	sw	a7,32(sp)
   12d12:	ce42                	sw	a6,28(sp)
   12d14:	cc72                	sw	t3,24(sp)
   12d16:	e44ff0ef          	jal	1235a <__sprint_r.part.0>
   12d1a:	aa0513e3          	bnez	a0,127c0 <_vfiprintf_r+0x3a0>
   12d1e:	5616                	lw	a2,100(sp)
   12d20:	41bc82b3          	sub	t0,s9,s11
   12d24:	57a6                	lw	a5,104(sp)
   12d26:	5e92                	lw	t4,36(sp)
   12d28:	5882                	lw	a7,32(sp)
   12d2a:	4872                	lw	a6,28(sp)
   12d2c:	4e62                	lw	t3,24(sp)
   12d2e:	8456                	mv	s0,s5
   12d30:	00160f13          	add	t5,a2,1
   12d34:	8e5058e3          	blez	t0,12624 <_vfiprintf_r+0x204>
   12d38:	4741                	li	a4,16
   12d3a:	00009f97          	auipc	t6,0x9
   12d3e:	4eef8f93          	add	t6,t6,1262 # 1c228 <zeroes.0>
   12d42:	06575663          	bge	a4,t0,12dae <_vfiprintf_r+0x98e>
   12d46:	85a2                	mv	a1,s0
   12d48:	4cc1                	li	s9,16
   12d4a:	471d                	li	a4,7
   12d4c:	cc72                	sw	t3,24(sp)
   12d4e:	ce42                	sw	a6,28(sp)
   12d50:	d046                	sw	a7,32(sp)
   12d52:	d276                	sw	t4,36(sp)
   12d54:	8416                	mv	s0,t0
   12d56:	d45e                	sw	s7,40(sp)
   12d58:	a801                	j	12d68 <_vfiprintf_r+0x948>
   12d5a:	00260f13          	add	t5,a2,2
   12d5e:	05a1                	add	a1,a1,8
   12d60:	8636                	mv	a2,a3
   12d62:	1441                	add	s0,s0,-16
   12d64:	028cde63          	bge	s9,s0,12da0 <_vfiprintf_r+0x980>
   12d68:	07c1                	add	a5,a5,16
   12d6a:	00160693          	add	a3,a2,1
   12d6e:	0175a023          	sw	s7,0(a1)
   12d72:	0195a223          	sw	s9,4(a1)
   12d76:	d4be                	sw	a5,104(sp)
   12d78:	d2b6                	sw	a3,100(sp)
   12d7a:	fed750e3          	bge	a4,a3,12d5a <_vfiprintf_r+0x93a>
   12d7e:	c7a9                	beqz	a5,12dc8 <_vfiprintf_r+0x9a8>
   12d80:	1090                	add	a2,sp,96
   12d82:	85d2                	mv	a1,s4
   12d84:	8526                	mv	a0,s1
   12d86:	dd4ff0ef          	jal	1235a <__sprint_r.part.0>
   12d8a:	a2051be3          	bnez	a0,127c0 <_vfiprintf_r+0x3a0>
   12d8e:	5616                	lw	a2,100(sp)
   12d90:	1441                	add	s0,s0,-16
   12d92:	57a6                	lw	a5,104(sp)
   12d94:	85d6                	mv	a1,s5
   12d96:	00160f13          	add	t5,a2,1
   12d9a:	471d                	li	a4,7
   12d9c:	fc8cc6e3          	blt	s9,s0,12d68 <_vfiprintf_r+0x948>
   12da0:	4e62                	lw	t3,24(sp)
   12da2:	4872                	lw	a6,28(sp)
   12da4:	5882                	lw	a7,32(sp)
   12da6:	5e92                	lw	t4,36(sp)
   12da8:	5fa2                	lw	t6,40(sp)
   12daa:	82a2                	mv	t0,s0
   12dac:	842e                	mv	s0,a1
   12dae:	9796                	add	a5,a5,t0
   12db0:	01f42023          	sw	t6,0(s0)
   12db4:	00542223          	sw	t0,4(s0)
   12db8:	d4be                	sw	a5,104(sp)
   12dba:	d2fa                	sw	t5,100(sp)
   12dbc:	471d                	li	a4,7
   12dbe:	17e74163          	blt	a4,t5,12f20 <_vfiprintf_r+0xb00>
   12dc2:	0421                	add	s0,s0,8
   12dc4:	0f05                	add	t5,t5,1
   12dc6:	b8b9                	j	12624 <_vfiprintf_r+0x204>
   12dc8:	4f05                	li	t5,1
   12dca:	4601                	li	a2,0
   12dcc:	85d6                	mv	a1,s5
   12dce:	bf51                	j	12d62 <_vfiprintf_r+0x942>
   12dd0:	4505                	li	a0,1
   12dd2:	4601                	li	a2,0
   12dd4:	85d6                	mv	a1,s5
   12dd6:	b5e9                	j	12ca0 <_vfiprintf_r+0x880>
   12dd8:	cb9d                	beqz	a5,12e0e <_vfiprintf_r+0x9ee>
   12dda:	1090                	add	a2,sp,96
   12ddc:	85d2                	mv	a1,s4
   12dde:	8526                	mv	a0,s1
   12de0:	dc76                	sw	t4,56(sp)
   12de2:	d446                	sw	a7,40(sp)
   12de4:	d242                	sw	a6,36(sp)
   12de6:	d016                	sw	t0,32(sp)
   12de8:	ce7e                	sw	t6,28(sp)
   12dea:	cc72                	sw	t3,24(sp)
   12dec:	d6eff0ef          	jal	1235a <__sprint_r.part.0>
   12df0:	9c0518e3          	bnez	a0,127c0 <_vfiprintf_r+0x3a0>
   12df4:	5616                	lw	a2,100(sp)
   12df6:	57a6                	lw	a5,104(sp)
   12df8:	5ee2                	lw	t4,56(sp)
   12dfa:	58a2                	lw	a7,40(sp)
   12dfc:	5812                	lw	a6,36(sp)
   12dfe:	5282                	lw	t0,32(sp)
   12e00:	4ff2                	lw	t6,28(sp)
   12e02:	4e62                	lw	t3,24(sp)
   12e04:	8456                	mv	s0,s5
   12e06:	00160f13          	add	t5,a2,1
   12e0a:	fc4ff06f          	j	125ce <_vfiprintf_r+0x1ae>
   12e0e:	200f8b63          	beqz	t6,13024 <_vfiprintf_r+0xc04>
   12e12:	00dc                	add	a5,sp,68
   12e14:	d6be                	sw	a5,108(sp)
   12e16:	4789                	li	a5,2
   12e18:	d8be                	sw	a5,112(sp)
   12e1a:	4f05                	li	t5,1
   12e1c:	8456                	mv	s0,s5
   12e1e:	867a                	mv	a2,t5
   12e20:	0421                	add	s0,s0,8
   12e22:	0f05                	add	t5,t5,1
   12e24:	ff0ff06f          	j	12614 <_vfiprintf_r+0x1f4>
   12e28:	4709                	li	a4,2
   12e2a:	8e2e                	mv	t3,a1
   12e2c:	d60709e3          	beqz	a4,12b9e <_vfiprintf_r+0x77e>
   12e30:	45d2                	lw	a1,20(sp)
   12e32:	11010813          	add	a6,sp,272
   12e36:	00f7f713          	and	a4,a5,15
   12e3a:	972e                	add	a4,a4,a1
   12e3c:	00074683          	lbu	a3,0(a4)
   12e40:	8391                	srl	a5,a5,0x4
   12e42:	01c61713          	sll	a4,a2,0x1c
   12e46:	8fd9                	or	a5,a5,a4
   12e48:	8211                	srl	a2,a2,0x4
   12e4a:	fed80fa3          	sb	a3,-1(a6)
   12e4e:	00c7e733          	or	a4,a5,a2
   12e52:	187d                	add	a6,a6,-1
   12e54:	f36d                	bnez	a4,12e36 <_vfiprintf_r+0xa16>
   12e56:	0a1c                	add	a5,sp,272
   12e58:	41078db3          	sub	s11,a5,a6
   12e5c:	8ee6                	mv	t4,s9
   12e5e:	afbcdae3          	bge	s9,s11,12952 <_vfiprintf_r+0x532>
   12e62:	8eee                	mv	t4,s11
   12e64:	b4fd                	j	12952 <_vfiprintf_r+0x532>
   12e66:	4541                	li	a0,16
   12e68:	5ce55163          	bge	a0,a4,1342a <_vfiprintf_r+0x100a>
   12e6c:	00009317          	auipc	t1,0x9
   12e70:	3cc30313          	add	t1,t1,972 # 1c238 <blanks.1>
   12e74:	86a2                	mv	a3,s0
   12e76:	de5a                	sw	s6,60(sp)
   12e78:	4f41                	li	t5,16
   12e7a:	439d                	li	t2,7
   12e7c:	cc72                	sw	t3,24(sp)
   12e7e:	ce7e                	sw	t6,28(sp)
   12e80:	d016                	sw	t0,32(sp)
   12e82:	d242                	sw	a6,36(sp)
   12e84:	d446                	sw	a7,40(sp)
   12e86:	dc76                	sw	t4,56(sp)
   12e88:	843a                	mv	s0,a4
   12e8a:	8b1a                	mv	s6,t1
   12e8c:	a811                	j	12ea0 <_vfiprintf_r+0xa80>
   12e8e:	00260513          	add	a0,a2,2
   12e92:	06a1                	add	a3,a3,8
   12e94:	862e                	mv	a2,a1
   12e96:	1441                	add	s0,s0,-16
   12e98:	028f5f63          	bge	t5,s0,12ed6 <_vfiprintf_r+0xab6>
   12e9c:	00160593          	add	a1,a2,1
   12ea0:	07c1                	add	a5,a5,16
   12ea2:	0166a023          	sw	s6,0(a3)
   12ea6:	01e6a223          	sw	t5,4(a3)
   12eaa:	d4be                	sw	a5,104(sp)
   12eac:	d2ae                	sw	a1,100(sp)
   12eae:	feb3d0e3          	bge	t2,a1,12e8e <_vfiprintf_r+0xa6e>
   12eb2:	cbb9                	beqz	a5,12f08 <_vfiprintf_r+0xae8>
   12eb4:	1090                	add	a2,sp,96
   12eb6:	85d2                	mv	a1,s4
   12eb8:	8526                	mv	a0,s1
   12eba:	ca0ff0ef          	jal	1235a <__sprint_r.part.0>
   12ebe:	900511e3          	bnez	a0,127c0 <_vfiprintf_r+0x3a0>
   12ec2:	5616                	lw	a2,100(sp)
   12ec4:	4f41                	li	t5,16
   12ec6:	1441                	add	s0,s0,-16
   12ec8:	57a6                	lw	a5,104(sp)
   12eca:	86d6                	mv	a3,s5
   12ecc:	00160513          	add	a0,a2,1
   12ed0:	439d                	li	t2,7
   12ed2:	fc8f45e3          	blt	t5,s0,12e9c <_vfiprintf_r+0xa7c>
   12ed6:	835a                	mv	t1,s6
   12ed8:	4e62                	lw	t3,24(sp)
   12eda:	4ff2                	lw	t6,28(sp)
   12edc:	5282                	lw	t0,32(sp)
   12ede:	5812                	lw	a6,36(sp)
   12ee0:	58a2                	lw	a7,40(sp)
   12ee2:	5ee2                	lw	t4,56(sp)
   12ee4:	5b72                	lw	s6,60(sp)
   12ee6:	8722                	mv	a4,s0
   12ee8:	8436                	mv	s0,a3
   12eea:	97ba                	add	a5,a5,a4
   12eec:	c058                	sw	a4,4(s0)
   12eee:	00642023          	sw	t1,0(s0)
   12ef2:	d4be                	sw	a5,104(sp)
   12ef4:	d2aa                	sw	a0,100(sp)
   12ef6:	471d                	li	a4,7
   12ef8:	08a74f63          	blt	a4,a0,12f96 <_vfiprintf_r+0xb76>
   12efc:	0421                	add	s0,s0,8
   12efe:	00150f13          	add	t5,a0,1
   12f02:	862a                	mv	a2,a0
   12f04:	ea8ff06f          	j	125ac <_vfiprintf_r+0x18c>
   12f08:	4601                	li	a2,0
   12f0a:	4505                	li	a0,1
   12f0c:	86d6                	mv	a3,s5
   12f0e:	b761                	j	12e96 <_vfiprintf_r+0xa76>
   12f10:	01d8d363          	bge	a7,t4,12f16 <_vfiprintf_r+0xaf6>
   12f14:	88f6                	mv	a7,t4
   12f16:	47b2                	lw	a5,12(sp)
   12f18:	97c6                	add	a5,a5,a7
   12f1a:	c63e                	sw	a5,12(sp)
   12f1c:	f5cff06f          	j	12678 <_vfiprintf_r+0x258>
   12f20:	d20789e3          	beqz	a5,12c52 <_vfiprintf_r+0x832>
   12f24:	1090                	add	a2,sp,96
   12f26:	85d2                	mv	a1,s4
   12f28:	8526                	mv	a0,s1
   12f2a:	d276                	sw	t4,36(sp)
   12f2c:	d046                	sw	a7,32(sp)
   12f2e:	ce42                	sw	a6,28(sp)
   12f30:	cc72                	sw	t3,24(sp)
   12f32:	c28ff0ef          	jal	1235a <__sprint_r.part.0>
   12f36:	880515e3          	bnez	a0,127c0 <_vfiprintf_r+0x3a0>
   12f3a:	5f16                	lw	t5,100(sp)
   12f3c:	57a6                	lw	a5,104(sp)
   12f3e:	5e92                	lw	t4,36(sp)
   12f40:	5882                	lw	a7,32(sp)
   12f42:	4872                	lw	a6,28(sp)
   12f44:	4e62                	lw	t3,24(sp)
   12f46:	8456                	mv	s0,s5
   12f48:	0f05                	add	t5,t5,1
   12f4a:	edaff06f          	j	12624 <_vfiprintf_r+0x204>
   12f4e:	d282                	sw	zero,100(sp)
   12f50:	8456                	mv	s0,s5
   12f52:	b0a9                	j	1279c <_vfiprintf_r+0x37c>
   12f54:	0106f793          	and	a5,a3,16
   12f58:	000b2d83          	lw	s11,0(s6)
   12f5c:	0b11                	add	s6,s6,4
   12f5e:	eb81                	bnez	a5,12f6e <_vfiprintf_r+0xb4e>
   12f60:	0406f793          	and	a5,a3,64
   12f64:	3e078e63          	beqz	a5,13360 <_vfiprintf_r+0xf40>
   12f68:	0dc2                	sll	s11,s11,0x10
   12f6a:	010ddd93          	srl	s11,s11,0x10
   12f6e:	4e81                	li	t4,0
   12f70:	b109                	j	12b72 <_vfiprintf_r+0x752>
   12f72:	01077693          	and	a3,a4,16
   12f76:	000b2783          	lw	a5,0(s6)
   12f7a:	0b11                	add	s6,s6,4
   12f7c:	eac1                	bnez	a3,1300c <_vfiprintf_r+0xbec>
   12f7e:	04077693          	and	a3,a4,64
   12f82:	c2c9                	beqz	a3,13004 <_vfiprintf_r+0xbe4>
   12f84:	07c2                	sll	a5,a5,0x10
   12f86:	83c1                	srl	a5,a5,0x10
   12f88:	4601                	li	a2,0
   12f8a:	b6ad                	j	12af4 <_vfiprintf_r+0x6d4>
   12f8c:	4f05                	li	t5,1
   12f8e:	4601                	li	a2,0
   12f90:	8456                	mv	s0,s5
   12f92:	e82ff06f          	j	12614 <_vfiprintf_r+0x1f4>
   12f96:	10078863          	beqz	a5,130a6 <_vfiprintf_r+0xc86>
   12f9a:	1090                	add	a2,sp,96
   12f9c:	85d2                	mv	a1,s4
   12f9e:	8526                	mv	a0,s1
   12fa0:	dc76                	sw	t4,56(sp)
   12fa2:	d446                	sw	a7,40(sp)
   12fa4:	d242                	sw	a6,36(sp)
   12fa6:	d016                	sw	t0,32(sp)
   12fa8:	ce7e                	sw	t6,28(sp)
   12faa:	cc72                	sw	t3,24(sp)
   12fac:	baeff0ef          	jal	1235a <__sprint_r.part.0>
   12fb0:	800518e3          	bnez	a0,127c0 <_vfiprintf_r+0x3a0>
   12fb4:	5616                	lw	a2,100(sp)
   12fb6:	57a6                	lw	a5,104(sp)
   12fb8:	5ee2                	lw	t4,56(sp)
   12fba:	58a2                	lw	a7,40(sp)
   12fbc:	5812                	lw	a6,36(sp)
   12fbe:	5282                	lw	t0,32(sp)
   12fc0:	4ff2                	lw	t6,28(sp)
   12fc2:	4e62                	lw	t3,24(sp)
   12fc4:	8456                	mv	s0,s5
   12fc6:	00160f13          	add	t5,a2,1
   12fca:	de2ff06f          	j	125ac <_vfiprintf_r+0x18c>
   12fce:	4e81                	li	t4,0
   12fd0:	11010813          	add	a6,sp,272
   12fd4:	babd                	j	12952 <_vfiprintf_r+0x532>
   12fd6:	058a2503          	lw	a0,88(s4)
   12fda:	2c8020ef          	jal	152a2 <__retarget_lock_acquire_recursive>
   12fde:	00ca1783          	lh	a5,12(s4)
   12fe2:	c82ff06f          	j	12464 <_vfiprintf_r+0x44>
   12fe6:	0421                	add	s0,s0,8
   12fe8:	00150f13          	add	t5,a0,1
   12fec:	862a                	mv	a2,a0
   12fee:	e2eff06f          	j	1261c <_vfiprintf_r+0x1fc>
   12ff2:	200e7793          	and	a5,t3,512
   12ff6:	3e079863          	bnez	a5,133e6 <_vfiprintf_r+0xfc6>
   12ffa:	41fdde93          	sra	t4,s11,0x1f
   12ffe:	87f6                	mv	a5,t4
   13000:	f1cff06f          	j	1271c <_vfiprintf_r+0x2fc>
   13004:	20077693          	and	a3,a4,512
   13008:	3c069a63          	bnez	a3,133dc <_vfiprintf_r+0xfbc>
   1300c:	4601                	li	a2,0
   1300e:	b4dd                	j	12af4 <_vfiprintf_r+0x6d4>
   13010:	46b2                	lw	a3,12(sp)
   13012:	000b2783          	lw	a5,0(s6)
   13016:	0b11                	add	s6,s6,4
   13018:	41f6d713          	sra	a4,a3,0x1f
   1301c:	c394                	sw	a3,0(a5)
   1301e:	c3d8                	sw	a4,4(a5)
   13020:	cd4ff06f          	j	124f4 <_vfiprintf_r+0xd4>
   13024:	4601                	li	a2,0
   13026:	4f05                	li	t5,1
   13028:	8456                	mv	s0,s5
   1302a:	deaff06f          	j	12614 <_vfiprintf_r+0x1f4>
   1302e:	000b2783          	lw	a5,0(s6)
   13032:	4e85                	li	t4,1
   13034:	4d85                	li	s11,1
   13036:	0af10623          	sb	a5,172(sp)
   1303a:	0ac10c93          	add	s9,sp,172
   1303e:	b2e1                	j	12a06 <_vfiprintf_r+0x5e6>
   13040:	8eee                	mv	t4,s11
   13042:	882e                	mv	a6,a1
   13044:	b239                	j	12952 <_vfiprintf_r+0x532>
   13046:	5cfd                	li	s9,-1
   13048:	8d32                	mv	s10,a2
   1304a:	cf4ff06f          	j	1253e <_vfiprintf_r+0x11e>
   1304e:	86f2                	mv	a3,t3
   13050:	b629                	j	12b5a <_vfiprintf_r+0x73a>
   13052:	00009797          	auipc	a5,0x9
   13056:	b2e78793          	add	a5,a5,-1234 # 1bb80 <__clzsi2+0xa0>
   1305a:	ca3e                	sw	a5,20(sp)
   1305c:	020e7793          	and	a5,t3,32
   13060:	12078663          	beqz	a5,1318c <_vfiprintf_r+0xd6c>
   13064:	0b1d                	add	s6,s6,7
   13066:	ff8b7b13          	and	s6,s6,-8
   1306a:	000b2783          	lw	a5,0(s6)
   1306e:	004b2603          	lw	a2,4(s6)
   13072:	0b21                	add	s6,s6,8
   13074:	001e7693          	and	a3,t3,1
   13078:	ce81                	beqz	a3,13090 <_vfiprintf_r+0xc70>
   1307a:	00c7e6b3          	or	a3,a5,a2
   1307e:	ca89                	beqz	a3,13090 <_vfiprintf_r+0xc70>
   13080:	03000693          	li	a3,48
   13084:	04d10223          	sb	a3,68(sp)
   13088:	04e102a3          	sb	a4,69(sp)
   1308c:	002e6e13          	or	t3,t3,2
   13090:	bffe7e13          	and	t3,t3,-1025
   13094:	be95                	j	12c08 <_vfiprintf_r+0x7e8>
   13096:	8772                	mv	a4,t3
   13098:	b491                	j	12adc <_vfiprintf_r+0x6bc>
   1309a:	00009797          	auipc	a5,0x9
   1309e:	ad278793          	add	a5,a5,-1326 # 1bb6c <__clzsi2+0x8c>
   130a2:	ca3e                	sw	a5,20(sp)
   130a4:	bf65                	j	1305c <_vfiprintf_r+0xc3c>
   130a6:	04314703          	lbu	a4,67(sp)
   130aa:	30070c63          	beqz	a4,133c2 <_vfiprintf_r+0xfa2>
   130ae:	04310793          	add	a5,sp,67
   130b2:	d6be                	sw	a5,108(sp)
   130b4:	4785                	li	a5,1
   130b6:	d8be                	sw	a5,112(sp)
   130b8:	4f05                	li	t5,1
   130ba:	8456                	mv	s0,s5
   130bc:	d0cff06f          	j	125c8 <_vfiprintf_r+0x1a8>
   130c0:	4621                	li	a2,8
   130c2:	4581                	li	a1,0
   130c4:	08a8                	add	a0,sp,88
   130c6:	d046                	sw	a7,32(sp)
   130c8:	ce72                	sw	t3,28(sp)
   130ca:	c6c2                	sw	a6,76(sp)
   130cc:	c842                	sw	a6,16(sp)
   130ce:	541010ef          	jal	14e0e <memset>
   130d2:	4842                	lw	a6,16(sp)
   130d4:	4e72                	lw	t3,28(sp)
   130d6:	5882                	lw	a7,32(sp)
   130d8:	2a0cc063          	bltz	s9,13378 <_vfiprintf_r+0xf58>
   130dc:	87ea                	mv	a5,s10
   130de:	4b01                	li	s6,0
   130e0:	c822                	sw	s0,16(sp)
   130e2:	8d52                	mv	s10,s4
   130e4:	8466                	mv	s0,s9
   130e6:	d042                	sw	a6,32(sp)
   130e8:	8cc6                	mv	s9,a7
   130ea:	8a5a                	mv	s4,s6
   130ec:	8dbe                	mv	s11,a5
   130ee:	a00d                	j	13110 <_vfiprintf_r+0xcf0>
   130f0:	08b4                	add	a3,sp,88
   130f2:	116c                	add	a1,sp,172
   130f4:	8526                	mv	a0,s1
   130f6:	1ba020ef          	jal	152b0 <_wcrtomb_r>
   130fa:	57fd                	li	a5,-1
   130fc:	3af50e63          	beq	a0,a5,134b8 <_vfiprintf_r+0x1098>
   13100:	00ab07b3          	add	a5,s6,a0
   13104:	00f44a63          	blt	s0,a5,13118 <_vfiprintf_r+0xcf8>
   13108:	0a11                	add	s4,s4,4
   1310a:	38878e63          	beq	a5,s0,134a6 <_vfiprintf_r+0x1086>
   1310e:	8b3e                	mv	s6,a5
   13110:	47b6                	lw	a5,76(sp)
   13112:	97d2                	add	a5,a5,s4
   13114:	4390                	lw	a2,0(a5)
   13116:	fe69                	bnez	a2,130f0 <_vfiprintf_r+0xcd0>
   13118:	4442                	lw	s0,16(sp)
   1311a:	4e72                	lw	t3,28(sp)
   1311c:	5802                	lw	a6,32(sp)
   1311e:	8a6a                	mv	s4,s10
   13120:	88e6                	mv	a7,s9
   13122:	8d6e                	mv	s10,s11
   13124:	8dda                	mv	s11,s6
   13126:	260d8c63          	beqz	s11,1339e <_vfiprintf_r+0xf7e>
   1312a:	06300793          	li	a5,99
   1312e:	2db7dc63          	bge	a5,s11,13406 <_vfiprintf_r+0xfe6>
   13132:	001d8593          	add	a1,s11,1
   13136:	8526                	mv	a0,s1
   13138:	ce46                	sw	a7,28(sp)
   1313a:	c872                	sw	t3,16(sp)
   1313c:	085030ef          	jal	169c0 <_malloc_r>
   13140:	4e42                	lw	t3,16(sp)
   13142:	48f2                	lw	a7,28(sp)
   13144:	882a                	mv	a6,a0
   13146:	38050263          	beqz	a0,134ca <_vfiprintf_r+0x10aa>
   1314a:	c82a                	sw	a0,16(sp)
   1314c:	4621                	li	a2,8
   1314e:	4581                	li	a1,0
   13150:	08a8                	add	a0,sp,88
   13152:	d246                	sw	a7,36(sp)
   13154:	d072                	sw	t3,32(sp)
   13156:	ce42                	sw	a6,28(sp)
   13158:	4b7010ef          	jal	14e0e <memset>
   1315c:	4872                	lw	a6,28(sp)
   1315e:	08b8                	add	a4,sp,88
   13160:	86ee                	mv	a3,s11
   13162:	85c2                	mv	a1,a6
   13164:	00f0                	add	a2,sp,76
   13166:	8526                	mv	a0,s1
   13168:	1f6020ef          	jal	1535e <_wcsrtombs_r>
   1316c:	4872                	lw	a6,28(sp)
   1316e:	5e02                	lw	t3,32(sp)
   13170:	5892                	lw	a7,36(sp)
   13172:	36ad9f63          	bne	s11,a0,134f0 <_vfiprintf_r+0x10d0>
   13176:	fffdce93          	not	t4,s11
   1317a:	01b807b3          	add	a5,a6,s11
   1317e:	41fede93          	sra	t4,t4,0x1f
   13182:	00078023          	sb	zero,0(a5)
   13186:	01ddfeb3          	and	t4,s11,t4
   1318a:	ac21                	j	133a2 <_vfiprintf_r+0xf82>
   1318c:	010e7693          	and	a3,t3,16
   13190:	000b2783          	lw	a5,0(s6)
   13194:	0b11                	add	s6,s6,4
   13196:	ee81                	bnez	a3,131ae <_vfiprintf_r+0xd8e>
   13198:	040e7693          	and	a3,t3,64
   1319c:	c689                	beqz	a3,131a6 <_vfiprintf_r+0xd86>
   1319e:	07c2                	sll	a5,a5,0x10
   131a0:	83c1                	srl	a5,a5,0x10
   131a2:	4601                	li	a2,0
   131a4:	bdc1                	j	13074 <_vfiprintf_r+0xc54>
   131a6:	200e7693          	and	a3,t3,512
   131aa:	24069663          	bnez	a3,133f6 <_vfiprintf_r+0xfd6>
   131ae:	4601                	li	a2,0
   131b0:	b5d1                	j	13074 <_vfiprintf_r+0xc54>
   131b2:	ccccdf37          	lui	t5,0xccccd
   131b6:	ccccd3b7          	lui	t2,0xccccd
   131ba:	5732                	lw	a4,44(sp)
   131bc:	400e7293          	and	t0,t3,1024
   131c0:	4581                	li	a1,0
   131c2:	0a10                	add	a2,sp,272
   131c4:	4f95                	li	t6,5
   131c6:	ccdf0f13          	add	t5,t5,-819 # cccccccd <__BSS_END__+0xcccaef85>
   131ca:	ccc38393          	add	t2,t2,-820 # cccccccc <__BSS_END__+0xcccaef84>
   131ce:	0ff00313          	li	t1,255
   131d2:	a081                	j	13212 <_vfiprintf_r+0xdf2>
   131d4:	01b7b6b3          	sltu	a3,a5,s11
   131d8:	97b6                	add	a5,a5,a3
   131da:	03f7f7b3          	remu	a5,a5,t6
   131de:	40fd87b3          	sub	a5,s11,a5
   131e2:	00fdb6b3          	sltu	a3,s11,a5
   131e6:	40de86b3          	sub	a3,t4,a3
   131ea:	02778533          	mul	a0,a5,t2
   131ee:	03e686b3          	mul	a3,a3,t5
   131f2:	03e7b633          	mulhu	a2,a5,t5
   131f6:	96aa                	add	a3,a3,a0
   131f8:	03e787b3          	mul	a5,a5,t5
   131fc:	96b2                	add	a3,a3,a2
   131fe:	01f69613          	sll	a2,a3,0x1f
   13202:	8285                	srl	a3,a3,0x1
   13204:	8385                	srl	a5,a5,0x1
   13206:	8fd1                	or	a5,a5,a2
   13208:	200e8c63          	beqz	t4,13420 <_vfiprintf_r+0x1000>
   1320c:	8dbe                	mv	s11,a5
   1320e:	8eb6                	mv	t4,a3
   13210:	8642                	mv	a2,a6
   13212:	01dd87b3          	add	a5,s11,t4
   13216:	01b7b6b3          	sltu	a3,a5,s11
   1321a:	96be                	add	a3,a3,a5
   1321c:	03f6f6b3          	remu	a3,a3,t6
   13220:	fff60813          	add	a6,a2,-1
   13224:	0585                	add	a1,a1,1
   13226:	40dd86b3          	sub	a3,s11,a3
   1322a:	00ddb0b3          	sltu	ra,s11,a3
   1322e:	401e80b3          	sub	ra,t4,ra
   13232:	03e6b533          	mulhu	a0,a3,t5
   13236:	03e080b3          	mul	ra,ra,t5
   1323a:	03e686b3          	mul	a3,a3,t5
   1323e:	90aa                	add	ra,ra,a0
   13240:	00fe                	sll	ra,ra,0x1f
   13242:	0016d513          	srl	a0,a3,0x1
   13246:	00a0e533          	or	a0,ra,a0
   1324a:	00251693          	sll	a3,a0,0x2
   1324e:	96aa                	add	a3,a3,a0
   13250:	0686                	sll	a3,a3,0x1
   13252:	40dd86b3          	sub	a3,s11,a3
   13256:	03068693          	add	a3,a3,48
   1325a:	fed60fa3          	sb	a3,-1(a2)
   1325e:	f6028be3          	beqz	t0,131d4 <_vfiprintf_r+0xdb4>
   13262:	00074683          	lbu	a3,0(a4)
   13266:	f6b697e3          	bne	a3,a1,131d4 <_vfiprintf_r+0xdb4>
   1326a:	f66585e3          	beq	a1,t1,131d4 <_vfiprintf_r+0xdb4>
   1326e:	000e9763          	bnez	t4,1327c <_vfiprintf_r+0xe5c>
   13272:	46a5                	li	a3,9
   13274:	01b6e463          	bltu	a3,s11,1327c <_vfiprintf_r+0xe5c>
   13278:	d63a                	sw	a4,44(sp)
   1327a:	bef1                	j	12e56 <_vfiprintf_r+0xa36>
   1327c:	cc3e                	sw	a5,24(sp)
   1327e:	57c2                	lw	a5,48(sp)
   13280:	55d2                	lw	a1,52(sp)
   13282:	de76                	sw	t4,60(sp)
   13284:	40f80833          	sub	a6,a6,a5
   13288:	863e                	mv	a2,a5
   1328a:	8542                	mv	a0,a6
   1328c:	dc1e                	sw	t2,56(sp)
   1328e:	d67a                	sw	t5,44(sp)
   13290:	d416                	sw	t0,40(sp)
   13292:	d23a                	sw	a4,36(sp)
   13294:	d046                	sw	a7,32(sp)
   13296:	ce72                	sw	t3,28(sp)
   13298:	c842                	sw	a6,16(sp)
   1329a:	032010ef          	jal	142cc <strncpy>
   1329e:	47e2                	lw	a5,24(sp)
   132a0:	5712                	lw	a4,36(sp)
   132a2:	5ef2                	lw	t4,60(sp)
   132a4:	01b7b6b3          	sltu	a3,a5,s11
   132a8:	97b6                	add	a5,a5,a3
   132aa:	4695                	li	a3,5
   132ac:	02d7f7b3          	remu	a5,a5,a3
   132b0:	00174683          	lbu	a3,1(a4)
   132b4:	ccccd637          	lui	a2,0xccccd
   132b8:	ccccd537          	lui	a0,0xccccd
   132bc:	00d036b3          	snez	a3,a3
   132c0:	9736                	add	a4,a4,a3
   132c2:	ccd60613          	add	a2,a2,-819 # cccccccd <__BSS_END__+0xcccaef85>
   132c6:	ccc50513          	add	a0,a0,-820 # cccccccc <__BSS_END__+0xcccaef84>
   132ca:	4842                	lw	a6,16(sp)
   132cc:	4e72                	lw	t3,28(sp)
   132ce:	5882                	lw	a7,32(sp)
   132d0:	52a2                	lw	t0,40(sp)
   132d2:	5f32                	lw	t5,44(sp)
   132d4:	53e2                	lw	t2,56(sp)
   132d6:	4581                	li	a1,0
   132d8:	4f95                	li	t6,5
   132da:	0ff00313          	li	t1,255
   132de:	40fd87b3          	sub	a5,s11,a5
   132e2:	00fdb6b3          	sltu	a3,s11,a5
   132e6:	40de86b3          	sub	a3,t4,a3
   132ea:	02c686b3          	mul	a3,a3,a2
   132ee:	02a78533          	mul	a0,a5,a0
   132f2:	02c7beb3          	mulhu	t4,a5,a2
   132f6:	96aa                	add	a3,a3,a0
   132f8:	02c78633          	mul	a2,a5,a2
   132fc:	96f6                	add	a3,a3,t4
   132fe:	01f69793          	sll	a5,a3,0x1f
   13302:	8285                	srl	a3,a3,0x1
   13304:	8205                	srl	a2,a2,0x1
   13306:	8fd1                	or	a5,a5,a2
   13308:	b711                	j	1320c <_vfiprintf_r+0xdec>
   1330a:	8e3a                	mv	t3,a4
   1330c:	4701                	li	a4,0
   1330e:	880708e3          	beqz	a4,12b9e <_vfiprintf_r+0x77e>
   13312:	be39                	j	12e30 <_vfiprintf_r+0xa10>
   13314:	8526                	mv	a0,s1
   13316:	005000ef          	jal	13b1a <__sinit>
   1331a:	936ff06f          	j	12450 <_vfiprintf_r+0x30>
   1331e:	001d4703          	lbu	a4,1(s10)
   13322:	200e6e13          	or	t3,t3,512
   13326:	0d05                	add	s10,s10,1
   13328:	a14ff06f          	j	1253c <_vfiprintf_r+0x11c>
   1332c:	001d4703          	lbu	a4,1(s10)
   13330:	020e6e13          	or	t3,t3,32
   13334:	0d05                	add	s10,s10,1
   13336:	a06ff06f          	j	1253c <_vfiprintf_r+0x11c>
   1333a:	000b2783          	lw	a5,0(s6)
   1333e:	4732                	lw	a4,12(sp)
   13340:	0b11                	add	s6,s6,4
   13342:	c398                	sw	a4,0(a5)
   13344:	9b0ff06f          	j	124f4 <_vfiprintf_r+0xd4>
   13348:	4799                	li	a5,6
   1334a:	8de6                	mv	s11,s9
   1334c:	0797e963          	bltu	a5,s9,133be <_vfiprintf_r+0xf9e>
   13350:	4b62                	lw	s6,24(sp)
   13352:	8eee                	mv	t4,s11
   13354:	00009817          	auipc	a6,0x9
   13358:	84080813          	add	a6,a6,-1984 # 1bb94 <__clzsi2+0xb4>
   1335c:	a30ff06f          	j	1258c <_vfiprintf_r+0x16c>
   13360:	2006f793          	and	a5,a3,512
   13364:	c00785e3          	beqz	a5,12f6e <_vfiprintf_r+0xb4e>
   13368:	0ffdfd93          	zext.b	s11,s11
   1336c:	4e81                	li	t4,0
   1336e:	805ff06f          	j	12b72 <_vfiprintf_r+0x752>
   13372:	4781                	li	a5,0
   13374:	4601                	li	a2,0
   13376:	bc6d                	j	12e30 <_vfiprintf_r+0xa10>
   13378:	08b8                	add	a4,sp,88
   1337a:	4681                	li	a3,0
   1337c:	00f0                	add	a2,sp,76
   1337e:	4581                	li	a1,0
   13380:	8526                	mv	a0,s1
   13382:	d046                	sw	a7,32(sp)
   13384:	ce42                	sw	a6,28(sp)
   13386:	c872                	sw	t3,16(sp)
   13388:	7d7010ef          	jal	1535e <_wcsrtombs_r>
   1338c:	57fd                	li	a5,-1
   1338e:	4e42                	lw	t3,16(sp)
   13390:	4872                	lw	a6,28(sp)
   13392:	5882                	lw	a7,32(sp)
   13394:	8daa                	mv	s11,a0
   13396:	12f50a63          	beq	a0,a5,134ca <_vfiprintf_r+0x10aa>
   1339a:	c6c2                	sw	a6,76(sp)
   1339c:	b369                	j	13126 <_vfiprintf_r+0xd06>
   1339e:	4e81                	li	t4,0
   133a0:	c802                	sw	zero,16(sp)
   133a2:	04314783          	lbu	a5,67(sp)
   133a6:	4b62                	lw	s6,24(sp)
   133a8:	4c81                	li	s9,0
   133aa:	4f81                	li	t6,0
   133ac:	b8079c63          	bnez	a5,12744 <_vfiprintf_r+0x324>
   133b0:	9e2ff06f          	j	12592 <_vfiprintf_r+0x172>
   133b4:	4f05                	li	t5,1
   133b6:	4601                	li	a2,0
   133b8:	8456                	mv	s0,s5
   133ba:	a62ff06f          	j	1261c <_vfiprintf_r+0x1fc>
   133be:	4d99                	li	s11,6
   133c0:	bf41                	j	13350 <_vfiprintf_r+0xf30>
   133c2:	4601                	li	a2,0
   133c4:	4f05                	li	t5,1
   133c6:	8456                	mv	s0,s5
   133c8:	a06ff06f          	j	125ce <_vfiprintf_r+0x1ae>
   133cc:	000b2783          	lw	a5,0(s6)
   133d0:	4732                	lw	a4,12(sp)
   133d2:	0b11                	add	s6,s6,4
   133d4:	00e79023          	sh	a4,0(a5)
   133d8:	91cff06f          	j	124f4 <_vfiprintf_r+0xd4>
   133dc:	0ff7f793          	zext.b	a5,a5
   133e0:	4601                	li	a2,0
   133e2:	f12ff06f          	j	12af4 <_vfiprintf_r+0x6d4>
   133e6:	0de2                	sll	s11,s11,0x18
   133e8:	418ddd93          	sra	s11,s11,0x18
   133ec:	41fdde93          	sra	t4,s11,0x1f
   133f0:	87f6                	mv	a5,t4
   133f2:	b2aff06f          	j	1271c <_vfiprintf_r+0x2fc>
   133f6:	0ff7f793          	zext.b	a5,a5
   133fa:	4601                	li	a2,0
   133fc:	b9a5                	j	13074 <_vfiprintf_r+0xc54>
   133fe:	03000793          	li	a5,48
   13402:	d3eff06f          	j	12940 <_vfiprintf_r+0x520>
   13406:	c802                	sw	zero,16(sp)
   13408:	0ac10813          	add	a6,sp,172
   1340c:	b381                	j	1314c <_vfiprintf_r+0xd2c>
   1340e:	058a2503          	lw	a0,88(s4)
   13412:	69d010ef          	jal	152ae <__retarget_lock_release_recursive>
   13416:	aa6ff06f          	j	126bc <_vfiprintf_r+0x29c>
   1341a:	8ee6                	mv	t4,s9
   1341c:	8de6                	mv	s11,s9
   1341e:	b751                	j	133a2 <_vfiprintf_r+0xf82>
   13420:	4625                	li	a2,9
   13422:	dfb665e3          	bltu	a2,s11,1320c <_vfiprintf_r+0xdec>
   13426:	d63a                	sw	a4,44(sp)
   13428:	b43d                	j	12e56 <_vfiprintf_r+0xa36>
   1342a:	852e                	mv	a0,a1
   1342c:	00009317          	auipc	t1,0x9
   13430:	e0c30313          	add	t1,t1,-500 # 1c238 <blanks.1>
   13434:	bc5d                	j	12eea <_vfiprintf_r+0xaca>
   13436:	8542                	mv	a0,a6
   13438:	ce42                	sw	a6,28(sp)
   1343a:	3c3010ef          	jal	14ffc <strlen>
   1343e:	fff54e93          	not	t4,a0
   13442:	41fede93          	sra	t4,t4,0x1f
   13446:	4872                	lw	a6,28(sp)
   13448:	5e02                	lw	t3,32(sp)
   1344a:	5892                	lw	a7,36(sp)
   1344c:	8daa                	mv	s11,a0
   1344e:	01d57eb3          	and	t4,a0,t4
   13452:	c802                	sw	zero,16(sp)
   13454:	b7b9                	j	133a2 <_vfiprintf_r+0xf82>
   13456:	1090                	add	a2,sp,96
   13458:	85d2                	mv	a1,s4
   1345a:	8526                	mv	a0,s1
   1345c:	efffe0ef          	jal	1235a <__sprint_r.part.0>
   13460:	b4050663          	beqz	a0,127ac <_vfiprintf_r+0x38c>
   13464:	b68ff06f          	j	127cc <_vfiprintf_r+0x3ac>
   13468:	00168613          	add	a2,a3,1
   1346c:	00009317          	auipc	t1,0x9
   13470:	dcc30313          	add	t1,t1,-564 # 1c238 <blanks.1>
   13474:	c2eff06f          	j	128a2 <_vfiprintf_r+0x482>
   13478:	857a                	mv	a0,t5
   1347a:	00009f97          	auipc	t6,0x9
   1347e:	daef8f93          	add	t6,t6,-594 # 1c228 <zeroes.0>
   13482:	b885                	j	12cf2 <_vfiprintf_r+0x8d2>
   13484:	064a2783          	lw	a5,100(s4)
   13488:	8b85                	and	a5,a5,1
   1348a:	eb91                	bnez	a5,1349e <_vfiprintf_r+0x107e>
   1348c:	00ca5783          	lhu	a5,12(s4)
   13490:	2007f793          	and	a5,a5,512
   13494:	e789                	bnez	a5,1349e <_vfiprintf_r+0x107e>
   13496:	058a2503          	lw	a0,88(s4)
   1349a:	615010ef          	jal	152ae <__retarget_lock_release_recursive>
   1349e:	57fd                	li	a5,-1
   134a0:	c63e                	sw	a5,12(sp)
   134a2:	b60ff06f          	j	12802 <_vfiprintf_r+0x3e2>
   134a6:	88e6                	mv	a7,s9
   134a8:	8ca2                	mv	s9,s0
   134aa:	8a6a                	mv	s4,s10
   134ac:	4e72                	lw	t3,28(sp)
   134ae:	8d6e                	mv	s10,s11
   134b0:	5802                	lw	a6,32(sp)
   134b2:	4442                	lw	s0,16(sp)
   134b4:	8de6                	mv	s11,s9
   134b6:	b985                	j	13126 <_vfiprintf_r+0xd06>
   134b8:	00cd1783          	lh	a5,12(s10)
   134bc:	8a6a                	mv	s4,s10
   134be:	0407e793          	or	a5,a5,64
   134c2:	00fd1623          	sh	a5,12(s10)
   134c6:	b0aff06f          	j	127d0 <_vfiprintf_r+0x3b0>
   134ca:	00ca1783          	lh	a5,12(s4)
   134ce:	0407e793          	or	a5,a5,64
   134d2:	00fa1623          	sh	a5,12(s4)
   134d6:	afaff06f          	j	127d0 <_vfiprintf_r+0x3b0>
   134da:	000b2c83          	lw	s9,0(s6)
   134de:	0b11                	add	s6,s6,4
   134e0:	000cd363          	bgez	s9,134e6 <_vfiprintf_r+0x10c6>
   134e4:	5cfd                	li	s9,-1
   134e6:	001d4703          	lbu	a4,1(s10)
   134ea:	8d32                	mv	s10,a2
   134ec:	850ff06f          	j	1253c <_vfiprintf_r+0x11c>
   134f0:	00ca5783          	lhu	a5,12(s4)
   134f4:	0407e793          	or	a5,a5,64
   134f8:	00fa1623          	sh	a5,12(s4)
   134fc:	ac4ff06f          	j	127c0 <_vfiprintf_r+0x3a0>

00013500 <vfiprintf>:
   13500:	86b2                	mv	a3,a2
   13502:	862e                	mv	a2,a1
   13504:	85aa                	mv	a1,a0
   13506:	f2c1a503          	lw	a0,-212(gp) # 1d73c <_impure_ptr>
   1350a:	f17fe06f          	j	12420 <_vfiprintf_r>

0001350e <__sbprintf>:
   1350e:	b7010113          	add	sp,sp,-1168
   13512:	00c59783          	lh	a5,12(a1)
   13516:	00e5d703          	lhu	a4,14(a1)
   1351a:	48812423          	sw	s0,1160(sp)
   1351e:	842e                	mv	s0,a1
   13520:	65c1                	lui	a1,0x10
   13522:	15f5                	add	a1,a1,-3 # fffd <exit-0x97>
   13524:	06442303          	lw	t1,100(s0)
   13528:	01c42883          	lw	a7,28(s0)
   1352c:	02442803          	lw	a6,36(s0)
   13530:	0742                	sll	a4,a4,0x10
   13532:	8fed                	and	a5,a5,a1
   13534:	8fd9                	or	a5,a5,a4
   13536:	40000593          	li	a1,1024
   1353a:	49212023          	sw	s2,1152(sp)
   1353e:	ca3e                	sw	a5,20(sp)
   13540:	892a                	mv	s2,a0
   13542:	189c                	add	a5,sp,112
   13544:	1088                	add	a0,sp,96
   13546:	48112623          	sw	ra,1164(sp)
   1354a:	48912223          	sw	s1,1156(sp)
   1354e:	47312e23          	sw	s3,1148(sp)
   13552:	84b2                	mv	s1,a2
   13554:	89b6                	mv	s3,a3
   13556:	d69a                	sw	t1,108(sp)
   13558:	d246                	sw	a7,36(sp)
   1355a:	d642                	sw	a6,44(sp)
   1355c:	c43e                	sw	a5,8(sp)
   1355e:	cc3e                	sw	a5,24(sp)
   13560:	c82e                	sw	a1,16(sp)
   13562:	ce2e                	sw	a1,28(sp)
   13564:	d002                	sw	zero,32(sp)
   13566:	535010ef          	jal	1529a <__retarget_lock_init_recursive>
   1356a:	8626                	mv	a2,s1
   1356c:	86ce                	mv	a3,s3
   1356e:	002c                	add	a1,sp,8
   13570:	854a                	mv	a0,s2
   13572:	eaffe0ef          	jal	12420 <_vfiprintf_r>
   13576:	84aa                	mv	s1,a0
   13578:	02055e63          	bgez	a0,135b4 <__sbprintf+0xa6>
   1357c:	01415783          	lhu	a5,20(sp)
   13580:	0407f793          	and	a5,a5,64
   13584:	c799                	beqz	a5,13592 <__sbprintf+0x84>
   13586:	00c45783          	lhu	a5,12(s0)
   1358a:	0407e793          	or	a5,a5,64
   1358e:	00f41623          	sh	a5,12(s0)
   13592:	5506                	lw	a0,96(sp)
   13594:	50b010ef          	jal	1529e <__retarget_lock_close_recursive>
   13598:	48c12083          	lw	ra,1164(sp)
   1359c:	48812403          	lw	s0,1160(sp)
   135a0:	48012903          	lw	s2,1152(sp)
   135a4:	47c12983          	lw	s3,1148(sp)
   135a8:	8526                	mv	a0,s1
   135aa:	48412483          	lw	s1,1156(sp)
   135ae:	49010113          	add	sp,sp,1168
   135b2:	8082                	ret
   135b4:	002c                	add	a1,sp,8
   135b6:	854a                	mv	a0,s2
   135b8:	2a71                	jal	13754 <_fflush_r>
   135ba:	d169                	beqz	a0,1357c <__sbprintf+0x6e>
   135bc:	54fd                	li	s1,-1
   135be:	bf7d                	j	1357c <__sbprintf+0x6e>

000135c0 <__sflush_r>:
   135c0:	00c59703          	lh	a4,12(a1)
   135c4:	1101                	add	sp,sp,-32
   135c6:	cc22                	sw	s0,24(sp)
   135c8:	c64e                	sw	s3,12(sp)
   135ca:	ce06                	sw	ra,28(sp)
   135cc:	00877793          	and	a5,a4,8
   135d0:	842e                	mv	s0,a1
   135d2:	89aa                	mv	s3,a0
   135d4:	e7e1                	bnez	a5,1369c <__sflush_r+0xdc>
   135d6:	6785                	lui	a5,0x1
   135d8:	80078793          	add	a5,a5,-2048 # 800 <exit-0xf894>
   135dc:	41d4                	lw	a3,4(a1)
   135de:	8fd9                	or	a5,a5,a4
   135e0:	00f59623          	sh	a5,12(a1)
   135e4:	10d05563          	blez	a3,136ee <__sflush_r+0x12e>
   135e8:	02842803          	lw	a6,40(s0)
   135ec:	0a080263          	beqz	a6,13690 <__sflush_r+0xd0>
   135f0:	ca26                	sw	s1,20(sp)
   135f2:	01371693          	sll	a3,a4,0x13
   135f6:	0009a483          	lw	s1,0(s3)
   135fa:	0009a023          	sw	zero,0(s3)
   135fe:	4c4c                	lw	a1,28(s0)
   13600:	0e06ce63          	bltz	a3,136fc <__sflush_r+0x13c>
   13604:	4601                	li	a2,0
   13606:	4685                	li	a3,1
   13608:	854e                	mv	a0,s3
   1360a:	9802                	jalr	a6
   1360c:	57fd                	li	a5,-1
   1360e:	862a                	mv	a2,a0
   13610:	10f50f63          	beq	a0,a5,1372e <__sflush_r+0x16e>
   13614:	00c41783          	lh	a5,12(s0)
   13618:	02842803          	lw	a6,40(s0)
   1361c:	4c4c                	lw	a1,28(s0)
   1361e:	8b91                	and	a5,a5,4
   13620:	c799                	beqz	a5,1362e <__sflush_r+0x6e>
   13622:	4058                	lw	a4,4(s0)
   13624:	581c                	lw	a5,48(s0)
   13626:	8e19                	sub	a2,a2,a4
   13628:	c399                	beqz	a5,1362e <__sflush_r+0x6e>
   1362a:	5c5c                	lw	a5,60(s0)
   1362c:	8e1d                	sub	a2,a2,a5
   1362e:	4681                	li	a3,0
   13630:	854e                	mv	a0,s3
   13632:	9802                	jalr	a6
   13634:	57fd                	li	a5,-1
   13636:	0cf51563          	bne	a0,a5,13700 <__sflush_r+0x140>
   1363a:	0009a683          	lw	a3,0(s3)
   1363e:	47f5                	li	a5,29
   13640:	00c41703          	lh	a4,12(s0)
   13644:	10d7e163          	bltu	a5,a3,13746 <__sflush_r+0x186>
   13648:	204007b7          	lui	a5,0x20400
   1364c:	0785                	add	a5,a5,1 # 20400001 <__BSS_END__+0x203e22b9>
   1364e:	00d7d7b3          	srl	a5,a5,a3
   13652:	8b85                	and	a5,a5,1
   13654:	cbed                	beqz	a5,13746 <__sflush_r+0x186>
   13656:	4810                	lw	a2,16(s0)
   13658:	77fd                	lui	a5,0xfffff
   1365a:	7ff78793          	add	a5,a5,2047 # fffff7ff <__BSS_END__+0xfffe1ab7>
   1365e:	8ff9                	and	a5,a5,a4
   13660:	00f41623          	sh	a5,12(s0)
   13664:	00042223          	sw	zero,4(s0)
   13668:	c010                	sw	a2,0(s0)
   1366a:	01371793          	sll	a5,a4,0x13
   1366e:	0007d363          	bgez	a5,13674 <__sflush_r+0xb4>
   13672:	c6dd                	beqz	a3,13720 <__sflush_r+0x160>
   13674:	580c                	lw	a1,48(s0)
   13676:	0099a023          	sw	s1,0(s3)
   1367a:	c9c5                	beqz	a1,1372a <__sflush_r+0x16a>
   1367c:	04040793          	add	a5,s0,64
   13680:	00f58563          	beq	a1,a5,1368a <__sflush_r+0xca>
   13684:	854e                	mv	a0,s3
   13686:	040030ef          	jal	166c6 <_free_r>
   1368a:	44d2                	lw	s1,20(sp)
   1368c:	02042823          	sw	zero,48(s0)
   13690:	4501                	li	a0,0
   13692:	40f2                	lw	ra,28(sp)
   13694:	4462                	lw	s0,24(sp)
   13696:	49b2                	lw	s3,12(sp)
   13698:	6105                	add	sp,sp,32
   1369a:	8082                	ret
   1369c:	c84a                	sw	s2,16(sp)
   1369e:	0105a903          	lw	s2,16(a1)
   136a2:	04090b63          	beqz	s2,136f8 <__sflush_r+0x138>
   136a6:	ca26                	sw	s1,20(sp)
   136a8:	4184                	lw	s1,0(a1)
   136aa:	8b0d                	and	a4,a4,3
   136ac:	0125a023          	sw	s2,0(a1)
   136b0:	412484b3          	sub	s1,s1,s2
   136b4:	4781                	li	a5,0
   136b6:	e311                	bnez	a4,136ba <__sflush_r+0xfa>
   136b8:	49dc                	lw	a5,20(a1)
   136ba:	c41c                	sw	a5,8(s0)
   136bc:	00904663          	bgtz	s1,136c8 <__sflush_r+0x108>
   136c0:	a81d                	j	136f6 <__sflush_r+0x136>
   136c2:	992a                	add	s2,s2,a0
   136c4:	02905963          	blez	s1,136f6 <__sflush_r+0x136>
   136c8:	505c                	lw	a5,36(s0)
   136ca:	4c4c                	lw	a1,28(s0)
   136cc:	86a6                	mv	a3,s1
   136ce:	864a                	mv	a2,s2
   136d0:	854e                	mv	a0,s3
   136d2:	9782                	jalr	a5
   136d4:	8c89                	sub	s1,s1,a0
   136d6:	fea046e3          	bgtz	a0,136c2 <__sflush_r+0x102>
   136da:	00c41703          	lh	a4,12(s0)
   136de:	4942                	lw	s2,16(sp)
   136e0:	04076713          	or	a4,a4,64
   136e4:	44d2                	lw	s1,20(sp)
   136e6:	00e41623          	sh	a4,12(s0)
   136ea:	557d                	li	a0,-1
   136ec:	b75d                	j	13692 <__sflush_r+0xd2>
   136ee:	5dd4                	lw	a3,60(a1)
   136f0:	eed04ce3          	bgtz	a3,135e8 <__sflush_r+0x28>
   136f4:	bf71                	j	13690 <__sflush_r+0xd0>
   136f6:	44d2                	lw	s1,20(sp)
   136f8:	4942                	lw	s2,16(sp)
   136fa:	bf59                	j	13690 <__sflush_r+0xd0>
   136fc:	4830                	lw	a2,80(s0)
   136fe:	b705                	j	1361e <__sflush_r+0x5e>
   13700:	00c41703          	lh	a4,12(s0)
   13704:	4814                	lw	a3,16(s0)
   13706:	77fd                	lui	a5,0xfffff
   13708:	7ff78793          	add	a5,a5,2047 # fffff7ff <__BSS_END__+0xfffe1ab7>
   1370c:	8ff9                	and	a5,a5,a4
   1370e:	00f41623          	sh	a5,12(s0)
   13712:	00042223          	sw	zero,4(s0)
   13716:	c014                	sw	a3,0(s0)
   13718:	01371793          	sll	a5,a4,0x13
   1371c:	f407dce3          	bgez	a5,13674 <__sflush_r+0xb4>
   13720:	580c                	lw	a1,48(s0)
   13722:	c828                	sw	a0,80(s0)
   13724:	0099a023          	sw	s1,0(s3)
   13728:	f9b1                	bnez	a1,1367c <__sflush_r+0xbc>
   1372a:	44d2                	lw	s1,20(sp)
   1372c:	b795                	j	13690 <__sflush_r+0xd0>
   1372e:	0009a783          	lw	a5,0(s3)
   13732:	ee0781e3          	beqz	a5,13614 <__sflush_r+0x54>
   13736:	4775                	li	a4,29
   13738:	00e78a63          	beq	a5,a4,1374c <__sflush_r+0x18c>
   1373c:	4759                	li	a4,22
   1373e:	00e78763          	beq	a5,a4,1374c <__sflush_r+0x18c>
   13742:	00c41703          	lh	a4,12(s0)
   13746:	04076713          	or	a4,a4,64
   1374a:	bf69                	j	136e4 <__sflush_r+0x124>
   1374c:	0099a023          	sw	s1,0(s3)
   13750:	44d2                	lw	s1,20(sp)
   13752:	bf3d                	j	13690 <__sflush_r+0xd0>

00013754 <_fflush_r>:
   13754:	1141                	add	sp,sp,-16
   13756:	c422                	sw	s0,8(sp)
   13758:	c226                	sw	s1,4(sp)
   1375a:	c606                	sw	ra,12(sp)
   1375c:	c04a                	sw	s2,0(sp)
   1375e:	84aa                	mv	s1,a0
   13760:	842e                	mv	s0,a1
   13762:	c119                	beqz	a0,13768 <_fflush_r+0x14>
   13764:	595c                	lw	a5,52(a0)
   13766:	c3bd                	beqz	a5,137cc <_fflush_r+0x78>
   13768:	00c41783          	lh	a5,12(s0)
   1376c:	4901                	li	s2,0
   1376e:	c39d                	beqz	a5,13794 <_fflush_r+0x40>
   13770:	5078                	lw	a4,100(s0)
   13772:	8b05                	and	a4,a4,1
   13774:	e701                	bnez	a4,1377c <_fflush_r+0x28>
   13776:	2007f793          	and	a5,a5,512
   1377a:	c785                	beqz	a5,137a2 <_fflush_r+0x4e>
   1377c:	85a2                	mv	a1,s0
   1377e:	8526                	mv	a0,s1
   13780:	3581                	jal	135c0 <__sflush_r>
   13782:	507c                	lw	a5,100(s0)
   13784:	892a                	mv	s2,a0
   13786:	8b85                	and	a5,a5,1
   13788:	e791                	bnez	a5,13794 <_fflush_r+0x40>
   1378a:	00c45783          	lhu	a5,12(s0)
   1378e:	2007f793          	and	a5,a5,512
   13792:	c39d                	beqz	a5,137b8 <_fflush_r+0x64>
   13794:	40b2                	lw	ra,12(sp)
   13796:	4422                	lw	s0,8(sp)
   13798:	4492                	lw	s1,4(sp)
   1379a:	854a                	mv	a0,s2
   1379c:	4902                	lw	s2,0(sp)
   1379e:	0141                	add	sp,sp,16
   137a0:	8082                	ret
   137a2:	4c28                	lw	a0,88(s0)
   137a4:	2ff010ef          	jal	152a2 <__retarget_lock_acquire_recursive>
   137a8:	85a2                	mv	a1,s0
   137aa:	8526                	mv	a0,s1
   137ac:	3d11                	jal	135c0 <__sflush_r>
   137ae:	507c                	lw	a5,100(s0)
   137b0:	892a                	mv	s2,a0
   137b2:	8b85                	and	a5,a5,1
   137b4:	f3e5                	bnez	a5,13794 <_fflush_r+0x40>
   137b6:	bfd1                	j	1378a <_fflush_r+0x36>
   137b8:	4c28                	lw	a0,88(s0)
   137ba:	2f5010ef          	jal	152ae <__retarget_lock_release_recursive>
   137be:	40b2                	lw	ra,12(sp)
   137c0:	4422                	lw	s0,8(sp)
   137c2:	4492                	lw	s1,4(sp)
   137c4:	854a                	mv	a0,s2
   137c6:	4902                	lw	s2,0(sp)
   137c8:	0141                	add	sp,sp,16
   137ca:	8082                	ret
   137cc:	26b9                	jal	13b1a <__sinit>
   137ce:	bf69                	j	13768 <_fflush_r+0x14>

000137d0 <fflush>:
   137d0:	c535                	beqz	a0,1383c <fflush+0x6c>
   137d2:	1141                	add	sp,sp,-16
   137d4:	c422                	sw	s0,8(sp)
   137d6:	c04a                	sw	s2,0(sp)
   137d8:	c606                	sw	ra,12(sp)
   137da:	c226                	sw	s1,4(sp)
   137dc:	f2c1a903          	lw	s2,-212(gp) # 1d73c <_impure_ptr>
   137e0:	842a                	mv	s0,a0
   137e2:	00090563          	beqz	s2,137ec <fflush+0x1c>
   137e6:	03492783          	lw	a5,52(s2)
   137ea:	cf95                	beqz	a5,13826 <fflush+0x56>
   137ec:	00c41783          	lh	a5,12(s0)
   137f0:	4481                	li	s1,0
   137f2:	c39d                	beqz	a5,13818 <fflush+0x48>
   137f4:	5078                	lw	a4,100(s0)
   137f6:	8b05                	and	a4,a4,1
   137f8:	e701                	bnez	a4,13800 <fflush+0x30>
   137fa:	2007f793          	and	a5,a5,512
   137fe:	c79d                	beqz	a5,1382c <fflush+0x5c>
   13800:	85a2                	mv	a1,s0
   13802:	854a                	mv	a0,s2
   13804:	3b75                	jal	135c0 <__sflush_r>
   13806:	507c                	lw	a5,100(s0)
   13808:	84aa                	mv	s1,a0
   1380a:	8b85                	and	a5,a5,1
   1380c:	e791                	bnez	a5,13818 <fflush+0x48>
   1380e:	00c45783          	lhu	a5,12(s0)
   13812:	2007f793          	and	a5,a5,512
   13816:	cf99                	beqz	a5,13834 <fflush+0x64>
   13818:	40b2                	lw	ra,12(sp)
   1381a:	4422                	lw	s0,8(sp)
   1381c:	4902                	lw	s2,0(sp)
   1381e:	8526                	mv	a0,s1
   13820:	4492                	lw	s1,4(sp)
   13822:	0141                	add	sp,sp,16
   13824:	8082                	ret
   13826:	854a                	mv	a0,s2
   13828:	2ccd                	jal	13b1a <__sinit>
   1382a:	b7c9                	j	137ec <fflush+0x1c>
   1382c:	4c28                	lw	a0,88(s0)
   1382e:	275010ef          	jal	152a2 <__retarget_lock_acquire_recursive>
   13832:	b7f9                	j	13800 <fflush+0x30>
   13834:	4c28                	lw	a0,88(s0)
   13836:	279010ef          	jal	152ae <__retarget_lock_release_recursive>
   1383a:	bff9                	j	13818 <fflush+0x48>
   1383c:	00009617          	auipc	a2,0x9
   13840:	7d460613          	add	a2,a2,2004 # 1d010 <__sglue>
   13844:	00000597          	auipc	a1,0x0
   13848:	f1058593          	add	a1,a1,-240 # 13754 <_fflush_r>
   1384c:	99818513          	add	a0,gp,-1640 # 1d1a8 <_impure_data>
   13850:	ad75                	j	13f0c <_fwalk_sglue>

00013852 <stdio_exit_handler>:
   13852:	00009617          	auipc	a2,0x9
   13856:	7be60613          	add	a2,a2,1982 # 1d010 <__sglue>
   1385a:	00005597          	auipc	a1,0x5
   1385e:	ba458593          	add	a1,a1,-1116 # 183fe <_fclose_r>
   13862:	99818513          	add	a0,gp,-1640 # 1d1a8 <_impure_data>
   13866:	a55d                	j	13f0c <_fwalk_sglue>

00013868 <cleanup_stdio>:
   13868:	414c                	lw	a1,4(a0)
   1386a:	1141                	add	sp,sp,-16
   1386c:	c422                	sw	s0,8(sp)
   1386e:	c606                	sw	ra,12(sp)
   13870:	fa018793          	add	a5,gp,-96 # 1d7b0 <__sf>
   13874:	842a                	mv	s0,a0
   13876:	00f58463          	beq	a1,a5,1387e <cleanup_stdio+0x16>
   1387a:	385040ef          	jal	183fe <_fclose_r>
   1387e:	440c                	lw	a1,8(s0)
   13880:	00818793          	add	a5,gp,8 # 1d818 <__global_pointer$+0x8>
   13884:	00f58563          	beq	a1,a5,1388e <cleanup_stdio+0x26>
   13888:	8522                	mv	a0,s0
   1388a:	375040ef          	jal	183fe <_fclose_r>
   1388e:	444c                	lw	a1,12(s0)
   13890:	07018793          	add	a5,gp,112 # 1d880 <__global_pointer$+0x70>
   13894:	00f58863          	beq	a1,a5,138a4 <cleanup_stdio+0x3c>
   13898:	8522                	mv	a0,s0
   1389a:	4422                	lw	s0,8(sp)
   1389c:	40b2                	lw	ra,12(sp)
   1389e:	0141                	add	sp,sp,16
   138a0:	35f0406f          	j	183fe <_fclose_r>
   138a4:	40b2                	lw	ra,12(sp)
   138a6:	4422                	lw	s0,8(sp)
   138a8:	0141                	add	sp,sp,16
   138aa:	8082                	ret

000138ac <__fp_lock>:
   138ac:	51fc                	lw	a5,100(a1)
   138ae:	8b85                	and	a5,a5,1
   138b0:	e791                	bnez	a5,138bc <__fp_lock+0x10>
   138b2:	00c5d783          	lhu	a5,12(a1)
   138b6:	2007f793          	and	a5,a5,512
   138ba:	c399                	beqz	a5,138c0 <__fp_lock+0x14>
   138bc:	4501                	li	a0,0
   138be:	8082                	ret
   138c0:	4da8                	lw	a0,88(a1)
   138c2:	1141                	add	sp,sp,-16
   138c4:	c606                	sw	ra,12(sp)
   138c6:	1dd010ef          	jal	152a2 <__retarget_lock_acquire_recursive>
   138ca:	40b2                	lw	ra,12(sp)
   138cc:	4501                	li	a0,0
   138ce:	0141                	add	sp,sp,16
   138d0:	8082                	ret

000138d2 <__fp_unlock>:
   138d2:	51fc                	lw	a5,100(a1)
   138d4:	8b85                	and	a5,a5,1
   138d6:	e791                	bnez	a5,138e2 <__fp_unlock+0x10>
   138d8:	00c5d783          	lhu	a5,12(a1)
   138dc:	2007f793          	and	a5,a5,512
   138e0:	c399                	beqz	a5,138e6 <__fp_unlock+0x14>
   138e2:	4501                	li	a0,0
   138e4:	8082                	ret
   138e6:	4da8                	lw	a0,88(a1)
   138e8:	1141                	add	sp,sp,-16
   138ea:	c606                	sw	ra,12(sp)
   138ec:	1c3010ef          	jal	152ae <__retarget_lock_release_recursive>
   138f0:	40b2                	lw	ra,12(sp)
   138f2:	4501                	li	a0,0
   138f4:	0141                	add	sp,sp,16
   138f6:	8082                	ret

000138f8 <global_stdio_init.part.0>:
   138f8:	1101                	add	sp,sp,-32
   138fa:	00000797          	auipc	a5,0x0
   138fe:	f5878793          	add	a5,a5,-168 # 13852 <stdio_exit_handler>
   13902:	ce06                	sw	ra,28(sp)
   13904:	cc22                	sw	s0,24(sp)
   13906:	ca26                	sw	s1,20(sp)
   13908:	fa018413          	add	s0,gp,-96 # 1d7b0 <__sf>
   1390c:	c84a                	sw	s2,16(sp)
   1390e:	c64e                	sw	s3,12(sp)
   13910:	c452                	sw	s4,8(sp)
   13912:	4621                	li	a2,8
   13914:	4581                	li	a1,0
   13916:	f4f1a223          	sw	a5,-188(gp) # 1d754 <__stdio_exit_handler>
   1391a:	ffc18513          	add	a0,gp,-4 # 1d80c <__sf+0x5c>
   1391e:	4791                	li	a5,4
   13920:	c45c                	sw	a5,12(s0)
   13922:	00042023          	sw	zero,0(s0)
   13926:	00042223          	sw	zero,4(s0)
   1392a:	00042423          	sw	zero,8(s0)
   1392e:	06042223          	sw	zero,100(s0)
   13932:	00042823          	sw	zero,16(s0)
   13936:	00042a23          	sw	zero,20(s0)
   1393a:	00042c23          	sw	zero,24(s0)
   1393e:	4d0010ef          	jal	14e0e <memset>
   13942:	00005a17          	auipc	s4,0x5
   13946:	10ea0a13          	add	s4,s4,270 # 18a50 <__sread>
   1394a:	00005997          	auipc	s3,0x5
   1394e:	14298993          	add	s3,s3,322 # 18a8c <__swrite>
   13952:	00005917          	auipc	s2,0x5
   13956:	18e90913          	add	s2,s2,398 # 18ae0 <__sseek>
   1395a:	00005497          	auipc	s1,0x5
   1395e:	1d048493          	add	s1,s1,464 # 18b2a <__sclose>
   13962:	ff818513          	add	a0,gp,-8 # 1d808 <__sf+0x58>
   13966:	03442023          	sw	s4,32(s0)
   1396a:	03342223          	sw	s3,36(s0)
   1396e:	03242423          	sw	s2,40(s0)
   13972:	d444                	sw	s1,44(s0)
   13974:	cc40                	sw	s0,28(s0)
   13976:	125010ef          	jal	1529a <__retarget_lock_init_recursive>
   1397a:	67c1                	lui	a5,0x10
   1397c:	07a5                	add	a5,a5,9 # 10009 <exit-0x8b>
   1397e:	4621                	li	a2,8
   13980:	4581                	li	a1,0
   13982:	06418513          	add	a0,gp,100 # 1d874 <__global_pointer$+0x64>
   13986:	d87c                	sw	a5,116(s0)
   13988:	06042423          	sw	zero,104(s0)
   1398c:	06042623          	sw	zero,108(s0)
   13990:	06042823          	sw	zero,112(s0)
   13994:	0c042623          	sw	zero,204(s0)
   13998:	06042c23          	sw	zero,120(s0)
   1399c:	06042e23          	sw	zero,124(s0)
   139a0:	08042023          	sw	zero,128(s0)
   139a4:	46a010ef          	jal	14e0e <memset>
   139a8:	00818793          	add	a5,gp,8 # 1d818 <__global_pointer$+0x8>
   139ac:	06018513          	add	a0,gp,96 # 1d870 <__global_pointer$+0x60>
   139b0:	08f42223          	sw	a5,132(s0)
   139b4:	09442423          	sw	s4,136(s0)
   139b8:	09342623          	sw	s3,140(s0)
   139bc:	09242823          	sw	s2,144(s0)
   139c0:	08942a23          	sw	s1,148(s0)
   139c4:	0d7010ef          	jal	1529a <__retarget_lock_init_recursive>
   139c8:	000207b7          	lui	a5,0x20
   139cc:	07c9                	add	a5,a5,18 # 20012 <__BSS_END__+0x22ca>
   139ce:	4621                	li	a2,8
   139d0:	4581                	li	a1,0
   139d2:	0cc18513          	add	a0,gp,204 # 1d8dc <__global_pointer$+0xcc>
   139d6:	0cf42e23          	sw	a5,220(s0)
   139da:	0c042823          	sw	zero,208(s0)
   139de:	0c042a23          	sw	zero,212(s0)
   139e2:	0c042c23          	sw	zero,216(s0)
   139e6:	12042a23          	sw	zero,308(s0)
   139ea:	0e042023          	sw	zero,224(s0)
   139ee:	0e042223          	sw	zero,228(s0)
   139f2:	0e042423          	sw	zero,232(s0)
   139f6:	418010ef          	jal	14e0e <memset>
   139fa:	07018793          	add	a5,gp,112 # 1d880 <__global_pointer$+0x70>
   139fe:	0f442823          	sw	s4,240(s0)
   13a02:	0f342a23          	sw	s3,244(s0)
   13a06:	0f242c23          	sw	s2,248(s0)
   13a0a:	0e942e23          	sw	s1,252(s0)
   13a0e:	0ef42623          	sw	a5,236(s0)
   13a12:	4462                	lw	s0,24(sp)
   13a14:	40f2                	lw	ra,28(sp)
   13a16:	44d2                	lw	s1,20(sp)
   13a18:	4942                	lw	s2,16(sp)
   13a1a:	49b2                	lw	s3,12(sp)
   13a1c:	4a22                	lw	s4,8(sp)
   13a1e:	0c818513          	add	a0,gp,200 # 1d8d8 <__global_pointer$+0xc8>
   13a22:	6105                	add	sp,sp,32
   13a24:	0770106f          	j	1529a <__retarget_lock_init_recursive>

00013a28 <__sfp>:
   13a28:	1101                	add	sp,sp,-32
   13a2a:	c64e                	sw	s3,12(sp)
   13a2c:	89aa                	mv	s3,a0
   13a2e:	f6818513          	add	a0,gp,-152 # 1d778 <__lock___sfp_recursive_mutex>
   13a32:	ce06                	sw	ra,28(sp)
   13a34:	cc22                	sw	s0,24(sp)
   13a36:	ca26                	sw	s1,20(sp)
   13a38:	c84a                	sw	s2,16(sp)
   13a3a:	069010ef          	jal	152a2 <__retarget_lock_acquire_recursive>
   13a3e:	f441a783          	lw	a5,-188(gp) # 1d754 <__stdio_exit_handler>
   13a42:	c3e1                	beqz	a5,13b02 <__sfp+0xda>
   13a44:	00009917          	auipc	s2,0x9
   13a48:	5cc90913          	add	s2,s2,1484 # 1d010 <__sglue>
   13a4c:	54fd                	li	s1,-1
   13a4e:	00492783          	lw	a5,4(s2)
   13a52:	00892403          	lw	s0,8(s2)
   13a56:	17fd                	add	a5,a5,-1
   13a58:	0007d763          	bgez	a5,13a66 <__sfp+0x3e>
   13a5c:	a885                	j	13acc <__sfp+0xa4>
   13a5e:	06840413          	add	s0,s0,104
   13a62:	06978563          	beq	a5,s1,13acc <__sfp+0xa4>
   13a66:	00c41703          	lh	a4,12(s0)
   13a6a:	17fd                	add	a5,a5,-1
   13a6c:	fb6d                	bnez	a4,13a5e <__sfp+0x36>
   13a6e:	77c1                	lui	a5,0xffff0
   13a70:	0785                	add	a5,a5,1 # ffff0001 <__BSS_END__+0xfffd22b9>
   13a72:	c45c                	sw	a5,12(s0)
   13a74:	05840513          	add	a0,s0,88
   13a78:	06042223          	sw	zero,100(s0)
   13a7c:	01f010ef          	jal	1529a <__retarget_lock_init_recursive>
   13a80:	f6818513          	add	a0,gp,-152 # 1d778 <__lock___sfp_recursive_mutex>
   13a84:	02b010ef          	jal	152ae <__retarget_lock_release_recursive>
   13a88:	4621                	li	a2,8
   13a8a:	00042023          	sw	zero,0(s0)
   13a8e:	00042423          	sw	zero,8(s0)
   13a92:	00042223          	sw	zero,4(s0)
   13a96:	00042823          	sw	zero,16(s0)
   13a9a:	00042a23          	sw	zero,20(s0)
   13a9e:	00042c23          	sw	zero,24(s0)
   13aa2:	4581                	li	a1,0
   13aa4:	05c40513          	add	a0,s0,92
   13aa8:	366010ef          	jal	14e0e <memset>
   13aac:	02042823          	sw	zero,48(s0)
   13ab0:	02042a23          	sw	zero,52(s0)
   13ab4:	04042223          	sw	zero,68(s0)
   13ab8:	04042423          	sw	zero,72(s0)
   13abc:	40f2                	lw	ra,28(sp)
   13abe:	8522                	mv	a0,s0
   13ac0:	4462                	lw	s0,24(sp)
   13ac2:	44d2                	lw	s1,20(sp)
   13ac4:	4942                	lw	s2,16(sp)
   13ac6:	49b2                	lw	s3,12(sp)
   13ac8:	6105                	add	sp,sp,32
   13aca:	8082                	ret
   13acc:	00092403          	lw	s0,0(s2)
   13ad0:	c019                	beqz	s0,13ad6 <__sfp+0xae>
   13ad2:	8922                	mv	s2,s0
   13ad4:	bfad                	j	13a4e <__sfp+0x26>
   13ad6:	1ac00593          	li	a1,428
   13ada:	854e                	mv	a0,s3
   13adc:	6e5020ef          	jal	169c0 <_malloc_r>
   13ae0:	842a                	mv	s0,a0
   13ae2:	c115                	beqz	a0,13b06 <__sfp+0xde>
   13ae4:	0531                	add	a0,a0,12
   13ae6:	4791                	li	a5,4
   13ae8:	00042023          	sw	zero,0(s0)
   13aec:	c05c                	sw	a5,4(s0)
   13aee:	c408                	sw	a0,8(s0)
   13af0:	1a000613          	li	a2,416
   13af4:	4581                	li	a1,0
   13af6:	318010ef          	jal	14e0e <memset>
   13afa:	00892023          	sw	s0,0(s2)
   13afe:	8922                	mv	s2,s0
   13b00:	b7b9                	j	13a4e <__sfp+0x26>
   13b02:	3bdd                	jal	138f8 <global_stdio_init.part.0>
   13b04:	b781                	j	13a44 <__sfp+0x1c>
   13b06:	00092023          	sw	zero,0(s2)
   13b0a:	f6818513          	add	a0,gp,-152 # 1d778 <__lock___sfp_recursive_mutex>
   13b0e:	7a0010ef          	jal	152ae <__retarget_lock_release_recursive>
   13b12:	47b1                	li	a5,12
   13b14:	00f9a023          	sw	a5,0(s3)
   13b18:	b755                	j	13abc <__sfp+0x94>

00013b1a <__sinit>:
   13b1a:	1141                	add	sp,sp,-16
   13b1c:	c422                	sw	s0,8(sp)
   13b1e:	842a                	mv	s0,a0
   13b20:	f6818513          	add	a0,gp,-152 # 1d778 <__lock___sfp_recursive_mutex>
   13b24:	c606                	sw	ra,12(sp)
   13b26:	77c010ef          	jal	152a2 <__retarget_lock_acquire_recursive>
   13b2a:	585c                	lw	a5,52(s0)
   13b2c:	eb89                	bnez	a5,13b3e <__sinit+0x24>
   13b2e:	00000797          	auipc	a5,0x0
   13b32:	d3a78793          	add	a5,a5,-710 # 13868 <cleanup_stdio>
   13b36:	d85c                	sw	a5,52(s0)
   13b38:	f441a783          	lw	a5,-188(gp) # 1d754 <__stdio_exit_handler>
   13b3c:	cb81                	beqz	a5,13b4c <__sinit+0x32>
   13b3e:	4422                	lw	s0,8(sp)
   13b40:	40b2                	lw	ra,12(sp)
   13b42:	f6818513          	add	a0,gp,-152 # 1d778 <__lock___sfp_recursive_mutex>
   13b46:	0141                	add	sp,sp,16
   13b48:	7660106f          	j	152ae <__retarget_lock_release_recursive>
   13b4c:	3375                	jal	138f8 <global_stdio_init.part.0>
   13b4e:	4422                	lw	s0,8(sp)
   13b50:	40b2                	lw	ra,12(sp)
   13b52:	f6818513          	add	a0,gp,-152 # 1d778 <__lock___sfp_recursive_mutex>
   13b56:	0141                	add	sp,sp,16
   13b58:	7560106f          	j	152ae <__retarget_lock_release_recursive>

00013b5c <__sfp_lock_acquire>:
   13b5c:	f6818513          	add	a0,gp,-152 # 1d778 <__lock___sfp_recursive_mutex>
   13b60:	7420106f          	j	152a2 <__retarget_lock_acquire_recursive>

00013b64 <__sfp_lock_release>:
   13b64:	f6818513          	add	a0,gp,-152 # 1d778 <__lock___sfp_recursive_mutex>
   13b68:	7460106f          	j	152ae <__retarget_lock_release_recursive>

00013b6c <__fp_lock_all>:
   13b6c:	1141                	add	sp,sp,-16
   13b6e:	f6818513          	add	a0,gp,-152 # 1d778 <__lock___sfp_recursive_mutex>
   13b72:	c606                	sw	ra,12(sp)
   13b74:	72e010ef          	jal	152a2 <__retarget_lock_acquire_recursive>
   13b78:	40b2                	lw	ra,12(sp)
   13b7a:	00009617          	auipc	a2,0x9
   13b7e:	49660613          	add	a2,a2,1174 # 1d010 <__sglue>
   13b82:	00000597          	auipc	a1,0x0
   13b86:	d2a58593          	add	a1,a1,-726 # 138ac <__fp_lock>
   13b8a:	4501                	li	a0,0
   13b8c:	0141                	add	sp,sp,16
   13b8e:	aebd                	j	13f0c <_fwalk_sglue>

00013b90 <__fp_unlock_all>:
   13b90:	1141                	add	sp,sp,-16
   13b92:	00009617          	auipc	a2,0x9
   13b96:	47e60613          	add	a2,a2,1150 # 1d010 <__sglue>
   13b9a:	00000597          	auipc	a1,0x0
   13b9e:	d3858593          	add	a1,a1,-712 # 138d2 <__fp_unlock>
   13ba2:	4501                	li	a0,0
   13ba4:	c606                	sw	ra,12(sp)
   13ba6:	269d                	jal	13f0c <_fwalk_sglue>
   13ba8:	40b2                	lw	ra,12(sp)
   13baa:	f6818513          	add	a0,gp,-152 # 1d778 <__lock___sfp_recursive_mutex>
   13bae:	0141                	add	sp,sp,16
   13bb0:	6fe0106f          	j	152ae <__retarget_lock_release_recursive>

00013bb4 <__sfvwrite_r>:
   13bb4:	461c                	lw	a5,8(a2)
   13bb6:	1c078f63          	beqz	a5,13d94 <__sfvwrite_r+0x1e0>
   13bba:	00c59683          	lh	a3,12(a1)
   13bbe:	7179                	add	sp,sp,-48
   13bc0:	d422                	sw	s0,40(sp)
   13bc2:	cc52                	sw	s4,24(sp)
   13bc4:	c85a                	sw	s6,16(sp)
   13bc6:	d606                	sw	ra,44(sp)
   13bc8:	0086f793          	and	a5,a3,8
   13bcc:	8b32                	mv	s6,a2
   13bce:	8a2a                	mv	s4,a0
   13bd0:	842e                	mv	s0,a1
   13bd2:	c7ad                	beqz	a5,13c3c <__sfvwrite_r+0x88>
   13bd4:	499c                	lw	a5,16(a1)
   13bd6:	c3bd                	beqz	a5,13c3c <__sfvwrite_r+0x88>
   13bd8:	d226                	sw	s1,36(sp)
   13bda:	d04a                	sw	s2,32(sp)
   13bdc:	ce4e                	sw	s3,28(sp)
   13bde:	ca56                	sw	s5,20(sp)
   13be0:	0026f793          	and	a5,a3,2
   13be4:	000b2483          	lw	s1,0(s6)
   13be8:	cbb5                	beqz	a5,13c5c <__sfvwrite_r+0xa8>
   13bea:	505c                	lw	a5,36(s0)
   13bec:	4c4c                	lw	a1,28(s0)
   13bee:	80000ab7          	lui	s5,0x80000
   13bf2:	4981                	li	s3,0
   13bf4:	4901                	li	s2,0
   13bf6:	c00a8a93          	add	s5,s5,-1024 # 7ffffc00 <__BSS_END__+0x7ffe1eb8>
   13bfa:	864e                	mv	a2,s3
   13bfc:	8552                	mv	a0,s4
   13bfe:	02090963          	beqz	s2,13c30 <__sfvwrite_r+0x7c>
   13c02:	86ca                	mv	a3,s2
   13c04:	012af363          	bgeu	s5,s2,13c0a <__sfvwrite_r+0x56>
   13c08:	86d6                	mv	a3,s5
   13c0a:	9782                	jalr	a5
   13c0c:	2ea05463          	blez	a0,13ef4 <__sfvwrite_r+0x340>
   13c10:	008b2783          	lw	a5,8(s6)
   13c14:	99aa                	add	s3,s3,a0
   13c16:	40a90933          	sub	s2,s2,a0
   13c1a:	8f89                	sub	a5,a5,a0
   13c1c:	00fb2423          	sw	a5,8(s6)
   13c20:	12078763          	beqz	a5,13d4e <__sfvwrite_r+0x19a>
   13c24:	505c                	lw	a5,36(s0)
   13c26:	4c4c                	lw	a1,28(s0)
   13c28:	864e                	mv	a2,s3
   13c2a:	8552                	mv	a0,s4
   13c2c:	fc091be3          	bnez	s2,13c02 <__sfvwrite_r+0x4e>
   13c30:	0004a983          	lw	s3,0(s1)
   13c34:	0044a903          	lw	s2,4(s1)
   13c38:	04a1                	add	s1,s1,8
   13c3a:	b7c1                	j	13bfa <__sfvwrite_r+0x46>
   13c3c:	85a2                	mv	a1,s0
   13c3e:	8552                	mv	a0,s4
   13c40:	2e3d                	jal	13f7e <__swsetup_r>
   13c42:	14051263          	bnez	a0,13d86 <__sfvwrite_r+0x1d2>
   13c46:	00c41683          	lh	a3,12(s0)
   13c4a:	d226                	sw	s1,36(sp)
   13c4c:	d04a                	sw	s2,32(sp)
   13c4e:	ce4e                	sw	s3,28(sp)
   13c50:	ca56                	sw	s5,20(sp)
   13c52:	0026f793          	and	a5,a3,2
   13c56:	000b2483          	lw	s1,0(s6)
   13c5a:	fbc1                	bnez	a5,13bea <__sfvwrite_r+0x36>
   13c5c:	c65e                	sw	s7,12(sp)
   13c5e:	c462                	sw	s8,8(sp)
   13c60:	0016f793          	and	a5,a3,1
   13c64:	12079a63          	bnez	a5,13d98 <__sfvwrite_r+0x1e4>
   13c68:	401c                	lw	a5,0(s0)
   13c6a:	4418                	lw	a4,8(s0)
   13c6c:	80000ab7          	lui	s5,0x80000
   13c70:	c266                	sw	s9,4(sp)
   13c72:	4b81                	li	s7,0
   13c74:	4981                	li	s3,0
   13c76:	1afd                	add	s5,s5,-1 # 7fffffff <__BSS_END__+0x7ffe22b7>
   13c78:	853e                	mv	a0,a5
   13c7a:	8c3a                	mv	s8,a4
   13c7c:	0c098063          	beqz	s3,13d3c <__sfvwrite_r+0x188>
   13c80:	2006f613          	and	a2,a3,512
   13c84:	1a060a63          	beqz	a2,13e38 <__sfvwrite_r+0x284>
   13c88:	8cba                	mv	s9,a4
   13c8a:	20e9ec63          	bltu	s3,a4,13ea2 <__sfvwrite_r+0x2ee>
   13c8e:	4806f713          	and	a4,a3,1152
   13c92:	cb25                	beqz	a4,13d02 <__sfvwrite_r+0x14e>
   13c94:	4850                	lw	a2,20(s0)
   13c96:	480c                	lw	a1,16(s0)
   13c98:	00161713          	sll	a4,a2,0x1
   13c9c:	9732                	add	a4,a4,a2
   13c9e:	40b78933          	sub	s2,a5,a1
   13ca2:	01f75c13          	srl	s8,a4,0x1f
   13ca6:	9c3a                	add	s8,s8,a4
   13ca8:	00190793          	add	a5,s2,1
   13cac:	401c5c13          	sra	s8,s8,0x1
   13cb0:	97ce                	add	a5,a5,s3
   13cb2:	8662                	mv	a2,s8
   13cb4:	00fc7463          	bgeu	s8,a5,13cbc <__sfvwrite_r+0x108>
   13cb8:	8c3e                	mv	s8,a5
   13cba:	863e                	mv	a2,a5
   13cbc:	4006f693          	and	a3,a3,1024
   13cc0:	20068163          	beqz	a3,13ec2 <__sfvwrite_r+0x30e>
   13cc4:	85b2                	mv	a1,a2
   13cc6:	8552                	mv	a0,s4
   13cc8:	4f9020ef          	jal	169c0 <_malloc_r>
   13ccc:	8caa                	mv	s9,a0
   13cce:	22050663          	beqz	a0,13efa <__sfvwrite_r+0x346>
   13cd2:	480c                	lw	a1,16(s0)
   13cd4:	864a                	mv	a2,s2
   13cd6:	1e0010ef          	jal	14eb6 <memcpy>
   13cda:	00c45783          	lhu	a5,12(s0)
   13cde:	b7f7f793          	and	a5,a5,-1153
   13ce2:	0807e793          	or	a5,a5,128
   13ce6:	00f41623          	sh	a5,12(s0)
   13cea:	012c8533          	add	a0,s9,s2
   13cee:	412c07b3          	sub	a5,s8,s2
   13cf2:	01942823          	sw	s9,16(s0)
   13cf6:	01842a23          	sw	s8,20(s0)
   13cfa:	c008                	sw	a0,0(s0)
   13cfc:	8c4e                	mv	s8,s3
   13cfe:	c41c                	sw	a5,8(s0)
   13d00:	8cce                	mv	s9,s3
   13d02:	8666                	mv	a2,s9
   13d04:	85de                	mv	a1,s7
   13d06:	03c010ef          	jal	14d42 <memmove>
   13d0a:	4418                	lw	a4,8(s0)
   13d0c:	401c                	lw	a5,0(s0)
   13d0e:	894e                	mv	s2,s3
   13d10:	41870733          	sub	a4,a4,s8
   13d14:	97e6                	add	a5,a5,s9
   13d16:	c418                	sw	a4,8(s0)
   13d18:	c01c                	sw	a5,0(s0)
   13d1a:	4981                	li	s3,0
   13d1c:	008b2783          	lw	a5,8(s6)
   13d20:	9bca                	add	s7,s7,s2
   13d22:	412787b3          	sub	a5,a5,s2
   13d26:	00fb2423          	sw	a5,8(s6)
   13d2a:	cf99                	beqz	a5,13d48 <__sfvwrite_r+0x194>
   13d2c:	401c                	lw	a5,0(s0)
   13d2e:	4418                	lw	a4,8(s0)
   13d30:	00c41683          	lh	a3,12(s0)
   13d34:	853e                	mv	a0,a5
   13d36:	8c3a                	mv	s8,a4
   13d38:	f40994e3          	bnez	s3,13c80 <__sfvwrite_r+0xcc>
   13d3c:	0004ab83          	lw	s7,0(s1)
   13d40:	0044a983          	lw	s3,4(s1)
   13d44:	04a1                	add	s1,s1,8
   13d46:	bf0d                	j	13c78 <__sfvwrite_r+0xc4>
   13d48:	4bb2                	lw	s7,12(sp)
   13d4a:	4c22                	lw	s8,8(sp)
   13d4c:	4c92                	lw	s9,4(sp)
   13d4e:	50b2                	lw	ra,44(sp)
   13d50:	5422                	lw	s0,40(sp)
   13d52:	5492                	lw	s1,36(sp)
   13d54:	5902                	lw	s2,32(sp)
   13d56:	49f2                	lw	s3,28(sp)
   13d58:	4ad2                	lw	s5,20(sp)
   13d5a:	4a62                	lw	s4,24(sp)
   13d5c:	4b42                	lw	s6,16(sp)
   13d5e:	4501                	li	a0,0
   13d60:	6145                	add	sp,sp,48
   13d62:	8082                	ret
   13d64:	85a2                	mv	a1,s0
   13d66:	8552                	mv	a0,s4
   13d68:	9edff0ef          	jal	13754 <_fflush_r>
   13d6c:	c93d                	beqz	a0,13de2 <__sfvwrite_r+0x22e>
   13d6e:	00c41783          	lh	a5,12(s0)
   13d72:	4bb2                	lw	s7,12(sp)
   13d74:	4c22                	lw	s8,8(sp)
   13d76:	5492                	lw	s1,36(sp)
   13d78:	5902                	lw	s2,32(sp)
   13d7a:	49f2                	lw	s3,28(sp)
   13d7c:	4ad2                	lw	s5,20(sp)
   13d7e:	0407e793          	or	a5,a5,64
   13d82:	00f41623          	sh	a5,12(s0)
   13d86:	50b2                	lw	ra,44(sp)
   13d88:	5422                	lw	s0,40(sp)
   13d8a:	4a62                	lw	s4,24(sp)
   13d8c:	4b42                	lw	s6,16(sp)
   13d8e:	557d                	li	a0,-1
   13d90:	6145                	add	sp,sp,48
   13d92:	8082                	ret
   13d94:	4501                	li	a0,0
   13d96:	8082                	ret
   13d98:	4a81                	li	s5,0
   13d9a:	4501                	li	a0,0
   13d9c:	4c01                	li	s8,0
   13d9e:	4981                	li	s3,0
   13da0:	04098e63          	beqz	s3,13dfc <__sfvwrite_r+0x248>
   13da4:	c525                	beqz	a0,13e0c <__sfvwrite_r+0x258>
   13da6:	87d6                	mv	a5,s5
   13da8:	8bce                	mv	s7,s3
   13daa:	0137f363          	bgeu	a5,s3,13db0 <__sfvwrite_r+0x1fc>
   13dae:	8bbe                	mv	s7,a5
   13db0:	4008                	lw	a0,0(s0)
   13db2:	481c                	lw	a5,16(s0)
   13db4:	00842903          	lw	s2,8(s0)
   13db8:	4854                	lw	a3,20(s0)
   13dba:	00a7f563          	bgeu	a5,a0,13dc4 <__sfvwrite_r+0x210>
   13dbe:	9936                	add	s2,s2,a3
   13dc0:	05794f63          	blt	s2,s7,13e1e <__sfvwrite_r+0x26a>
   13dc4:	0edbc263          	blt	s7,a3,13ea8 <__sfvwrite_r+0x2f4>
   13dc8:	505c                	lw	a5,36(s0)
   13dca:	4c4c                	lw	a1,28(s0)
   13dcc:	8662                	mv	a2,s8
   13dce:	8552                	mv	a0,s4
   13dd0:	9782                	jalr	a5
   13dd2:	892a                	mv	s2,a0
   13dd4:	f8a05de3          	blez	a0,13d6e <__sfvwrite_r+0x1ba>
   13dd8:	412a8ab3          	sub	s5,s5,s2
   13ddc:	4505                	li	a0,1
   13dde:	f80a83e3          	beqz	s5,13d64 <__sfvwrite_r+0x1b0>
   13de2:	008b2783          	lw	a5,8(s6)
   13de6:	9c4a                	add	s8,s8,s2
   13de8:	412989b3          	sub	s3,s3,s2
   13dec:	412787b3          	sub	a5,a5,s2
   13df0:	00fb2423          	sw	a5,8(s6)
   13df4:	f7d5                	bnez	a5,13da0 <__sfvwrite_r+0x1ec>
   13df6:	4bb2                	lw	s7,12(sp)
   13df8:	4c22                	lw	s8,8(sp)
   13dfa:	bf91                	j	13d4e <__sfvwrite_r+0x19a>
   13dfc:	0044a983          	lw	s3,4(s1)
   13e00:	87a6                	mv	a5,s1
   13e02:	04a1                	add	s1,s1,8
   13e04:	fe098ce3          	beqz	s3,13dfc <__sfvwrite_r+0x248>
   13e08:	0007ac03          	lw	s8,0(a5)
   13e0c:	864e                	mv	a2,s3
   13e0e:	45a9                	li	a1,10
   13e10:	8562                	mv	a0,s8
   13e12:	2499                	jal	14058 <memchr>
   13e14:	cd61                	beqz	a0,13eec <__sfvwrite_r+0x338>
   13e16:	0505                	add	a0,a0,1
   13e18:	41850ab3          	sub	s5,a0,s8
   13e1c:	b769                	j	13da6 <__sfvwrite_r+0x1f2>
   13e1e:	85e2                	mv	a1,s8
   13e20:	864a                	mv	a2,s2
   13e22:	721000ef          	jal	14d42 <memmove>
   13e26:	401c                	lw	a5,0(s0)
   13e28:	85a2                	mv	a1,s0
   13e2a:	8552                	mv	a0,s4
   13e2c:	97ca                	add	a5,a5,s2
   13e2e:	c01c                	sw	a5,0(s0)
   13e30:	925ff0ef          	jal	13754 <_fflush_r>
   13e34:	d155                	beqz	a0,13dd8 <__sfvwrite_r+0x224>
   13e36:	bf25                	j	13d6e <__sfvwrite_r+0x1ba>
   13e38:	4814                	lw	a3,16(s0)
   13e3a:	02f6e863          	bltu	a3,a5,13e6a <__sfvwrite_r+0x2b6>
   13e3e:	4850                	lw	a2,20(s0)
   13e40:	02c9e563          	bltu	s3,a2,13e6a <__sfvwrite_r+0x2b6>
   13e44:	87ce                	mv	a5,s3
   13e46:	013af363          	bgeu	s5,s3,13e4c <__sfvwrite_r+0x298>
   13e4a:	87d6                	mv	a5,s5
   13e4c:	02c7e6b3          	rem	a3,a5,a2
   13e50:	5058                	lw	a4,36(s0)
   13e52:	4c4c                	lw	a1,28(s0)
   13e54:	865e                	mv	a2,s7
   13e56:	8552                	mv	a0,s4
   13e58:	40d786b3          	sub	a3,a5,a3
   13e5c:	9702                	jalr	a4
   13e5e:	892a                	mv	s2,a0
   13e60:	02a05b63          	blez	a0,13e96 <__sfvwrite_r+0x2e2>
   13e64:	412989b3          	sub	s3,s3,s2
   13e68:	bd55                	j	13d1c <__sfvwrite_r+0x168>
   13e6a:	893a                	mv	s2,a4
   13e6c:	00e9f363          	bgeu	s3,a4,13e72 <__sfvwrite_r+0x2be>
   13e70:	894e                	mv	s2,s3
   13e72:	853e                	mv	a0,a5
   13e74:	864a                	mv	a2,s2
   13e76:	85de                	mv	a1,s7
   13e78:	6cb000ef          	jal	14d42 <memmove>
   13e7c:	4418                	lw	a4,8(s0)
   13e7e:	401c                	lw	a5,0(s0)
   13e80:	41270733          	sub	a4,a4,s2
   13e84:	97ca                	add	a5,a5,s2
   13e86:	c418                	sw	a4,8(s0)
   13e88:	c01c                	sw	a5,0(s0)
   13e8a:	ff69                	bnez	a4,13e64 <__sfvwrite_r+0x2b0>
   13e8c:	85a2                	mv	a1,s0
   13e8e:	8552                	mv	a0,s4
   13e90:	8c5ff0ef          	jal	13754 <_fflush_r>
   13e94:	d961                	beqz	a0,13e64 <__sfvwrite_r+0x2b0>
   13e96:	00c41783          	lh	a5,12(s0)
   13e9a:	4bb2                	lw	s7,12(sp)
   13e9c:	4c22                	lw	s8,8(sp)
   13e9e:	4c92                	lw	s9,4(sp)
   13ea0:	bdd9                	j	13d76 <__sfvwrite_r+0x1c2>
   13ea2:	8c4e                	mv	s8,s3
   13ea4:	8cce                	mv	s9,s3
   13ea6:	bdb1                	j	13d02 <__sfvwrite_r+0x14e>
   13ea8:	865e                	mv	a2,s7
   13eaa:	85e2                	mv	a1,s8
   13eac:	697000ef          	jal	14d42 <memmove>
   13eb0:	4418                	lw	a4,8(s0)
   13eb2:	401c                	lw	a5,0(s0)
   13eb4:	895e                	mv	s2,s7
   13eb6:	41770733          	sub	a4,a4,s7
   13eba:	97de                	add	a5,a5,s7
   13ebc:	c418                	sw	a4,8(s0)
   13ebe:	c01c                	sw	a5,0(s0)
   13ec0:	bf21                	j	13dd8 <__sfvwrite_r+0x224>
   13ec2:	8552                	mv	a0,s4
   13ec4:	62c040ef          	jal	184f0 <_realloc_r>
   13ec8:	8caa                	mv	s9,a0
   13eca:	e20510e3          	bnez	a0,13cea <__sfvwrite_r+0x136>
   13ece:	480c                	lw	a1,16(s0)
   13ed0:	8552                	mv	a0,s4
   13ed2:	7f4020ef          	jal	166c6 <_free_r>
   13ed6:	00c41783          	lh	a5,12(s0)
   13eda:	4731                	li	a4,12
   13edc:	4bb2                	lw	s7,12(sp)
   13ede:	4c22                	lw	s8,8(sp)
   13ee0:	4c92                	lw	s9,4(sp)
   13ee2:	00ea2023          	sw	a4,0(s4)
   13ee6:	f7f7f793          	and	a5,a5,-129
   13eea:	b571                	j	13d76 <__sfvwrite_r+0x1c2>
   13eec:	00198793          	add	a5,s3,1
   13ef0:	8abe                	mv	s5,a5
   13ef2:	bd5d                	j	13da8 <__sfvwrite_r+0x1f4>
   13ef4:	00c41783          	lh	a5,12(s0)
   13ef8:	bdbd                	j	13d76 <__sfvwrite_r+0x1c2>
   13efa:	4731                	li	a4,12
   13efc:	00c41783          	lh	a5,12(s0)
   13f00:	4bb2                	lw	s7,12(sp)
   13f02:	4c22                	lw	s8,8(sp)
   13f04:	4c92                	lw	s9,4(sp)
   13f06:	00ea2023          	sw	a4,0(s4)
   13f0a:	b5b5                	j	13d76 <__sfvwrite_r+0x1c2>

00013f0c <_fwalk_sglue>:
   13f0c:	7179                	add	sp,sp,-48
   13f0e:	d04a                	sw	s2,32(sp)
   13f10:	ce4e                	sw	s3,28(sp)
   13f12:	cc52                	sw	s4,24(sp)
   13f14:	ca56                	sw	s5,20(sp)
   13f16:	c85a                	sw	s6,16(sp)
   13f18:	c65e                	sw	s7,12(sp)
   13f1a:	d606                	sw	ra,44(sp)
   13f1c:	d422                	sw	s0,40(sp)
   13f1e:	d226                	sw	s1,36(sp)
   13f20:	8b2a                	mv	s6,a0
   13f22:	8bae                	mv	s7,a1
   13f24:	8ab2                	mv	s5,a2
   13f26:	4a01                	li	s4,0
   13f28:	4985                	li	s3,1
   13f2a:	597d                	li	s2,-1
   13f2c:	004aa483          	lw	s1,4(s5)
   13f30:	008aa403          	lw	s0,8(s5)
   13f34:	14fd                	add	s1,s1,-1
   13f36:	0204c463          	bltz	s1,13f5e <_fwalk_sglue+0x52>
   13f3a:	00c45783          	lhu	a5,12(s0)
   13f3e:	00f9fb63          	bgeu	s3,a5,13f54 <_fwalk_sglue+0x48>
   13f42:	00e41783          	lh	a5,14(s0)
   13f46:	85a2                	mv	a1,s0
   13f48:	855a                	mv	a0,s6
   13f4a:	01278563          	beq	a5,s2,13f54 <_fwalk_sglue+0x48>
   13f4e:	9b82                	jalr	s7
   13f50:	00aa6a33          	or	s4,s4,a0
   13f54:	14fd                	add	s1,s1,-1
   13f56:	06840413          	add	s0,s0,104
   13f5a:	ff2490e3          	bne	s1,s2,13f3a <_fwalk_sglue+0x2e>
   13f5e:	000aaa83          	lw	s5,0(s5)
   13f62:	fc0a95e3          	bnez	s5,13f2c <_fwalk_sglue+0x20>
   13f66:	50b2                	lw	ra,44(sp)
   13f68:	5422                	lw	s0,40(sp)
   13f6a:	5492                	lw	s1,36(sp)
   13f6c:	5902                	lw	s2,32(sp)
   13f6e:	49f2                	lw	s3,28(sp)
   13f70:	4ad2                	lw	s5,20(sp)
   13f72:	4b42                	lw	s6,16(sp)
   13f74:	4bb2                	lw	s7,12(sp)
   13f76:	8552                	mv	a0,s4
   13f78:	4a62                	lw	s4,24(sp)
   13f7a:	6145                	add	sp,sp,48
   13f7c:	8082                	ret

00013f7e <__swsetup_r>:
   13f7e:	1141                	add	sp,sp,-16
   13f80:	c422                	sw	s0,8(sp)
   13f82:	c226                	sw	s1,4(sp)
   13f84:	c606                	sw	ra,12(sp)
   13f86:	f2c1a783          	lw	a5,-212(gp) # 1d73c <_impure_ptr>
   13f8a:	84aa                	mv	s1,a0
   13f8c:	842e                	mv	s0,a1
   13f8e:	c399                	beqz	a5,13f94 <__swsetup_r+0x16>
   13f90:	5bd8                	lw	a4,52(a5)
   13f92:	c75d                	beqz	a4,14040 <__swsetup_r+0xc2>
   13f94:	00c41783          	lh	a5,12(s0)
   13f98:	0087f713          	and	a4,a5,8
   13f9c:	c721                	beqz	a4,13fe4 <__swsetup_r+0x66>
   13f9e:	4818                	lw	a4,16(s0)
   13fa0:	cf31                	beqz	a4,13ffc <__swsetup_r+0x7e>
   13fa2:	0017f693          	and	a3,a5,1
   13fa6:	ce91                	beqz	a3,13fc2 <__swsetup_r+0x44>
   13fa8:	4854                	lw	a3,20(s0)
   13faa:	00042423          	sw	zero,8(s0)
   13fae:	4501                	li	a0,0
   13fb0:	40d006b3          	neg	a3,a3
   13fb4:	cc14                	sw	a3,24(s0)
   13fb6:	cf11                	beqz	a4,13fd2 <__swsetup_r+0x54>
   13fb8:	40b2                	lw	ra,12(sp)
   13fba:	4422                	lw	s0,8(sp)
   13fbc:	4492                	lw	s1,4(sp)
   13fbe:	0141                	add	sp,sp,16
   13fc0:	8082                	ret
   13fc2:	0027f693          	and	a3,a5,2
   13fc6:	4601                	li	a2,0
   13fc8:	e291                	bnez	a3,13fcc <__swsetup_r+0x4e>
   13fca:	4850                	lw	a2,20(s0)
   13fcc:	c410                	sw	a2,8(s0)
   13fce:	4501                	li	a0,0
   13fd0:	f765                	bnez	a4,13fb8 <__swsetup_r+0x3a>
   13fd2:	0807f713          	and	a4,a5,128
   13fd6:	d36d                	beqz	a4,13fb8 <__swsetup_r+0x3a>
   13fd8:	0407e793          	or	a5,a5,64
   13fdc:	00f41623          	sh	a5,12(s0)
   13fe0:	557d                	li	a0,-1
   13fe2:	bfd9                	j	13fb8 <__swsetup_r+0x3a>
   13fe4:	0107f713          	and	a4,a5,16
   13fe8:	c325                	beqz	a4,14048 <__swsetup_r+0xca>
   13fea:	0047f713          	and	a4,a5,4
   13fee:	e70d                	bnez	a4,14018 <__swsetup_r+0x9a>
   13ff0:	4818                	lw	a4,16(s0)
   13ff2:	0087e793          	or	a5,a5,8
   13ff6:	00f41623          	sh	a5,12(s0)
   13ffa:	f745                	bnez	a4,13fa2 <__swsetup_r+0x24>
   13ffc:	2807f693          	and	a3,a5,640
   14000:	20000613          	li	a2,512
   14004:	f8c68fe3          	beq	a3,a2,13fa2 <__swsetup_r+0x24>
   14008:	85a2                	mv	a1,s0
   1400a:	8526                	mv	a0,s1
   1400c:	5f8030ef          	jal	17604 <__smakebuf_r>
   14010:	00c41783          	lh	a5,12(s0)
   14014:	4818                	lw	a4,16(s0)
   14016:	b771                	j	13fa2 <__swsetup_r+0x24>
   14018:	580c                	lw	a1,48(s0)
   1401a:	cd81                	beqz	a1,14032 <__swsetup_r+0xb4>
   1401c:	04040713          	add	a4,s0,64
   14020:	00e58763          	beq	a1,a4,1402e <__swsetup_r+0xb0>
   14024:	8526                	mv	a0,s1
   14026:	6a0020ef          	jal	166c6 <_free_r>
   1402a:	00c41783          	lh	a5,12(s0)
   1402e:	02042823          	sw	zero,48(s0)
   14032:	4818                	lw	a4,16(s0)
   14034:	fdb7f793          	and	a5,a5,-37
   14038:	00042223          	sw	zero,4(s0)
   1403c:	c018                	sw	a4,0(s0)
   1403e:	bf55                	j	13ff2 <__swsetup_r+0x74>
   14040:	853e                	mv	a0,a5
   14042:	ad9ff0ef          	jal	13b1a <__sinit>
   14046:	b7b9                	j	13f94 <__swsetup_r+0x16>
   14048:	4725                	li	a4,9
   1404a:	c098                	sw	a4,0(s1)
   1404c:	0407e793          	or	a5,a5,64
   14050:	00f41623          	sh	a5,12(s0)
   14054:	557d                	li	a0,-1
   14056:	b78d                	j	13fb8 <__swsetup_r+0x3a>

00014058 <memchr>:
   14058:	00357793          	and	a5,a0,3
   1405c:	0ff5f693          	zext.b	a3,a1
   14060:	c395                	beqz	a5,14084 <memchr+0x2c>
   14062:	fff60793          	add	a5,a2,-1
   14066:	c605                	beqz	a2,1408e <memchr+0x36>
   14068:	567d                	li	a2,-1
   1406a:	a801                	j	1407a <memchr+0x22>
   1406c:	0505                	add	a0,a0,1
   1406e:	00357713          	and	a4,a0,3
   14072:	cb11                	beqz	a4,14086 <memchr+0x2e>
   14074:	17fd                	add	a5,a5,-1
   14076:	00c78c63          	beq	a5,a2,1408e <memchr+0x36>
   1407a:	00054703          	lbu	a4,0(a0)
   1407e:	fed717e3          	bne	a4,a3,1406c <memchr+0x14>
   14082:	8082                	ret
   14084:	87b2                	mv	a5,a2
   14086:	470d                	li	a4,3
   14088:	00f76563          	bltu	a4,a5,14092 <memchr+0x3a>
   1408c:	e3b9                	bnez	a5,140d2 <memchr+0x7a>
   1408e:	4501                	li	a0,0
   14090:	8082                	ret
   14092:	0ff5f593          	zext.b	a1,a1
   14096:	00859713          	sll	a4,a1,0x8
   1409a:	95ba                	add	a1,a1,a4
   1409c:	01059713          	sll	a4,a1,0x10
   140a0:	feff08b7          	lui	a7,0xfeff0
   140a4:	80808837          	lui	a6,0x80808
   140a8:	95ba                	add	a1,a1,a4
   140aa:	eff88893          	add	a7,a7,-257 # fefefeff <__BSS_END__+0xfefd21b7>
   140ae:	08080813          	add	a6,a6,128 # 80808080 <__BSS_END__+0x807ea338>
   140b2:	430d                	li	t1,3
   140b4:	a029                	j	140be <memchr+0x66>
   140b6:	17f1                	add	a5,a5,-4
   140b8:	0511                	add	a0,a0,4
   140ba:	fcf379e3          	bgeu	t1,a5,1408c <memchr+0x34>
   140be:	4118                	lw	a4,0(a0)
   140c0:	8f2d                	xor	a4,a4,a1
   140c2:	01170633          	add	a2,a4,a7
   140c6:	fff74713          	not	a4,a4
   140ca:	8f71                	and	a4,a4,a2
   140cc:	01077733          	and	a4,a4,a6
   140d0:	d37d                	beqz	a4,140b6 <memchr+0x5e>
   140d2:	97aa                	add	a5,a5,a0
   140d4:	a021                	j	140dc <memchr+0x84>
   140d6:	0505                	add	a0,a0,1
   140d8:	faa78be3          	beq	a5,a0,1408e <memchr+0x36>
   140dc:	00054703          	lbu	a4,0(a0)
   140e0:	fed71be3          	bne	a4,a3,140d6 <memchr+0x7e>
   140e4:	8082                	ret

000140e6 <__fputwc>:
   140e6:	7139                	add	sp,sp,-64
   140e8:	dc22                	sw	s0,56(sp)
   140ea:	d452                	sw	s4,40(sp)
   140ec:	d256                	sw	s5,36(sp)
   140ee:	de06                	sw	ra,60(sp)
   140f0:	da26                	sw	s1,52(sp)
   140f2:	d64e                	sw	s3,44(sp)
   140f4:	8a2a                	mv	s4,a0
   140f6:	8aae                	mv	s5,a1
   140f8:	8432                	mv	s0,a2
   140fa:	425000ef          	jal	14d1e <__locale_mb_cur_max>
   140fe:	4785                	li	a5,1
   14100:	02f51063          	bne	a0,a5,14120 <__fputwc+0x3a>
   14104:	fffa8793          	add	a5,s5,-1
   14108:	0fe00713          	li	a4,254
   1410c:	00f76a63          	bltu	a4,a5,14120 <__fputwc+0x3a>
   14110:	d84a                	sw	s2,48(sp)
   14112:	d05a                	sw	s6,32(sp)
   14114:	ce5e                	sw	s7,28(sp)
   14116:	01510423          	sb	s5,8(sp)
   1411a:	4985                	li	s3,1
   1411c:	0024                	add	s1,sp,8
   1411e:	a00d                	j	14140 <__fputwc+0x5a>
   14120:	0024                	add	s1,sp,8
   14122:	05c40693          	add	a3,s0,92
   14126:	8656                	mv	a2,s5
   14128:	85a6                	mv	a1,s1
   1412a:	8552                	mv	a0,s4
   1412c:	184010ef          	jal	152b0 <_wcrtomb_r>
   14130:	57fd                	li	a5,-1
   14132:	89aa                	mv	s3,a0
   14134:	06f50f63          	beq	a0,a5,141b2 <__fputwc+0xcc>
   14138:	c525                	beqz	a0,141a0 <__fputwc+0xba>
   1413a:	d84a                	sw	s2,48(sp)
   1413c:	d05a                	sw	s6,32(sp)
   1413e:	ce5e                	sw	s7,28(sp)
   14140:	4901                	li	s2,0
   14142:	5b7d                	li	s6,-1
   14144:	4ba9                	li	s7,10
   14146:	a819                	j	1415c <__fputwc+0x76>
   14148:	401c                	lw	a5,0(s0)
   1414a:	00178693          	add	a3,a5,1
   1414e:	c014                	sw	a3,0(s0)
   14150:	00e78023          	sb	a4,0(a5)
   14154:	0905                	add	s2,s2,1
   14156:	0485                	add	s1,s1,1
   14158:	05397163          	bgeu	s2,s3,1419a <__fputwc+0xb4>
   1415c:	441c                	lw	a5,8(s0)
   1415e:	0004c703          	lbu	a4,0(s1)
   14162:	17fd                	add	a5,a5,-1
   14164:	c41c                	sw	a5,8(s0)
   14166:	fe07d1e3          	bgez	a5,14148 <__fputwc+0x62>
   1416a:	4c14                	lw	a3,24(s0)
   1416c:	8622                	mv	a2,s0
   1416e:	85ba                	mv	a1,a4
   14170:	8552                	mv	a0,s4
   14172:	00d7c463          	blt	a5,a3,1417a <__fputwc+0x94>
   14176:	fd7719e3          	bne	a4,s7,14148 <__fputwc+0x62>
   1417a:	433040ef          	jal	18dac <__swbuf_r>
   1417e:	fd651be3          	bne	a0,s6,14154 <__fputwc+0x6e>
   14182:	5942                	lw	s2,48(sp)
   14184:	5b02                	lw	s6,32(sp)
   14186:	4bf2                	lw	s7,28(sp)
   14188:	50f2                	lw	ra,60(sp)
   1418a:	5462                	lw	s0,56(sp)
   1418c:	54d2                	lw	s1,52(sp)
   1418e:	59b2                	lw	s3,44(sp)
   14190:	5a22                	lw	s4,40(sp)
   14192:	5a92                	lw	s5,36(sp)
   14194:	557d                	li	a0,-1
   14196:	6121                	add	sp,sp,64
   14198:	8082                	ret
   1419a:	5942                	lw	s2,48(sp)
   1419c:	5b02                	lw	s6,32(sp)
   1419e:	4bf2                	lw	s7,28(sp)
   141a0:	50f2                	lw	ra,60(sp)
   141a2:	5462                	lw	s0,56(sp)
   141a4:	54d2                	lw	s1,52(sp)
   141a6:	59b2                	lw	s3,44(sp)
   141a8:	5a22                	lw	s4,40(sp)
   141aa:	8556                	mv	a0,s5
   141ac:	5a92                	lw	s5,36(sp)
   141ae:	6121                	add	sp,sp,64
   141b0:	8082                	ret
   141b2:	00c45783          	lhu	a5,12(s0)
   141b6:	0407e793          	or	a5,a5,64
   141ba:	00f41623          	sh	a5,12(s0)
   141be:	b7e9                	j	14188 <__fputwc+0xa2>

000141c0 <_fputwc_r>:
   141c0:	527c                	lw	a5,100(a2)
   141c2:	1101                	add	sp,sp,-32
   141c4:	cc22                	sw	s0,24(sp)
   141c6:	ca26                	sw	s1,20(sp)
   141c8:	0017f713          	and	a4,a5,1
   141cc:	ce06                	sw	ra,28(sp)
   141ce:	00c61783          	lh	a5,12(a2)
   141d2:	8432                	mv	s0,a2
   141d4:	84aa                	mv	s1,a0
   141d6:	e701                	bnez	a4,141de <_fputwc_r+0x1e>
   141d8:	2007f713          	and	a4,a5,512
   141dc:	cb21                	beqz	a4,1422c <_fputwc_r+0x6c>
   141de:	01279713          	sll	a4,a5,0x12
   141e2:	00074a63          	bltz	a4,141f6 <_fputwc_r+0x36>
   141e6:	5078                	lw	a4,100(s0)
   141e8:	6689                	lui	a3,0x2
   141ea:	8fd5                	or	a5,a5,a3
   141ec:	6689                	lui	a3,0x2
   141ee:	8f55                	or	a4,a4,a3
   141f0:	00f41623          	sh	a5,12(s0)
   141f4:	d078                	sw	a4,100(s0)
   141f6:	8526                	mv	a0,s1
   141f8:	8622                	mv	a2,s0
   141fa:	35f5                	jal	140e6 <__fputwc>
   141fc:	507c                	lw	a5,100(s0)
   141fe:	84aa                	mv	s1,a0
   14200:	8b85                	and	a5,a5,1
   14202:	e791                	bnez	a5,1420e <_fputwc_r+0x4e>
   14204:	00c45783          	lhu	a5,12(s0)
   14208:	2007f793          	and	a5,a5,512
   1420c:	c799                	beqz	a5,1421a <_fputwc_r+0x5a>
   1420e:	40f2                	lw	ra,28(sp)
   14210:	4462                	lw	s0,24(sp)
   14212:	8526                	mv	a0,s1
   14214:	44d2                	lw	s1,20(sp)
   14216:	6105                	add	sp,sp,32
   14218:	8082                	ret
   1421a:	4c28                	lw	a0,88(s0)
   1421c:	092010ef          	jal	152ae <__retarget_lock_release_recursive>
   14220:	40f2                	lw	ra,28(sp)
   14222:	4462                	lw	s0,24(sp)
   14224:	8526                	mv	a0,s1
   14226:	44d2                	lw	s1,20(sp)
   14228:	6105                	add	sp,sp,32
   1422a:	8082                	ret
   1422c:	4e28                	lw	a0,88(a2)
   1422e:	c62e                	sw	a1,12(sp)
   14230:	072010ef          	jal	152a2 <__retarget_lock_acquire_recursive>
   14234:	00c41783          	lh	a5,12(s0)
   14238:	45b2                	lw	a1,12(sp)
   1423a:	b755                	j	141de <_fputwc_r+0x1e>

0001423c <fputwc>:
   1423c:	1101                	add	sp,sp,-32
   1423e:	cc22                	sw	s0,24(sp)
   14240:	ca26                	sw	s1,20(sp)
   14242:	ce06                	sw	ra,28(sp)
   14244:	f2c1a483          	lw	s1,-212(gp) # 1d73c <_impure_ptr>
   14248:	842e                	mv	s0,a1
   1424a:	85aa                	mv	a1,a0
   1424c:	c099                	beqz	s1,14252 <fputwc+0x16>
   1424e:	58dc                	lw	a5,52(s1)
   14250:	cba5                	beqz	a5,142c0 <fputwc+0x84>
   14252:	5078                	lw	a4,100(s0)
   14254:	00c41783          	lh	a5,12(s0)
   14258:	8b05                	and	a4,a4,1
   1425a:	e701                	bnez	a4,14262 <fputwc+0x26>
   1425c:	2007f713          	and	a4,a5,512
   14260:	cb21                	beqz	a4,142b0 <fputwc+0x74>
   14262:	01279713          	sll	a4,a5,0x12
   14266:	00074a63          	bltz	a4,1427a <fputwc+0x3e>
   1426a:	5078                	lw	a4,100(s0)
   1426c:	6689                	lui	a3,0x2
   1426e:	8fd5                	or	a5,a5,a3
   14270:	6689                	lui	a3,0x2
   14272:	8f55                	or	a4,a4,a3
   14274:	00f41623          	sh	a5,12(s0)
   14278:	d078                	sw	a4,100(s0)
   1427a:	8526                	mv	a0,s1
   1427c:	8622                	mv	a2,s0
   1427e:	35a5                	jal	140e6 <__fputwc>
   14280:	507c                	lw	a5,100(s0)
   14282:	84aa                	mv	s1,a0
   14284:	8b85                	and	a5,a5,1
   14286:	e791                	bnez	a5,14292 <fputwc+0x56>
   14288:	00c45783          	lhu	a5,12(s0)
   1428c:	2007f793          	and	a5,a5,512
   14290:	c799                	beqz	a5,1429e <fputwc+0x62>
   14292:	40f2                	lw	ra,28(sp)
   14294:	4462                	lw	s0,24(sp)
   14296:	8526                	mv	a0,s1
   14298:	44d2                	lw	s1,20(sp)
   1429a:	6105                	add	sp,sp,32
   1429c:	8082                	ret
   1429e:	4c28                	lw	a0,88(s0)
   142a0:	00e010ef          	jal	152ae <__retarget_lock_release_recursive>
   142a4:	40f2                	lw	ra,28(sp)
   142a6:	4462                	lw	s0,24(sp)
   142a8:	8526                	mv	a0,s1
   142aa:	44d2                	lw	s1,20(sp)
   142ac:	6105                	add	sp,sp,32
   142ae:	8082                	ret
   142b0:	4c28                	lw	a0,88(s0)
   142b2:	c62e                	sw	a1,12(sp)
   142b4:	7ef000ef          	jal	152a2 <__retarget_lock_acquire_recursive>
   142b8:	00c41783          	lh	a5,12(s0)
   142bc:	45b2                	lw	a1,12(sp)
   142be:	b755                	j	14262 <fputwc+0x26>
   142c0:	c62a                	sw	a0,12(sp)
   142c2:	8526                	mv	a0,s1
   142c4:	857ff0ef          	jal	13b1a <__sinit>
   142c8:	45b2                	lw	a1,12(sp)
   142ca:	b761                	j	14252 <fputwc+0x16>

000142cc <strncpy>:
   142cc:	00a5e7b3          	or	a5,a1,a0
   142d0:	8b8d                	and	a5,a5,3
   142d2:	e781                	bnez	a5,142da <strncpy+0xe>
   142d4:	478d                	li	a5,3
   142d6:	02c7eb63          	bltu	a5,a2,1430c <strncpy+0x40>
   142da:	872a                	mv	a4,a0
   142dc:	a811                	j	142f0 <strncpy+0x24>
   142de:	fff5c683          	lbu	a3,-1(a1)
   142e2:	fff60813          	add	a6,a2,-1
   142e6:	fed78fa3          	sb	a3,-1(a5)
   142ea:	ca81                	beqz	a3,142fa <strncpy+0x2e>
   142ec:	873e                	mv	a4,a5
   142ee:	8642                	mv	a2,a6
   142f0:	0585                	add	a1,a1,1
   142f2:	00170793          	add	a5,a4,1
   142f6:	f665                	bnez	a2,142de <strncpy+0x12>
   142f8:	8082                	ret
   142fa:	9732                	add	a4,a4,a2
   142fc:	04080463          	beqz	a6,14344 <strncpy+0x78>
   14300:	0785                	add	a5,a5,1
   14302:	fe078fa3          	sb	zero,-1(a5)
   14306:	fee79de3          	bne	a5,a4,14300 <strncpy+0x34>
   1430a:	8082                	ret
   1430c:	feff0337          	lui	t1,0xfeff0
   14310:	808088b7          	lui	a7,0x80808
   14314:	872a                	mv	a4,a0
   14316:	eff30313          	add	t1,t1,-257 # fefefeff <__BSS_END__+0xfefd21b7>
   1431a:	08088893          	add	a7,a7,128 # 80808080 <__BSS_END__+0x807ea338>
   1431e:	4e0d                	li	t3,3
   14320:	a039                	j	1432e <strncpy+0x62>
   14322:	c314                	sw	a3,0(a4)
   14324:	1671                	add	a2,a2,-4
   14326:	0711                	add	a4,a4,4
   14328:	0591                	add	a1,a1,4
   1432a:	fcce73e3          	bgeu	t3,a2,142f0 <strncpy+0x24>
   1432e:	4194                	lw	a3,0(a1)
   14330:	006687b3          	add	a5,a3,t1
   14334:	fff6c813          	not	a6,a3
   14338:	0107f7b3          	and	a5,a5,a6
   1433c:	0117f7b3          	and	a5,a5,a7
   14340:	d3ed                	beqz	a5,14322 <strncpy+0x56>
   14342:	b77d                	j	142f0 <strncpy+0x24>
   14344:	8082                	ret

00014346 <currentlocale>:
   14346:	1101                	add	sp,sp,-32
   14348:	ca26                	sw	s1,20(sp)
   1434a:	00009597          	auipc	a1,0x9
   1434e:	cf258593          	add	a1,a1,-782 # 1d03c <__global_locale+0x20>
   14352:	29818513          	add	a0,gp,664 # 1daa8 <global_locale_string>
   14356:	00009497          	auipc	s1,0x9
   1435a:	d0648493          	add	s1,s1,-762 # 1d05c <__global_locale+0x40>
   1435e:	cc22                	sw	s0,24(sp)
   14360:	c84a                	sw	s2,16(sp)
   14362:	c64e                	sw	s3,12(sp)
   14364:	ce06                	sw	ra,28(sp)
   14366:	8ec18913          	add	s2,gp,-1812 # 1d0fc <__global_locale+0xe0>
   1436a:	4f7000ef          	jal	15060 <strcpy>
   1436e:	8426                	mv	s0,s1
   14370:	00009997          	auipc	s3,0x9
   14374:	ccc98993          	add	s3,s3,-820 # 1d03c <__global_locale+0x20>
   14378:	85a2                	mv	a1,s0
   1437a:	854e                	mv	a0,s3
   1437c:	55d000ef          	jal	150d8 <strcmp>
   14380:	02040413          	add	s0,s0,32
   14384:	ed01                	bnez	a0,1439c <currentlocale+0x56>
   14386:	ff2419e3          	bne	s0,s2,14378 <currentlocale+0x32>
   1438a:	40f2                	lw	ra,28(sp)
   1438c:	4462                	lw	s0,24(sp)
   1438e:	44d2                	lw	s1,20(sp)
   14390:	4942                	lw	s2,16(sp)
   14392:	49b2                	lw	s3,12(sp)
   14394:	29818513          	add	a0,gp,664 # 1daa8 <global_locale_string>
   14398:	6105                	add	sp,sp,32
   1439a:	8082                	ret
   1439c:	00008997          	auipc	s3,0x8
   143a0:	80498993          	add	s3,s3,-2044 # 1bba0 <__clzsi2+0xc0>
   143a4:	29818413          	add	s0,gp,664 # 1daa8 <global_locale_string>
   143a8:	85ce                	mv	a1,s3
   143aa:	8522                	mv	a0,s0
   143ac:	365040ef          	jal	18f10 <strcat>
   143b0:	85a6                	mv	a1,s1
   143b2:	8522                	mv	a0,s0
   143b4:	02048493          	add	s1,s1,32
   143b8:	359040ef          	jal	18f10 <strcat>
   143bc:	ff2496e3          	bne	s1,s2,143a8 <currentlocale+0x62>
   143c0:	40f2                	lw	ra,28(sp)
   143c2:	4462                	lw	s0,24(sp)
   143c4:	44d2                	lw	s1,20(sp)
   143c6:	4942                	lw	s2,16(sp)
   143c8:	49b2                	lw	s3,12(sp)
   143ca:	29818513          	add	a0,gp,664 # 1daa8 <global_locale_string>
   143ce:	6105                	add	sp,sp,32
   143d0:	8082                	ret

000143d2 <__loadlocale>:
   143d2:	711d                	add	sp,sp,-96
   143d4:	caa6                	sw	s1,84(sp)
   143d6:	00559493          	sll	s1,a1,0x5
   143da:	94aa                	add	s1,s1,a0
   143dc:	c8ca                	sw	s2,80(sp)
   143de:	c6ce                	sw	s3,76(sp)
   143e0:	892a                	mv	s2,a0
   143e2:	89ae                	mv	s3,a1
   143e4:	8532                	mv	a0,a2
   143e6:	85a6                	mv	a1,s1
   143e8:	cca2                	sw	s0,88(sp)
   143ea:	ce86                	sw	ra,92(sp)
   143ec:	8432                	mv	s0,a2
   143ee:	4eb000ef          	jal	150d8 <strcmp>
   143f2:	e909                	bnez	a0,14404 <__loadlocale+0x32>
   143f4:	40f6                	lw	ra,92(sp)
   143f6:	4466                	lw	s0,88(sp)
   143f8:	4946                	lw	s2,80(sp)
   143fa:	49b6                	lw	s3,76(sp)
   143fc:	8526                	mv	a0,s1
   143fe:	44d6                	lw	s1,84(sp)
   14400:	6125                	add	sp,sp,96
   14402:	8082                	ret
   14404:	00007597          	auipc	a1,0x7
   14408:	7a058593          	add	a1,a1,1952 # 1bba4 <__clzsi2+0xc4>
   1440c:	8522                	mv	a0,s0
   1440e:	c4d2                	sw	s4,72(sp)
   14410:	c2d6                	sw	s5,68(sp)
   14412:	4c7000ef          	jal	150d8 <strcmp>
   14416:	cd2d                	beqz	a0,14490 <__loadlocale+0xbe>
   14418:	00007597          	auipc	a1,0x7
   1441c:	79458593          	add	a1,a1,1940 # 1bbac <__clzsi2+0xcc>
   14420:	8522                	mv	a0,s0
   14422:	4b7000ef          	jal	150d8 <strcmp>
   14426:	c541                	beqz	a0,144ae <__loadlocale+0xdc>
   14428:	00044783          	lbu	a5,0(s0)
   1442c:	04300713          	li	a4,67
   14430:	12e78b63          	beq	a5,a4,14566 <__loadlocale+0x194>
   14434:	f9f78793          	add	a5,a5,-97
   14438:	0ff7f793          	zext.b	a5,a5
   1443c:	4765                	li	a4,25
   1443e:	04f76063          	bltu	a4,a5,1447e <__loadlocale+0xac>
   14442:	00144783          	lbu	a5,1(s0)
   14446:	f9f78793          	add	a5,a5,-97
   1444a:	0ff7f793          	zext.b	a5,a5
   1444e:	02f76863          	bltu	a4,a5,1447e <__loadlocale+0xac>
   14452:	00244783          	lbu	a5,2(s0)
   14456:	00240a93          	add	s5,s0,2
   1445a:	f9f78693          	add	a3,a5,-97
   1445e:	0ff6f693          	zext.b	a3,a3
   14462:	02d77263          	bgeu	a4,a3,14486 <__loadlocale+0xb4>
   14466:	05f00713          	li	a4,95
   1446a:	18e78363          	beq	a5,a4,145f0 <__loadlocale+0x21e>
   1446e:	02e00713          	li	a4,46
   14472:	52e78f63          	beq	a5,a4,149b0 <__loadlocale+0x5de>
   14476:	0bf7f793          	and	a5,a5,191
   1447a:	12078663          	beqz	a5,145a6 <__loadlocale+0x1d4>
   1447e:	4a26                	lw	s4,72(sp)
   14480:	4a96                	lw	s5,68(sp)
   14482:	4481                	li	s1,0
   14484:	bf85                	j	143f4 <__loadlocale+0x22>
   14486:	00344783          	lbu	a5,3(s0)
   1448a:	00340a93          	add	s5,s0,3
   1448e:	bfe1                	j	14466 <__loadlocale+0x94>
   14490:	00007597          	auipc	a1,0x7
   14494:	71c58593          	add	a1,a1,1820 # 1bbac <__clzsi2+0xcc>
   14498:	8522                	mv	a0,s0
   1449a:	3c7000ef          	jal	15060 <strcpy>
   1449e:	00007597          	auipc	a1,0x7
   144a2:	70e58593          	add	a1,a1,1806 # 1bbac <__clzsi2+0xcc>
   144a6:	8522                	mv	a0,s0
   144a8:	431000ef          	jal	150d8 <strcmp>
   144ac:	fd35                	bnez	a0,14428 <__loadlocale+0x56>
   144ae:	01010a13          	add	s4,sp,16
   144b2:	00007597          	auipc	a1,0x7
   144b6:	6fe58593          	add	a1,a1,1790 # 1bbb0 <__clzsi2+0xd0>
   144ba:	8552                	mv	a0,s4
   144bc:	c0da                	sw	s6,64(sp)
   144be:	de5e                	sw	s7,60(sp)
   144c0:	3a1000ef          	jal	15060 <strcpy>
   144c4:	4a81                	li	s5,0
   144c6:	4b01                	li	s6,0
   144c8:	4b81                	li	s7,0
   144ca:	01014783          	lbu	a5,16(sp)
   144ce:	03400713          	li	a4,52
   144d2:	fbf78793          	add	a5,a5,-65
   144d6:	0ff7f793          	zext.b	a5,a5
   144da:	10f76863          	bltu	a4,a5,145ea <__loadlocale+0x218>
   144de:	00008717          	auipc	a4,0x8
   144e2:	d6a70713          	add	a4,a4,-662 # 1c248 <blanks.1+0x10>
   144e6:	078a                	sll	a5,a5,0x2
   144e8:	97ba                	add	a5,a5,a4
   144ea:	439c                	lw	a5,0(a5)
   144ec:	dc62                	sw	s8,56(sp)
   144ee:	da66                	sw	s9,52(sp)
   144f0:	97ba                	add	a5,a5,a4
   144f2:	d86a                	sw	s10,48(sp)
   144f4:	8782                	jr	a5
   144f6:	01114783          	lbu	a5,17(sp)
   144fa:	05000713          	li	a4,80
   144fe:	0df7f793          	and	a5,a5,223
   14502:	04e79c63          	bne	a5,a4,1455a <__loadlocale+0x188>
   14506:	4609                	li	a2,2
   14508:	00007597          	auipc	a1,0x7
   1450c:	72058593          	add	a1,a1,1824 # 1bc28 <__clzsi2+0x148>
   14510:	8552                	mv	a0,s4
   14512:	3b6d                	jal	142cc <strncpy>
   14514:	4629                	li	a2,10
   14516:	006c                	add	a1,sp,12
   14518:	01210513          	add	a0,sp,18
   1451c:	526040ef          	jal	18a42 <strtol>
   14520:	47b2                	lw	a5,12(sp)
   14522:	0007c783          	lbu	a5,0(a5)
   14526:	eb95                	bnez	a5,1455a <__loadlocale+0x188>
   14528:	3a400793          	li	a5,932
   1452c:	1ef50463          	beq	a0,a5,14714 <__loadlocale+0x342>
   14530:	48a7cb63          	blt	a5,a0,149c6 <__loadlocale+0x5f4>
   14534:	36a00793          	li	a5,874
   14538:	02a7c163          	blt	a5,a0,1455a <__loadlocale+0x188>
   1453c:	35100793          	li	a5,849
   14540:	48a7dd63          	bge	a5,a0,149da <__loadlocale+0x608>
   14544:	010117b7          	lui	a5,0x1011
   14548:	cae50513          	add	a0,a0,-850
   1454c:	1a578793          	add	a5,a5,421 # 10111a5 <__BSS_END__+0xff345d>
   14550:	00a7d7b3          	srl	a5,a5,a0
   14554:	8b85                	and	a5,a5,1
   14556:	18079563          	bnez	a5,146e0 <__loadlocale+0x30e>
   1455a:	4b06                	lw	s6,64(sp)
   1455c:	5bf2                	lw	s7,60(sp)
   1455e:	5c62                	lw	s8,56(sp)
   14560:	5cd2                	lw	s9,52(sp)
   14562:	5d42                	lw	s10,48(sp)
   14564:	bf29                	j	1447e <__loadlocale+0xac>
   14566:	00144783          	lbu	a5,1(s0)
   1456a:	4705                	li	a4,1
   1456c:	fd378793          	add	a5,a5,-45
   14570:	0ff7f793          	zext.b	a5,a5
   14574:	f0f765e3          	bltu	a4,a5,1447e <__loadlocale+0xac>
   14578:	c0da                	sw	s6,64(sp)
   1457a:	de5e                	sw	s7,60(sp)
   1457c:	00240a93          	add	s5,s0,2
   14580:	01010a13          	add	s4,sp,16
   14584:	85d6                	mv	a1,s5
   14586:	8552                	mv	a0,s4
   14588:	2d9000ef          	jal	15060 <strcpy>
   1458c:	04000593          	li	a1,64
   14590:	8552                	mv	a0,s4
   14592:	1db040ef          	jal	18f6c <strchr>
   14596:	c119                	beqz	a0,1459c <__loadlocale+0x1ca>
   14598:	00050023          	sb	zero,0(a0)
   1459c:	8552                	mv	a0,s4
   1459e:	25f000ef          	jal	14ffc <strlen>
   145a2:	9aaa                	add	s5,s5,a0
   145a4:	a821                	j	145bc <__loadlocale+0x1ea>
   145a6:	01010a13          	add	s4,sp,16
   145aa:	00007597          	auipc	a1,0x7
   145ae:	60e58593          	add	a1,a1,1550 # 1bbb8 <__clzsi2+0xd8>
   145b2:	8552                	mv	a0,s4
   145b4:	c0da                	sw	s6,64(sp)
   145b6:	de5e                	sw	s7,60(sp)
   145b8:	2a9000ef          	jal	15060 <strcpy>
   145bc:	000ac703          	lbu	a4,0(s5)
   145c0:	04000793          	li	a5,64
   145c4:	f0f710e3          	bne	a4,a5,144c4 <__loadlocale+0xf2>
   145c8:	dc62                	sw	s8,56(sp)
   145ca:	001a8c13          	add	s8,s5,1
   145ce:	00007597          	auipc	a1,0x7
   145d2:	5f658593          	add	a1,a1,1526 # 1bbc4 <__clzsi2+0xe4>
   145d6:	8562                	mv	a0,s8
   145d8:	301000ef          	jal	150d8 <strcmp>
   145dc:	8b2a                	mv	s6,a0
   145de:	4a81                	li	s5,0
   145e0:	4b85                	li	s7,1
   145e2:	34051b63          	bnez	a0,14938 <__loadlocale+0x566>
   145e6:	5c62                	lw	s8,56(sp)
   145e8:	b5cd                	j	144ca <__loadlocale+0xf8>
   145ea:	4b06                	lw	s6,64(sp)
   145ec:	5bf2                	lw	s7,60(sp)
   145ee:	bd41                	j	1447e <__loadlocale+0xac>
   145f0:	001ac783          	lbu	a5,1(s5)
   145f4:	4765                	li	a4,25
   145f6:	fbf78793          	add	a5,a5,-65
   145fa:	0ff7f793          	zext.b	a5,a5
   145fe:	e8f760e3          	bltu	a4,a5,1447e <__loadlocale+0xac>
   14602:	002ac783          	lbu	a5,2(s5)
   14606:	fbf78793          	add	a5,a5,-65
   1460a:	0ff7f793          	zext.b	a5,a5
   1460e:	e6f768e3          	bltu	a4,a5,1447e <__loadlocale+0xac>
   14612:	003ac783          	lbu	a5,3(s5)
   14616:	0a8d                	add	s5,s5,3
   14618:	bd99                	j	1446e <__loadlocale+0x9c>
   1461a:	00007597          	auipc	a1,0x7
   1461e:	5ca58593          	add	a1,a1,1482 # 1bbe4 <__clzsi2+0x104>
   14622:	8552                	mv	a0,s4
   14624:	097040ef          	jal	18eba <strcasecmp>
   14628:	c909                	beqz	a0,1463a <__loadlocale+0x268>
   1462a:	00007597          	auipc	a1,0x7
   1462e:	5c258593          	add	a1,a1,1474 # 1bbec <__clzsi2+0x10c>
   14632:	8552                	mv	a0,s4
   14634:	087040ef          	jal	18eba <strcasecmp>
   14638:	f10d                	bnez	a0,1455a <__loadlocale+0x188>
   1463a:	00007597          	auipc	a1,0x7
   1463e:	5aa58593          	add	a1,a1,1450 # 1bbe4 <__clzsi2+0x104>
   14642:	8552                	mv	a0,s4
   14644:	21d000ef          	jal	15060 <strcpy>
   14648:	00003c97          	auipc	s9,0x3
   1464c:	97ec8c93          	add	s9,s9,-1666 # 16fc6 <__utf8_mbtowc>
   14650:	00004d17          	auipc	s10,0x4
   14654:	506d0d13          	add	s10,s10,1286 # 18b56 <__utf8_wctomb>
   14658:	4c19                	li	s8,6
   1465a:	4789                	li	a5,2
   1465c:	30f98663          	beq	s3,a5,14968 <__loadlocale+0x596>
   14660:	4799                	li	a5,6
   14662:	00f99763          	bne	s3,a5,14670 <__loadlocale+0x29e>
   14666:	85d2                	mv	a1,s4
   14668:	14a90513          	add	a0,s2,330
   1466c:	1f5000ef          	jal	15060 <strcpy>
   14670:	85a2                	mv	a1,s0
   14672:	8526                	mv	a0,s1
   14674:	1ed000ef          	jal	15060 <strcpy>
   14678:	40f6                	lw	ra,92(sp)
   1467a:	4466                	lw	s0,88(sp)
   1467c:	84aa                	mv	s1,a0
   1467e:	4a26                	lw	s4,72(sp)
   14680:	4a96                	lw	s5,68(sp)
   14682:	4b06                	lw	s6,64(sp)
   14684:	5bf2                	lw	s7,60(sp)
   14686:	5c62                	lw	s8,56(sp)
   14688:	5cd2                	lw	s9,52(sp)
   1468a:	5d42                	lw	s10,48(sp)
   1468c:	4946                	lw	s2,80(sp)
   1468e:	49b6                	lw	s3,76(sp)
   14690:	8526                	mv	a0,s1
   14692:	44d6                	lw	s1,84(sp)
   14694:	6125                	add	sp,sp,96
   14696:	8082                	ret
   14698:	460d                	li	a2,3
   1469a:	00007597          	auipc	a1,0x7
   1469e:	5d258593          	add	a1,a1,1490 # 1bc6c <__clzsi2+0x18c>
   146a2:	8552                	mv	a0,s4
   146a4:	1e7040ef          	jal	1908a <strncasecmp>
   146a8:	ea0519e3          	bnez	a0,1455a <__loadlocale+0x188>
   146ac:	01314503          	lbu	a0,19(sp)
   146b0:	00007597          	auipc	a1,0x7
   146b4:	5c058593          	add	a1,a1,1472 # 1bc70 <__clzsi2+0x190>
   146b8:	fd350513          	add	a0,a0,-45
   146bc:	00153513          	seqz	a0,a0
   146c0:	03050793          	add	a5,a0,48
   146c4:	00278533          	add	a0,a5,sp
   146c8:	150d                	add	a0,a0,-29
   146ca:	20f000ef          	jal	150d8 <strcmp>
   146ce:	e80516e3          	bnez	a0,1455a <__loadlocale+0x188>
   146d2:	00007597          	auipc	a1,0x7
   146d6:	5a258593          	add	a1,a1,1442 # 1bc74 <__clzsi2+0x194>
   146da:	8552                	mv	a0,s4
   146dc:	185000ef          	jal	15060 <strcpy>
   146e0:	00003c97          	auipc	s9,0x3
   146e4:	8a6c8c93          	add	s9,s9,-1882 # 16f86 <__ascii_mbtowc>
   146e8:	00004d17          	auipc	s10,0x4
   146ec:	44ed0d13          	add	s10,s10,1102 # 18b36 <__ascii_wctomb>
   146f0:	4c05                	li	s8,1
   146f2:	b7a5                	j	1465a <__loadlocale+0x288>
   146f4:	00007597          	auipc	a1,0x7
   146f8:	51458593          	add	a1,a1,1300 # 1bc08 <__clzsi2+0x128>
   146fc:	8552                	mv	a0,s4
   146fe:	7bc040ef          	jal	18eba <strcasecmp>
   14702:	e4051ce3          	bnez	a0,1455a <__loadlocale+0x188>
   14706:	00007597          	auipc	a1,0x7
   1470a:	50258593          	add	a1,a1,1282 # 1bc08 <__clzsi2+0x128>
   1470e:	8552                	mv	a0,s4
   14710:	151000ef          	jal	15060 <strcpy>
   14714:	00003c97          	auipc	s9,0x3
   14718:	b16c8c93          	add	s9,s9,-1258 # 1722a <__sjis_mbtowc>
   1471c:	00004d17          	auipc	s10,0x4
   14720:	504d0d13          	add	s10,s10,1284 # 18c20 <__sjis_wctomb>
   14724:	4c09                	li	s8,2
   14726:	bf15                	j	1465a <__loadlocale+0x288>
   14728:	00007597          	auipc	a1,0x7
   1472c:	53458593          	add	a1,a1,1332 # 1bc5c <__clzsi2+0x17c>
   14730:	8552                	mv	a0,s4
   14732:	788040ef          	jal	18eba <strcasecmp>
   14736:	e20512e3          	bnez	a0,1455a <__loadlocale+0x188>
   1473a:	00007597          	auipc	a1,0x7
   1473e:	52a58593          	add	a1,a1,1322 # 1bc64 <__clzsi2+0x184>
   14742:	8552                	mv	a0,s4
   14744:	11d000ef          	jal	15060 <strcpy>
   14748:	bf61                	j	146e0 <__loadlocale+0x30e>
   1474a:	4611                	li	a2,4
   1474c:	00007597          	auipc	a1,0x7
   14750:	4e058593          	add	a1,a1,1248 # 1bc2c <__clzsi2+0x14c>
   14754:	8552                	mv	a0,s4
   14756:	135040ef          	jal	1908a <strncasecmp>
   1475a:	e00510e3          	bnez	a0,1455a <__loadlocale+0x188>
   1475e:	01414783          	lbu	a5,20(sp)
   14762:	02d00713          	li	a4,45
   14766:	00e79463          	bne	a5,a4,1476e <__loadlocale+0x39c>
   1476a:	01514783          	lbu	a5,21(sp)
   1476e:	0df7f793          	and	a5,a5,223
   14772:	05200713          	li	a4,82
   14776:	24e78163          	beq	a5,a4,149b8 <__loadlocale+0x5e6>
   1477a:	05500713          	li	a4,85
   1477e:	dce79ee3          	bne	a5,a4,1455a <__loadlocale+0x188>
   14782:	00007597          	auipc	a1,0x7
   14786:	4ba58593          	add	a1,a1,1210 # 1bc3c <__clzsi2+0x15c>
   1478a:	8552                	mv	a0,s4
   1478c:	0d5000ef          	jal	15060 <strcpy>
   14790:	bf81                	j	146e0 <__loadlocale+0x30e>
   14792:	00007597          	auipc	a1,0x7
   14796:	46258593          	add	a1,a1,1122 # 1bbf4 <__clzsi2+0x114>
   1479a:	8552                	mv	a0,s4
   1479c:	71e040ef          	jal	18eba <strcasecmp>
   147a0:	da051de3          	bnez	a0,1455a <__loadlocale+0x188>
   147a4:	00007597          	auipc	a1,0x7
   147a8:	45058593          	add	a1,a1,1104 # 1bbf4 <__clzsi2+0x114>
   147ac:	8552                	mv	a0,s4
   147ae:	0b3000ef          	jal	15060 <strcpy>
   147b2:	00003c97          	auipc	s9,0x3
   147b6:	d0ec8c93          	add	s9,s9,-754 # 174c0 <__jis_mbtowc>
   147ba:	00004d17          	auipc	s10,0x4
   147be:	560d0d13          	add	s10,s10,1376 # 18d1a <__jis_wctomb>
   147c2:	4c21                	li	s8,8
   147c4:	bd59                	j	1465a <__loadlocale+0x288>
   147c6:	460d                	li	a2,3
   147c8:	00007597          	auipc	a1,0x7
   147cc:	44858593          	add	a1,a1,1096 # 1bc10 <__clzsi2+0x130>
   147d0:	8552                	mv	a0,s4
   147d2:	0b9040ef          	jal	1908a <strncasecmp>
   147d6:	d80512e3          	bnez	a0,1455a <__loadlocale+0x188>
   147da:	01314783          	lbu	a5,19(sp)
   147de:	4611                	li	a2,4
   147e0:	00007597          	auipc	a1,0x7
   147e4:	43458593          	add	a1,a1,1076 # 1bc14 <__clzsi2+0x134>
   147e8:	fd378793          	add	a5,a5,-45
   147ec:	0017b793          	seqz	a5,a5
   147f0:	03078793          	add	a5,a5,48
   147f4:	978a                	add	a5,a5,sp
   147f6:	fe378c13          	add	s8,a5,-29
   147fa:	8562                	mv	a0,s8
   147fc:	08f040ef          	jal	1908a <strncasecmp>
   14800:	d4051de3          	bnez	a0,1455a <__loadlocale+0x188>
   14804:	004c4503          	lbu	a0,4(s8)
   14808:	4629                	li	a2,10
   1480a:	006c                	add	a1,sp,12
   1480c:	fd350513          	add	a0,a0,-45
   14810:	00153513          	seqz	a0,a0
   14814:	9562                	add	a0,a0,s8
   14816:	0511                	add	a0,a0,4
   14818:	22a040ef          	jal	18a42 <strtol>
   1481c:	fff50713          	add	a4,a0,-1
   14820:	47bd                	li	a5,15
   14822:	8c2a                	mv	s8,a0
   14824:	d2e7ebe3          	bltu	a5,a4,1455a <__loadlocale+0x188>
   14828:	47b1                	li	a5,12
   1482a:	d2f508e3          	beq	a0,a5,1455a <__loadlocale+0x188>
   1482e:	47b2                	lw	a5,12(sp)
   14830:	0007c783          	lbu	a5,0(a5)
   14834:	d20793e3          	bnez	a5,1455a <__loadlocale+0x188>
   14838:	00007597          	auipc	a1,0x7
   1483c:	3e458593          	add	a1,a1,996 # 1bc1c <__clzsi2+0x13c>
   14840:	8552                	mv	a0,s4
   14842:	01f000ef          	jal	15060 <strcpy>
   14846:	47a9                	li	a5,10
   14848:	01910713          	add	a4,sp,25
   1484c:	0187d863          	bge	a5,s8,1485c <__loadlocale+0x48a>
   14850:	03100793          	li	a5,49
   14854:	00f10ca3          	sb	a5,25(sp)
   14858:	01a10713          	add	a4,sp,26
   1485c:	47a9                	li	a5,10
   1485e:	02fc67b3          	rem	a5,s8,a5
   14862:	000700a3          	sb	zero,1(a4)
   14866:	03078793          	add	a5,a5,48
   1486a:	00f70023          	sb	a5,0(a4)
   1486e:	bd8d                	j	146e0 <__loadlocale+0x30e>
   14870:	4621                	li	a2,8
   14872:	00007597          	auipc	a1,0x7
   14876:	3d258593          	add	a1,a1,978 # 1bc44 <__clzsi2+0x164>
   1487a:	8552                	mv	a0,s4
   1487c:	00f040ef          	jal	1908a <strncasecmp>
   14880:	cc051de3          	bnez	a0,1455a <__loadlocale+0x188>
   14884:	01814503          	lbu	a0,24(sp)
   14888:	00007597          	auipc	a1,0x7
   1488c:	3c858593          	add	a1,a1,968 # 1bc50 <__clzsi2+0x170>
   14890:	fd350513          	add	a0,a0,-45
   14894:	00153513          	seqz	a0,a0
   14898:	03050793          	add	a5,a0,48
   1489c:	00278533          	add	a0,a5,sp
   148a0:	1521                	add	a0,a0,-24
   148a2:	618040ef          	jal	18eba <strcasecmp>
   148a6:	ca051ae3          	bnez	a0,1455a <__loadlocale+0x188>
   148aa:	00007597          	auipc	a1,0x7
   148ae:	3aa58593          	add	a1,a1,938 # 1bc54 <__clzsi2+0x174>
   148b2:	8552                	mv	a0,s4
   148b4:	7ac000ef          	jal	15060 <strcpy>
   148b8:	b525                	j	146e0 <__loadlocale+0x30e>
   148ba:	460d                	li	a2,3
   148bc:	00007597          	auipc	a1,0x7
   148c0:	33c58593          	add	a1,a1,828 # 1bbf8 <__clzsi2+0x118>
   148c4:	8552                	mv	a0,s4
   148c6:	7c4040ef          	jal	1908a <strncasecmp>
   148ca:	c80518e3          	bnez	a0,1455a <__loadlocale+0x188>
   148ce:	01314503          	lbu	a0,19(sp)
   148d2:	00007597          	auipc	a1,0x7
   148d6:	32a58593          	add	a1,a1,810 # 1bbfc <__clzsi2+0x11c>
   148da:	fd350513          	add	a0,a0,-45
   148de:	00153513          	seqz	a0,a0
   148e2:	03050793          	add	a5,a0,48
   148e6:	00278533          	add	a0,a5,sp
   148ea:	150d                	add	a0,a0,-29
   148ec:	5ce040ef          	jal	18eba <strcasecmp>
   148f0:	c60515e3          	bnez	a0,1455a <__loadlocale+0x188>
   148f4:	00007597          	auipc	a1,0x7
   148f8:	30c58593          	add	a1,a1,780 # 1bc00 <__clzsi2+0x120>
   148fc:	8552                	mv	a0,s4
   148fe:	762000ef          	jal	15060 <strcpy>
   14902:	00003c97          	auipc	s9,0x3
   14906:	a34c8c93          	add	s9,s9,-1484 # 17336 <__eucjp_mbtowc>
   1490a:	00004d17          	auipc	s10,0x4
   1490e:	380d0d13          	add	s10,s10,896 # 18c8a <__eucjp_wctomb>
   14912:	4c0d                	li	s8,3
   14914:	b399                	j	1465a <__loadlocale+0x288>
   14916:	00007597          	auipc	a1,0x7
   1491a:	29a58593          	add	a1,a1,666 # 1bbb0 <__clzsi2+0xd0>
   1491e:	8552                	mv	a0,s4
   14920:	59a040ef          	jal	18eba <strcasecmp>
   14924:	c2051be3          	bnez	a0,1455a <__loadlocale+0x188>
   14928:	00007597          	auipc	a1,0x7
   1492c:	28858593          	add	a1,a1,648 # 1bbb0 <__clzsi2+0xd0>
   14930:	8552                	mv	a0,s4
   14932:	72e000ef          	jal	15060 <strcpy>
   14936:	b36d                	j	146e0 <__loadlocale+0x30e>
   14938:	00007597          	auipc	a1,0x7
   1493c:	29858593          	add	a1,a1,664 # 1bbd0 <__clzsi2+0xf0>
   14940:	8562                	mv	a0,s8
   14942:	796000ef          	jal	150d8 <strcmp>
   14946:	8aaa                	mv	s5,a0
   14948:	4b81                	li	s7,0
   1494a:	4b05                	li	s6,1
   1494c:	c8050de3          	beqz	a0,145e6 <__loadlocale+0x214>
   14950:	8562                	mv	a0,s8
   14952:	00007597          	auipc	a1,0x7
   14956:	28a58593          	add	a1,a1,650 # 1bbdc <__clzsi2+0xfc>
   1495a:	77e000ef          	jal	150d8 <strcmp>
   1495e:	00153a93          	seqz	s5,a0
   14962:	5c62                	lw	s8,56(sp)
   14964:	4b01                	li	s6,0
   14966:	b695                	j	144ca <__loadlocale+0xf8>
   14968:	85d2                	mv	a1,s4
   1496a:	12a90513          	add	a0,s2,298
   1496e:	2dcd                	jal	15060 <strcpy>
   14970:	85d2                	mv	a1,s4
   14972:	13890423          	sb	s8,296(s2)
   14976:	0fa92023          	sw	s10,224(s2)
   1497a:	0f992223          	sw	s9,228(s2)
   1497e:	854a                	mv	a0,s2
   14980:	1fb000ef          	jal	1537a <__set_ctype>
   14984:	000a9d63          	bnez	s5,1499e <__loadlocale+0x5cc>
   14988:	000b1b63          	bnez	s6,1499e <__loadlocale+0x5cc>
   1498c:	4785                	li	a5,1
   1498e:	00fc0863          	beq	s8,a5,1499e <__loadlocale+0x5cc>
   14992:	01014a83          	lbu	s5,16(sp)
   14996:	faba8a93          	add	s5,s5,-85
   1499a:	01503ab3          	snez	s5,s5
   1499e:	000b9563          	bnez	s7,149a8 <__loadlocale+0x5d6>
   149a2:	0f592423          	sw	s5,232(s2)
   149a6:	b1e9                	j	14670 <__loadlocale+0x29e>
   149a8:	57fd                	li	a5,-1
   149aa:	0ef92423          	sw	a5,232(s2)
   149ae:	b1c9                	j	14670 <__loadlocale+0x29e>
   149b0:	c0da                	sw	s6,64(sp)
   149b2:	de5e                	sw	s7,60(sp)
   149b4:	0a85                	add	s5,s5,1
   149b6:	b6e9                	j	14580 <__loadlocale+0x1ae>
   149b8:	00007597          	auipc	a1,0x7
   149bc:	27c58593          	add	a1,a1,636 # 1bc34 <__clzsi2+0x154>
   149c0:	8552                	mv	a0,s4
   149c2:	2d79                	jal	15060 <strcpy>
   149c4:	bb31                	j	146e0 <__loadlocale+0x30e>
   149c6:	46500793          	li	a5,1125
   149ca:	d0f50be3          	beq	a0,a5,146e0 <__loadlocale+0x30e>
   149ce:	b1e50513          	add	a0,a0,-1250
   149d2:	47a1                	li	a5,8
   149d4:	d0a7f6e3          	bgeu	a5,a0,146e0 <__loadlocale+0x30e>
   149d8:	b649                	j	1455a <__loadlocale+0x188>
   149da:	2e100793          	li	a5,737
   149de:	d0f501e3          	beq	a0,a5,146e0 <__loadlocale+0x30e>
   149e2:	00a7cb63          	blt	a5,a0,149f8 <__loadlocale+0x626>
   149e6:	1b500793          	li	a5,437
   149ea:	cef50be3          	beq	a0,a5,146e0 <__loadlocale+0x30e>
   149ee:	2d000793          	li	a5,720
   149f2:	b6f514e3          	bne	a0,a5,1455a <__loadlocale+0x188>
   149f6:	b1ed                	j	146e0 <__loadlocale+0x30e>
   149f8:	30700793          	li	a5,775
   149fc:	b4f51fe3          	bne	a0,a5,1455a <__loadlocale+0x188>
   14a00:	b1c5                	j	146e0 <__loadlocale+0x30e>

00014a02 <__get_locale_env>:
   14a02:	1141                	add	sp,sp,-16
   14a04:	c422                	sw	s0,8(sp)
   14a06:	842e                	mv	s0,a1
   14a08:	00007597          	auipc	a1,0x7
   14a0c:	27458593          	add	a1,a1,628 # 1bc7c <__clzsi2+0x19c>
   14a10:	c226                	sw	s1,4(sp)
   14a12:	c606                	sw	ra,12(sp)
   14a14:	84aa                	mv	s1,a0
   14a16:	79b010ef          	jal	169b0 <_getenv_r>
   14a1a:	c501                	beqz	a0,14a22 <__get_locale_env+0x20>
   14a1c:	00054783          	lbu	a5,0(a0)
   14a20:	ef8d                	bnez	a5,14a5a <__get_locale_env+0x58>
   14a22:	00241793          	sll	a5,s0,0x2
   14a26:	00008717          	auipc	a4,0x8
   14a2a:	a6270713          	add	a4,a4,-1438 # 1c488 <categories>
   14a2e:	97ba                	add	a5,a5,a4
   14a30:	438c                	lw	a1,0(a5)
   14a32:	8526                	mv	a0,s1
   14a34:	77d010ef          	jal	169b0 <_getenv_r>
   14a38:	c501                	beqz	a0,14a40 <__get_locale_env+0x3e>
   14a3a:	00054783          	lbu	a5,0(a0)
   14a3e:	ef91                	bnez	a5,14a5a <__get_locale_env+0x58>
   14a40:	00007597          	auipc	a1,0x7
   14a44:	24458593          	add	a1,a1,580 # 1bc84 <__clzsi2+0x1a4>
   14a48:	8526                	mv	a0,s1
   14a4a:	767010ef          	jal	169b0 <_getenv_r>
   14a4e:	c501                	beqz	a0,14a56 <__get_locale_env+0x54>
   14a50:	00054783          	lbu	a5,0(a0)
   14a54:	e399                	bnez	a5,14a5a <__get_locale_env+0x58>
   14a56:	97818513          	add	a0,gp,-1672 # 1d188 <__default_locale>
   14a5a:	40b2                	lw	ra,12(sp)
   14a5c:	4422                	lw	s0,8(sp)
   14a5e:	4492                	lw	s1,4(sp)
   14a60:	0141                	add	sp,sp,16
   14a62:	8082                	ret

00014a64 <_setlocale_r>:
   14a64:	7179                	add	sp,sp,-48
   14a66:	ce4e                	sw	s3,28(sp)
   14a68:	d606                	sw	ra,44(sp)
   14a6a:	ca56                	sw	s5,20(sp)
   14a6c:	4799                	li	a5,6
   14a6e:	89aa                	mv	s3,a0
   14a70:	10b7ec63          	bltu	a5,a1,14b88 <_setlocale_r+0x124>
   14a74:	c85a                	sw	s6,16(sp)
   14a76:	c65e                	sw	s7,12(sp)
   14a78:	8b32                	mv	s6,a2
   14a7a:	8bae                	mv	s7,a1
   14a7c:	1c060463          	beqz	a2,14c44 <_setlocale_r+0x1e0>
   14a80:	d04a                	sw	s2,32(sp)
   14a82:	cc52                	sw	s4,24(sp)
   14a84:	00008917          	auipc	s2,0x8
   14a88:	5b890913          	add	s2,s2,1464 # 1d03c <__global_locale+0x20>
   14a8c:	1d818a13          	add	s4,gp,472 # 1d9e8 <new_categories.1+0x20>
   14a90:	d422                	sw	s0,40(sp)
   14a92:	d226                	sw	s1,36(sp)
   14a94:	29818a93          	add	s5,gp,664 # 1daa8 <global_locale_string>
   14a98:	84ca                	mv	s1,s2
   14a9a:	8452                	mv	s0,s4
   14a9c:	85a6                	mv	a1,s1
   14a9e:	8522                	mv	a0,s0
   14aa0:	02040413          	add	s0,s0,32
   14aa4:	2b75                	jal	15060 <strcpy>
   14aa6:	02048493          	add	s1,s1,32
   14aaa:	ff5419e3          	bne	s0,s5,14a9c <_setlocale_r+0x38>
   14aae:	000b4783          	lbu	a5,0(s6)
   14ab2:	e7c1                	bnez	a5,14b3a <_setlocale_r+0xd6>
   14ab4:	1a0b9763          	bnez	s7,14c62 <_setlocale_r+0x1fe>
   14ab8:	1d818a93          	add	s5,gp,472 # 1d9e8 <new_categories.1+0x20>
   14abc:	4405                	li	s0,1
   14abe:	4b7d                	li	s6,31
   14ac0:	4b9d                	li	s7,7
   14ac2:	85a2                	mv	a1,s0
   14ac4:	854e                	mv	a0,s3
   14ac6:	3f35                	jal	14a02 <__get_locale_env>
   14ac8:	84aa                	mv	s1,a0
   14aca:	2b0d                	jal	14ffc <strlen>
   14acc:	87aa                	mv	a5,a0
   14ace:	85a6                	mv	a1,s1
   14ad0:	8556                	mv	a0,s5
   14ad2:	0afb6563          	bltu	s6,a5,14b7c <_setlocale_r+0x118>
   14ad6:	0405                	add	s0,s0,1
   14ad8:	2361                	jal	15060 <strcpy>
   14ada:	020a8a93          	add	s5,s5,32
   14ade:	ff7412e3          	bne	s0,s7,14ac2 <_setlocale_r+0x5e>
   14ae2:	c462                	sw	s8,8(sp)
   14ae4:	0f818c13          	add	s8,gp,248 # 1d908 <saved_categories.0+0x20>
   14ae8:	1d818a93          	add	s5,gp,472 # 1d9e8 <new_categories.1+0x20>
   14aec:	84e2                	mv	s1,s8
   14aee:	4405                	li	s0,1
   14af0:	00008b97          	auipc	s7,0x8
   14af4:	52cb8b93          	add	s7,s7,1324 # 1d01c <__global_locale>
   14af8:	4b1d                	li	s6,7
   14afa:	85ca                	mv	a1,s2
   14afc:	8526                	mv	a0,s1
   14afe:	238d                	jal	15060 <strcpy>
   14b00:	8656                	mv	a2,s5
   14b02:	85a2                	mv	a1,s0
   14b04:	855e                	mv	a0,s7
   14b06:	8cdff0ef          	jal	143d2 <__loadlocale>
   14b0a:	16050e63          	beqz	a0,14c86 <_setlocale_r+0x222>
   14b0e:	0405                	add	s0,s0,1
   14b10:	02048493          	add	s1,s1,32
   14b14:	02090913          	add	s2,s2,32
   14b18:	020a8a93          	add	s5,s5,32
   14b1c:	fd641fe3          	bne	s0,s6,14afa <_setlocale_r+0x96>
   14b20:	5422                	lw	s0,40(sp)
   14b22:	5492                	lw	s1,36(sp)
   14b24:	5902                	lw	s2,32(sp)
   14b26:	4a62                	lw	s4,24(sp)
   14b28:	4b42                	lw	s6,16(sp)
   14b2a:	4bb2                	lw	s7,12(sp)
   14b2c:	4c22                	lw	s8,8(sp)
   14b2e:	50b2                	lw	ra,44(sp)
   14b30:	49f2                	lw	s3,28(sp)
   14b32:	4ad2                	lw	s5,20(sp)
   14b34:	6145                	add	sp,sp,48
   14b36:	811ff06f          	j	14346 <currentlocale>
   14b3a:	060b8063          	beqz	s7,14b9a <_setlocale_r+0x136>
   14b3e:	855a                	mv	a0,s6
   14b40:	2975                	jal	14ffc <strlen>
   14b42:	47fd                	li	a5,31
   14b44:	02a7ec63          	bltu	a5,a0,14b7c <_setlocale_r+0x118>
   14b48:	005b9413          	sll	s0,s7,0x5
   14b4c:	1b818793          	add	a5,gp,440 # 1d9c8 <new_categories.1>
   14b50:	943e                	add	s0,s0,a5
   14b52:	85da                	mv	a1,s6
   14b54:	8522                	mv	a0,s0
   14b56:	2329                	jal	15060 <strcpy>
   14b58:	8622                	mv	a2,s0
   14b5a:	5422                	lw	s0,40(sp)
   14b5c:	5492                	lw	s1,36(sp)
   14b5e:	5902                	lw	s2,32(sp)
   14b60:	4a62                	lw	s4,24(sp)
   14b62:	4b42                	lw	s6,16(sp)
   14b64:	50b2                	lw	ra,44(sp)
   14b66:	49f2                	lw	s3,28(sp)
   14b68:	4ad2                	lw	s5,20(sp)
   14b6a:	85de                	mv	a1,s7
   14b6c:	4bb2                	lw	s7,12(sp)
   14b6e:	00008517          	auipc	a0,0x8
   14b72:	4ae50513          	add	a0,a0,1198 # 1d01c <__global_locale>
   14b76:	6145                	add	sp,sp,48
   14b78:	85bff06f          	j	143d2 <__loadlocale>
   14b7c:	5422                	lw	s0,40(sp)
   14b7e:	5492                	lw	s1,36(sp)
   14b80:	5902                	lw	s2,32(sp)
   14b82:	4a62                	lw	s4,24(sp)
   14b84:	4b42                	lw	s6,16(sp)
   14b86:	4bb2                	lw	s7,12(sp)
   14b88:	4ad9                	li	s5,22
   14b8a:	50b2                	lw	ra,44(sp)
   14b8c:	0159a023          	sw	s5,0(s3)
   14b90:	4501                	li	a0,0
   14b92:	49f2                	lw	s3,28(sp)
   14b94:	4ad2                	lw	s5,20(sp)
   14b96:	6145                	add	sp,sp,48
   14b98:	8082                	ret
   14b9a:	02f00593          	li	a1,47
   14b9e:	855a                	mv	a0,s6
   14ba0:	3cc040ef          	jal	18f6c <strchr>
   14ba4:	842a                	mv	s0,a0
   14ba6:	14050263          	beqz	a0,14cea <_setlocale_r+0x286>
   14baa:	00154783          	lbu	a5,1(a0)
   14bae:	02f00693          	li	a3,47
   14bb2:	02f00713          	li	a4,47
   14bb6:	00d79763          	bne	a5,a3,14bc4 <_setlocale_r+0x160>
   14bba:	00244783          	lbu	a5,2(s0)
   14bbe:	0405                	add	s0,s0,1
   14bc0:	fee78de3          	beq	a5,a4,14bba <_setlocale_r+0x156>
   14bc4:	dfc5                	beqz	a5,14b7c <_setlocale_r+0x118>
   14bc6:	c462                	sw	s8,8(sp)
   14bc8:	c266                	sw	s9,4(sp)
   14bca:	c06a                	sw	s10,0(sp)
   14bcc:	4c85                	li	s9,1
   14bce:	1d818d13          	add	s10,gp,472 # 1d9e8 <new_categories.1+0x20>
   14bd2:	4bfd                	li	s7,31
   14bd4:	02f00493          	li	s1,47
   14bd8:	4c1d                	li	s8,7
   14bda:	41640633          	sub	a2,s0,s6
   14bde:	12cbc663          	blt	s7,a2,14d0a <_setlocale_r+0x2a6>
   14be2:	0605                	add	a2,a2,1
   14be4:	85da                	mv	a1,s6
   14be6:	856a                	mv	a0,s10
   14be8:	476040ef          	jal	1905e <strlcpy>
   14bec:	00044783          	lbu	a5,0(s0)
   14bf0:	0c85                	add	s9,s9,1
   14bf2:	00979763          	bne	a5,s1,14c00 <_setlocale_r+0x19c>
   14bf6:	00144783          	lbu	a5,1(s0)
   14bfa:	0405                	add	s0,s0,1
   14bfc:	fe978de3          	beq	a5,s1,14bf6 <_setlocale_r+0x192>
   14c00:	cf99                	beqz	a5,14c1e <_setlocale_r+0x1ba>
   14c02:	87a2                	mv	a5,s0
   14c04:	0017c703          	lbu	a4,1(a5)
   14c08:	0785                	add	a5,a5,1
   14c0a:	c319                	beqz	a4,14c10 <_setlocale_r+0x1ac>
   14c0c:	fe971ce3          	bne	a4,s1,14c04 <_setlocale_r+0x1a0>
   14c10:	020d0d13          	add	s10,s10,32
   14c14:	038c8563          	beq	s9,s8,14c3e <_setlocale_r+0x1da>
   14c18:	8b22                	mv	s6,s0
   14c1a:	843e                	mv	s0,a5
   14c1c:	bf7d                	j	14bda <_setlocale_r+0x176>
   14c1e:	479d                	li	a5,7
   14c20:	00fc8f63          	beq	s9,a5,14c3e <_setlocale_r+0x1da>
   14c24:	005c9413          	sll	s0,s9,0x5
   14c28:	1b818793          	add	a5,gp,440 # 1d9c8 <new_categories.1>
   14c2c:	943e                	add	s0,s0,a5
   14c2e:	fe040593          	add	a1,s0,-32
   14c32:	8522                	mv	a0,s0
   14c34:	02040413          	add	s0,s0,32
   14c38:	2125                	jal	15060 <strcpy>
   14c3a:	ff541ae3          	bne	s0,s5,14c2e <_setlocale_r+0x1ca>
   14c3e:	4c92                	lw	s9,4(sp)
   14c40:	4d02                	lw	s10,0(sp)
   14c42:	b54d                	j	14ae4 <_setlocale_r+0x80>
   14c44:	c1c5                	beqz	a1,14ce4 <_setlocale_r+0x280>
   14c46:	50b2                	lw	ra,44(sp)
   14c48:	00559513          	sll	a0,a1,0x5
   14c4c:	00008797          	auipc	a5,0x8
   14c50:	3d078793          	add	a5,a5,976 # 1d01c <__global_locale>
   14c54:	4b42                	lw	s6,16(sp)
   14c56:	4bb2                	lw	s7,12(sp)
   14c58:	49f2                	lw	s3,28(sp)
   14c5a:	4ad2                	lw	s5,20(sp)
   14c5c:	953e                	add	a0,a0,a5
   14c5e:	6145                	add	sp,sp,48
   14c60:	8082                	ret
   14c62:	85de                	mv	a1,s7
   14c64:	854e                	mv	a0,s3
   14c66:	d9dff0ef          	jal	14a02 <__get_locale_env>
   14c6a:	84aa                	mv	s1,a0
   14c6c:	2e41                	jal	14ffc <strlen>
   14c6e:	47fd                	li	a5,31
   14c70:	f0a7e6e3          	bltu	a5,a0,14b7c <_setlocale_r+0x118>
   14c74:	005b9413          	sll	s0,s7,0x5
   14c78:	1b818793          	add	a5,gp,440 # 1d9c8 <new_categories.1>
   14c7c:	943e                	add	s0,s0,a5
   14c7e:	85a6                	mv	a1,s1
   14c80:	8522                	mv	a0,s0
   14c82:	2ef9                	jal	15060 <strcpy>
   14c84:	bdd1                	j	14b58 <_setlocale_r+0xf4>
   14c86:	4485                	li	s1,1
   14c88:	0009aa83          	lw	s5,0(s3)
   14c8c:	00008917          	auipc	s2,0x8
   14c90:	39090913          	add	s2,s2,912 # 1d01c <__global_locale>
   14c94:	00007b17          	auipc	s6,0x7
   14c98:	f18b0b13          	add	s6,s6,-232 # 1bbac <__clzsi2+0xcc>
   14c9c:	00941a63          	bne	s0,s1,14cb0 <_setlocale_r+0x24c>
   14ca0:	a815                	j	14cd4 <_setlocale_r+0x270>
   14ca2:	0485                	add	s1,s1,1
   14ca4:	020a0a13          	add	s4,s4,32
   14ca8:	020c0c13          	add	s8,s8,32
   14cac:	02848463          	beq	s1,s0,14cd4 <_setlocale_r+0x270>
   14cb0:	85e2                	mv	a1,s8
   14cb2:	8552                	mv	a0,s4
   14cb4:	2675                	jal	15060 <strcpy>
   14cb6:	8652                	mv	a2,s4
   14cb8:	85a6                	mv	a1,s1
   14cba:	854a                	mv	a0,s2
   14cbc:	f16ff0ef          	jal	143d2 <__loadlocale>
   14cc0:	f16d                	bnez	a0,14ca2 <_setlocale_r+0x23e>
   14cc2:	85da                	mv	a1,s6
   14cc4:	8552                	mv	a0,s4
   14cc6:	2e69                	jal	15060 <strcpy>
   14cc8:	8652                	mv	a2,s4
   14cca:	85a6                	mv	a1,s1
   14ccc:	854a                	mv	a0,s2
   14cce:	f04ff0ef          	jal	143d2 <__loadlocale>
   14cd2:	bfc1                	j	14ca2 <_setlocale_r+0x23e>
   14cd4:	5422                	lw	s0,40(sp)
   14cd6:	5492                	lw	s1,36(sp)
   14cd8:	5902                	lw	s2,32(sp)
   14cda:	4a62                	lw	s4,24(sp)
   14cdc:	4b42                	lw	s6,16(sp)
   14cde:	4bb2                	lw	s7,12(sp)
   14ce0:	4c22                	lw	s8,8(sp)
   14ce2:	b565                	j	14b8a <_setlocale_r+0x126>
   14ce4:	4b42                	lw	s6,16(sp)
   14ce6:	4bb2                	lw	s7,12(sp)
   14ce8:	b599                	j	14b2e <_setlocale_r+0xca>
   14cea:	855a                	mv	a0,s6
   14cec:	2e01                	jal	14ffc <strlen>
   14cee:	47fd                	li	a5,31
   14cf0:	e8a7e6e3          	bltu	a5,a0,14b7c <_setlocale_r+0x118>
   14cf4:	c462                	sw	s8,8(sp)
   14cf6:	1d818413          	add	s0,gp,472 # 1d9e8 <new_categories.1+0x20>
   14cfa:	8522                	mv	a0,s0
   14cfc:	85da                	mv	a1,s6
   14cfe:	02040413          	add	s0,s0,32
   14d02:	2eb9                	jal	15060 <strcpy>
   14d04:	ff541be3          	bne	s0,s5,14cfa <_setlocale_r+0x296>
   14d08:	bbf1                	j	14ae4 <_setlocale_r+0x80>
   14d0a:	5422                	lw	s0,40(sp)
   14d0c:	5492                	lw	s1,36(sp)
   14d0e:	5902                	lw	s2,32(sp)
   14d10:	4a62                	lw	s4,24(sp)
   14d12:	4b42                	lw	s6,16(sp)
   14d14:	4bb2                	lw	s7,12(sp)
   14d16:	4c22                	lw	s8,8(sp)
   14d18:	4c92                	lw	s9,4(sp)
   14d1a:	4d02                	lw	s10,0(sp)
   14d1c:	b5b5                	j	14b88 <_setlocale_r+0x124>

00014d1e <__locale_mb_cur_max>:
   14d1e:	9341c503          	lbu	a0,-1740(gp) # 1d144 <__global_locale+0x128>
   14d22:	8082                	ret

00014d24 <setlocale>:
   14d24:	862e                	mv	a2,a1
   14d26:	85aa                	mv	a1,a0
   14d28:	f2c1a503          	lw	a0,-212(gp) # 1d73c <_impure_ptr>
   14d2c:	d39ff06f          	j	14a64 <_setlocale_r>

00014d30 <__localeconv_l>:
   14d30:	0f050513          	add	a0,a0,240
   14d34:	8082                	ret

00014d36 <_localeconv_r>:
   14d36:	8fc18513          	add	a0,gp,-1796 # 1d10c <__global_locale+0xf0>
   14d3a:	8082                	ret

00014d3c <localeconv>:
   14d3c:	8fc18513          	add	a0,gp,-1796 # 1d10c <__global_locale+0xf0>
   14d40:	8082                	ret

00014d42 <memmove>:
   14d42:	02a5f263          	bgeu	a1,a0,14d66 <memmove+0x24>
   14d46:	00c58733          	add	a4,a1,a2
   14d4a:	00e57e63          	bgeu	a0,a4,14d66 <memmove+0x24>
   14d4e:	00c507b3          	add	a5,a0,a2
   14d52:	ca1d                	beqz	a2,14d88 <memmove+0x46>
   14d54:	fff74683          	lbu	a3,-1(a4)
   14d58:	17fd                	add	a5,a5,-1
   14d5a:	177d                	add	a4,a4,-1
   14d5c:	00d78023          	sb	a3,0(a5)
   14d60:	fef51ae3          	bne	a0,a5,14d54 <memmove+0x12>
   14d64:	8082                	ret
   14d66:	47bd                	li	a5,15
   14d68:	02c7e163          	bltu	a5,a2,14d8a <memmove+0x48>
   14d6c:	87aa                	mv	a5,a0
   14d6e:	fff60693          	add	a3,a2,-1
   14d72:	ca59                	beqz	a2,14e08 <memmove+0xc6>
   14d74:	0685                	add	a3,a3,1 # 2001 <exit-0xe093>
   14d76:	96be                	add	a3,a3,a5
   14d78:	0005c703          	lbu	a4,0(a1)
   14d7c:	0785                	add	a5,a5,1
   14d7e:	0585                	add	a1,a1,1
   14d80:	fee78fa3          	sb	a4,-1(a5)
   14d84:	fed79ae3          	bne	a5,a3,14d78 <memmove+0x36>
   14d88:	8082                	ret
   14d8a:	00b567b3          	or	a5,a0,a1
   14d8e:	8b8d                	and	a5,a5,3
   14d90:	eba5                	bnez	a5,14e00 <memmove+0xbe>
   14d92:	ff060893          	add	a7,a2,-16
   14d96:	ff08f893          	and	a7,a7,-16
   14d9a:	08c1                	add	a7,a7,16
   14d9c:	011506b3          	add	a3,a0,a7
   14da0:	872e                	mv	a4,a1
   14da2:	87aa                	mv	a5,a0
   14da4:	00072803          	lw	a6,0(a4)
   14da8:	0741                	add	a4,a4,16
   14daa:	07c1                	add	a5,a5,16
   14dac:	ff07a823          	sw	a6,-16(a5)
   14db0:	ff472803          	lw	a6,-12(a4)
   14db4:	ff07aa23          	sw	a6,-12(a5)
   14db8:	ff872803          	lw	a6,-8(a4)
   14dbc:	ff07ac23          	sw	a6,-8(a5)
   14dc0:	ffc72803          	lw	a6,-4(a4)
   14dc4:	ff07ae23          	sw	a6,-4(a5)
   14dc8:	fcd79ee3          	bne	a5,a3,14da4 <memmove+0x62>
   14dcc:	00c67813          	and	a6,a2,12
   14dd0:	95c6                	add	a1,a1,a7
   14dd2:	00f67713          	and	a4,a2,15
   14dd6:	02080a63          	beqz	a6,14e0a <memmove+0xc8>
   14dda:	ffc70813          	add	a6,a4,-4
   14dde:	ffc87813          	and	a6,a6,-4
   14de2:	0811                	add	a6,a6,4
   14de4:	010687b3          	add	a5,a3,a6
   14de8:	872e                	mv	a4,a1
   14dea:	00072883          	lw	a7,0(a4)
   14dee:	0691                	add	a3,a3,4
   14df0:	0711                	add	a4,a4,4
   14df2:	ff16ae23          	sw	a7,-4(a3)
   14df6:	fef69ae3          	bne	a3,a5,14dea <memmove+0xa8>
   14dfa:	8a0d                	and	a2,a2,3
   14dfc:	95c2                	add	a1,a1,a6
   14dfe:	bf85                	j	14d6e <memmove+0x2c>
   14e00:	fff60693          	add	a3,a2,-1
   14e04:	87aa                	mv	a5,a0
   14e06:	b7bd                	j	14d74 <memmove+0x32>
   14e08:	8082                	ret
   14e0a:	863a                	mv	a2,a4
   14e0c:	b78d                	j	14d6e <memmove+0x2c>

00014e0e <memset>:
   14e0e:	433d                	li	t1,15
   14e10:	872a                	mv	a4,a0
   14e12:	02c37363          	bgeu	t1,a2,14e38 <memset+0x2a>
   14e16:	00f77793          	and	a5,a4,15
   14e1a:	efbd                	bnez	a5,14e98 <memset+0x8a>
   14e1c:	e5ad                	bnez	a1,14e86 <memset+0x78>
   14e1e:	ff067693          	and	a3,a2,-16
   14e22:	8a3d                	and	a2,a2,15
   14e24:	96ba                	add	a3,a3,a4
   14e26:	c30c                	sw	a1,0(a4)
   14e28:	c34c                	sw	a1,4(a4)
   14e2a:	c70c                	sw	a1,8(a4)
   14e2c:	c74c                	sw	a1,12(a4)
   14e2e:	0741                	add	a4,a4,16
   14e30:	fed76be3          	bltu	a4,a3,14e26 <memset+0x18>
   14e34:	e211                	bnez	a2,14e38 <memset+0x2a>
   14e36:	8082                	ret
   14e38:	40c306b3          	sub	a3,t1,a2
   14e3c:	068a                	sll	a3,a3,0x2
   14e3e:	00000297          	auipc	t0,0x0
   14e42:	9696                	add	a3,a3,t0
   14e44:	00a68067          	jr	10(a3)
   14e48:	00b70723          	sb	a1,14(a4)
   14e4c:	00b706a3          	sb	a1,13(a4)
   14e50:	00b70623          	sb	a1,12(a4)
   14e54:	00b705a3          	sb	a1,11(a4)
   14e58:	00b70523          	sb	a1,10(a4)
   14e5c:	00b704a3          	sb	a1,9(a4)
   14e60:	00b70423          	sb	a1,8(a4)
   14e64:	00b703a3          	sb	a1,7(a4)
   14e68:	00b70323          	sb	a1,6(a4)
   14e6c:	00b702a3          	sb	a1,5(a4)
   14e70:	00b70223          	sb	a1,4(a4)
   14e74:	00b701a3          	sb	a1,3(a4)
   14e78:	00b70123          	sb	a1,2(a4)
   14e7c:	00b700a3          	sb	a1,1(a4)
   14e80:	00b70023          	sb	a1,0(a4)
   14e84:	8082                	ret
   14e86:	0ff5f593          	zext.b	a1,a1
   14e8a:	00859693          	sll	a3,a1,0x8
   14e8e:	8dd5                	or	a1,a1,a3
   14e90:	01059693          	sll	a3,a1,0x10
   14e94:	8dd5                	or	a1,a1,a3
   14e96:	b761                	j	14e1e <memset+0x10>
   14e98:	00279693          	sll	a3,a5,0x2
   14e9c:	00000297          	auipc	t0,0x0
   14ea0:	9696                	add	a3,a3,t0
   14ea2:	8286                	mv	t0,ra
   14ea4:	fa8680e7          	jalr	-88(a3)
   14ea8:	8096                	mv	ra,t0
   14eaa:	17c1                	add	a5,a5,-16
   14eac:	8f1d                	sub	a4,a4,a5
   14eae:	963e                	add	a2,a2,a5
   14eb0:	f8c374e3          	bgeu	t1,a2,14e38 <memset+0x2a>
   14eb4:	b7a5                	j	14e1c <memset+0xe>

00014eb6 <memcpy>:
   14eb6:	00a5c7b3          	xor	a5,a1,a0
   14eba:	8b8d                	and	a5,a5,3
   14ebc:	00c508b3          	add	a7,a0,a2
   14ec0:	e7b1                	bnez	a5,14f0c <memcpy+0x56>
   14ec2:	478d                	li	a5,3
   14ec4:	04c7f463          	bgeu	a5,a2,14f0c <memcpy+0x56>
   14ec8:	00357793          	and	a5,a0,3
   14ecc:	872a                	mv	a4,a0
   14ece:	ebb9                	bnez	a5,14f24 <memcpy+0x6e>
   14ed0:	ffc8f613          	and	a2,a7,-4
   14ed4:	40e606b3          	sub	a3,a2,a4
   14ed8:	02000793          	li	a5,32
   14edc:	06d7c863          	blt	a5,a3,14f4c <memcpy+0x96>
   14ee0:	86ae                	mv	a3,a1
   14ee2:	87ba                	mv	a5,a4
   14ee4:	02c77163          	bgeu	a4,a2,14f06 <memcpy+0x50>
   14ee8:	0006a803          	lw	a6,0(a3)
   14eec:	0791                	add	a5,a5,4
   14eee:	0691                	add	a3,a3,4
   14ef0:	ff07ae23          	sw	a6,-4(a5)
   14ef4:	fec7eae3          	bltu	a5,a2,14ee8 <memcpy+0x32>
   14ef8:	fff60793          	add	a5,a2,-1
   14efc:	8f99                	sub	a5,a5,a4
   14efe:	9bf1                	and	a5,a5,-4
   14f00:	0791                	add	a5,a5,4
   14f02:	973e                	add	a4,a4,a5
   14f04:	95be                	add	a1,a1,a5
   14f06:	01176663          	bltu	a4,a7,14f12 <memcpy+0x5c>
   14f0a:	8082                	ret
   14f0c:	872a                	mv	a4,a0
   14f0e:	03157e63          	bgeu	a0,a7,14f4a <memcpy+0x94>
   14f12:	0005c783          	lbu	a5,0(a1)
   14f16:	0705                	add	a4,a4,1
   14f18:	0585                	add	a1,a1,1
   14f1a:	fef70fa3          	sb	a5,-1(a4)
   14f1e:	fee89ae3          	bne	a7,a4,14f12 <memcpy+0x5c>
   14f22:	8082                	ret
   14f24:	0005c683          	lbu	a3,0(a1)
   14f28:	0705                	add	a4,a4,1
   14f2a:	00377793          	and	a5,a4,3
   14f2e:	fed70fa3          	sb	a3,-1(a4)
   14f32:	0585                	add	a1,a1,1
   14f34:	dfd1                	beqz	a5,14ed0 <memcpy+0x1a>
   14f36:	0005c683          	lbu	a3,0(a1)
   14f3a:	0705                	add	a4,a4,1
   14f3c:	00377793          	and	a5,a4,3
   14f40:	fed70fa3          	sb	a3,-1(a4)
   14f44:	0585                	add	a1,a1,1
   14f46:	fff9                	bnez	a5,14f24 <memcpy+0x6e>
   14f48:	b761                	j	14ed0 <memcpy+0x1a>
   14f4a:	8082                	ret
   14f4c:	1141                	add	sp,sp,-16
   14f4e:	c622                	sw	s0,12(sp)
   14f50:	02000413          	li	s0,32
   14f54:	0005a383          	lw	t2,0(a1)
   14f58:	0045a283          	lw	t0,4(a1)
   14f5c:	0085af83          	lw	t6,8(a1)
   14f60:	00c5af03          	lw	t5,12(a1)
   14f64:	0105ae83          	lw	t4,16(a1)
   14f68:	0145ae03          	lw	t3,20(a1)
   14f6c:	0185a303          	lw	t1,24(a1)
   14f70:	01c5a803          	lw	a6,28(a1)
   14f74:	5194                	lw	a3,32(a1)
   14f76:	02470713          	add	a4,a4,36
   14f7a:	40e607b3          	sub	a5,a2,a4
   14f7e:	fc772e23          	sw	t2,-36(a4)
   14f82:	fe572023          	sw	t0,-32(a4)
   14f86:	fff72223          	sw	t6,-28(a4)
   14f8a:	ffe72423          	sw	t5,-24(a4)
   14f8e:	ffd72623          	sw	t4,-20(a4)
   14f92:	ffc72823          	sw	t3,-16(a4)
   14f96:	fe672a23          	sw	t1,-12(a4)
   14f9a:	ff072c23          	sw	a6,-8(a4)
   14f9e:	fed72e23          	sw	a3,-4(a4)
   14fa2:	02458593          	add	a1,a1,36
   14fa6:	faf447e3          	blt	s0,a5,14f54 <memcpy+0x9e>
   14faa:	86ae                	mv	a3,a1
   14fac:	87ba                	mv	a5,a4
   14fae:	02c77163          	bgeu	a4,a2,14fd0 <memcpy+0x11a>
   14fb2:	0006a803          	lw	a6,0(a3)
   14fb6:	0791                	add	a5,a5,4
   14fb8:	0691                	add	a3,a3,4
   14fba:	ff07ae23          	sw	a6,-4(a5)
   14fbe:	fec7eae3          	bltu	a5,a2,14fb2 <memcpy+0xfc>
   14fc2:	fff60793          	add	a5,a2,-1
   14fc6:	8f99                	sub	a5,a5,a4
   14fc8:	9bf1                	and	a5,a5,-4
   14fca:	0791                	add	a5,a5,4
   14fcc:	973e                	add	a4,a4,a5
   14fce:	95be                	add	a1,a1,a5
   14fd0:	01176563          	bltu	a4,a7,14fda <memcpy+0x124>
   14fd4:	4432                	lw	s0,12(sp)
   14fd6:	0141                	add	sp,sp,16
   14fd8:	8082                	ret
   14fda:	0005c783          	lbu	a5,0(a1)
   14fde:	0705                	add	a4,a4,1
   14fe0:	0585                	add	a1,a1,1
   14fe2:	fef70fa3          	sb	a5,-1(a4)
   14fe6:	fee887e3          	beq	a7,a4,14fd4 <memcpy+0x11e>
   14fea:	0005c783          	lbu	a5,0(a1)
   14fee:	0705                	add	a4,a4,1
   14ff0:	0585                	add	a1,a1,1
   14ff2:	fef70fa3          	sb	a5,-1(a4)
   14ff6:	fee892e3          	bne	a7,a4,14fda <memcpy+0x124>
   14ffa:	bfe9                	j	14fd4 <memcpy+0x11e>

00014ffc <strlen>:
   14ffc:	00357793          	and	a5,a0,3
   15000:	872a                	mv	a4,a0
   15002:	ef9d                	bnez	a5,15040 <strlen+0x44>
   15004:	7f7f86b7          	lui	a3,0x7f7f8
   15008:	f7f68693          	add	a3,a3,-129 # 7f7f7f7f <__BSS_END__+0x7f7da237>
   1500c:	55fd                	li	a1,-1
   1500e:	4310                	lw	a2,0(a4)
   15010:	0711                	add	a4,a4,4
   15012:	00d677b3          	and	a5,a2,a3
   15016:	97b6                	add	a5,a5,a3
   15018:	8fd1                	or	a5,a5,a2
   1501a:	8fd5                	or	a5,a5,a3
   1501c:	feb789e3          	beq	a5,a1,1500e <strlen+0x12>
   15020:	ffc74683          	lbu	a3,-4(a4)
   15024:	40a707b3          	sub	a5,a4,a0
   15028:	ca8d                	beqz	a3,1505a <strlen+0x5e>
   1502a:	ffd74683          	lbu	a3,-3(a4)
   1502e:	c29d                	beqz	a3,15054 <strlen+0x58>
   15030:	ffe74503          	lbu	a0,-2(a4)
   15034:	00a03533          	snez	a0,a0
   15038:	953e                	add	a0,a0,a5
   1503a:	1579                	add	a0,a0,-2
   1503c:	8082                	ret
   1503e:	d2f9                	beqz	a3,15004 <strlen+0x8>
   15040:	00074783          	lbu	a5,0(a4)
   15044:	0705                	add	a4,a4,1
   15046:	00377693          	and	a3,a4,3
   1504a:	fbf5                	bnez	a5,1503e <strlen+0x42>
   1504c:	8f09                	sub	a4,a4,a0
   1504e:	fff70513          	add	a0,a4,-1
   15052:	8082                	ret
   15054:	ffd78513          	add	a0,a5,-3
   15058:	8082                	ret
   1505a:	ffc78513          	add	a0,a5,-4
   1505e:	8082                	ret

00015060 <strcpy>:
   15060:	00b567b3          	or	a5,a0,a1
   15064:	8b8d                	and	a5,a5,3
   15066:	efb1                	bnez	a5,150c2 <strcpy+0x62>
   15068:	4198                	lw	a4,0(a1)
   1506a:	7f7f86b7          	lui	a3,0x7f7f8
   1506e:	f7f68693          	add	a3,a3,-129 # 7f7f7f7f <__BSS_END__+0x7f7da237>
   15072:	00d777b3          	and	a5,a4,a3
   15076:	97b6                	add	a5,a5,a3
   15078:	8fd9                	or	a5,a5,a4
   1507a:	8fd5                	or	a5,a5,a3
   1507c:	567d                	li	a2,-1
   1507e:	04c79b63          	bne	a5,a2,150d4 <strcpy+0x74>
   15082:	862a                	mv	a2,a0
   15084:	587d                	li	a6,-1
   15086:	c218                	sw	a4,0(a2)
   15088:	41d8                	lw	a4,4(a1)
   1508a:	0591                	add	a1,a1,4
   1508c:	0611                	add	a2,a2,4
   1508e:	00d777b3          	and	a5,a4,a3
   15092:	97b6                	add	a5,a5,a3
   15094:	8fd9                	or	a5,a5,a4
   15096:	8fd5                	or	a5,a5,a3
   15098:	ff0787e3          	beq	a5,a6,15086 <strcpy+0x26>
   1509c:	0005c783          	lbu	a5,0(a1)
   150a0:	0015c703          	lbu	a4,1(a1)
   150a4:	0025c683          	lbu	a3,2(a1)
   150a8:	00f60023          	sb	a5,0(a2)
   150ac:	c799                	beqz	a5,150ba <strcpy+0x5a>
   150ae:	00e600a3          	sb	a4,1(a2)
   150b2:	c701                	beqz	a4,150ba <strcpy+0x5a>
   150b4:	00d60123          	sb	a3,2(a2)
   150b8:	e291                	bnez	a3,150bc <strcpy+0x5c>
   150ba:	8082                	ret
   150bc:	000601a3          	sb	zero,3(a2)
   150c0:	8082                	ret
   150c2:	87aa                	mv	a5,a0
   150c4:	0005c703          	lbu	a4,0(a1)
   150c8:	0785                	add	a5,a5,1
   150ca:	0585                	add	a1,a1,1
   150cc:	fee78fa3          	sb	a4,-1(a5)
   150d0:	fb75                	bnez	a4,150c4 <strcpy+0x64>
   150d2:	8082                	ret
   150d4:	862a                	mv	a2,a0
   150d6:	b7d9                	j	1509c <strcpy+0x3c>

000150d8 <strcmp>:
   150d8:	00b56733          	or	a4,a0,a1
   150dc:	53fd                	li	t2,-1
   150de:	8b0d                	and	a4,a4,3
   150e0:	e779                	bnez	a4,151ae <strcmp+0xd6>
   150e2:	7f7f87b7          	lui	a5,0x7f7f8
   150e6:	f7f78793          	add	a5,a5,-129 # 7f7f7f7f <__BSS_END__+0x7f7da237>
   150ea:	4110                	lw	a2,0(a0)
   150ec:	4194                	lw	a3,0(a1)
   150ee:	00f672b3          	and	t0,a2,a5
   150f2:	00f66333          	or	t1,a2,a5
   150f6:	92be                	add	t0,t0,a5
   150f8:	0062e2b3          	or	t0,t0,t1
   150fc:	0c729763          	bne	t0,t2,151ca <strcmp+0xf2>
   15100:	06d61863          	bne	a2,a3,15170 <strcmp+0x98>
   15104:	4150                	lw	a2,4(a0)
   15106:	41d4                	lw	a3,4(a1)
   15108:	00f672b3          	and	t0,a2,a5
   1510c:	00f66333          	or	t1,a2,a5
   15110:	92be                	add	t0,t0,a5
   15112:	0062e2b3          	or	t0,t0,t1
   15116:	0a729863          	bne	t0,t2,151c6 <strcmp+0xee>
   1511a:	04d61b63          	bne	a2,a3,15170 <strcmp+0x98>
   1511e:	4510                	lw	a2,8(a0)
   15120:	4594                	lw	a3,8(a1)
   15122:	00f672b3          	and	t0,a2,a5
   15126:	00f66333          	or	t1,a2,a5
   1512a:	92be                	add	t0,t0,a5
   1512c:	0062e2b3          	or	t0,t0,t1
   15130:	0a729163          	bne	t0,t2,151d2 <strcmp+0xfa>
   15134:	02d61e63          	bne	a2,a3,15170 <strcmp+0x98>
   15138:	4550                	lw	a2,12(a0)
   1513a:	45d4                	lw	a3,12(a1)
   1513c:	00f672b3          	and	t0,a2,a5
   15140:	00f66333          	or	t1,a2,a5
   15144:	92be                	add	t0,t0,a5
   15146:	0062e2b3          	or	t0,t0,t1
   1514a:	08729a63          	bne	t0,t2,151de <strcmp+0x106>
   1514e:	02d61163          	bne	a2,a3,15170 <strcmp+0x98>
   15152:	4910                	lw	a2,16(a0)
   15154:	4994                	lw	a3,16(a1)
   15156:	00f672b3          	and	t0,a2,a5
   1515a:	00f66333          	or	t1,a2,a5
   1515e:	92be                	add	t0,t0,a5
   15160:	0062e2b3          	or	t0,t0,t1
   15164:	08729363          	bne	t0,t2,151ea <strcmp+0x112>
   15168:	0551                	add	a0,a0,20
   1516a:	05d1                	add	a1,a1,20
   1516c:	f6d60fe3          	beq	a2,a3,150ea <strcmp+0x12>
   15170:	01061713          	sll	a4,a2,0x10
   15174:	01069793          	sll	a5,a3,0x10
   15178:	00f71c63          	bne	a4,a5,15190 <strcmp+0xb8>
   1517c:	01065713          	srl	a4,a2,0x10
   15180:	0106d793          	srl	a5,a3,0x10
   15184:	40f70533          	sub	a0,a4,a5
   15188:	0ff57593          	zext.b	a1,a0
   1518c:	e991                	bnez	a1,151a0 <strcmp+0xc8>
   1518e:	8082                	ret
   15190:	8341                	srl	a4,a4,0x10
   15192:	83c1                	srl	a5,a5,0x10
   15194:	40f70533          	sub	a0,a4,a5
   15198:	0ff57593          	zext.b	a1,a0
   1519c:	e191                	bnez	a1,151a0 <strcmp+0xc8>
   1519e:	8082                	ret
   151a0:	0ff77713          	zext.b	a4,a4
   151a4:	0ff7f793          	zext.b	a5,a5
   151a8:	40f70533          	sub	a0,a4,a5
   151ac:	8082                	ret
   151ae:	00054603          	lbu	a2,0(a0)
   151b2:	0005c683          	lbu	a3,0(a1)
   151b6:	0505                	add	a0,a0,1
   151b8:	0585                	add	a1,a1,1
   151ba:	00d61363          	bne	a2,a3,151c0 <strcmp+0xe8>
   151be:	fa65                	bnez	a2,151ae <strcmp+0xd6>
   151c0:	40d60533          	sub	a0,a2,a3
   151c4:	8082                	ret
   151c6:	0511                	add	a0,a0,4
   151c8:	0591                	add	a1,a1,4
   151ca:	fed612e3          	bne	a2,a3,151ae <strcmp+0xd6>
   151ce:	4501                	li	a0,0
   151d0:	8082                	ret
   151d2:	0521                	add	a0,a0,8
   151d4:	05a1                	add	a1,a1,8
   151d6:	fcd61ce3          	bne	a2,a3,151ae <strcmp+0xd6>
   151da:	4501                	li	a0,0
   151dc:	8082                	ret
   151de:	0531                	add	a0,a0,12
   151e0:	05b1                	add	a1,a1,12
   151e2:	fcd616e3          	bne	a2,a3,151ae <strcmp+0xd6>
   151e6:	4501                	li	a0,0
   151e8:	8082                	ret
   151ea:	0541                	add	a0,a0,16
   151ec:	05c1                	add	a1,a1,16
   151ee:	fcd610e3          	bne	a2,a3,151ae <strcmp+0xd6>
   151f2:	4501                	li	a0,0
   151f4:	8082                	ret

000151f6 <__libc_init_array>:
   151f6:	1141                	add	sp,sp,-16
   151f8:	c422                	sw	s0,8(sp)
   151fa:	c04a                	sw	s2,0(sp)
   151fc:	00008797          	auipc	a5,0x8
   15200:	e0878793          	add	a5,a5,-504 # 1d004 <__init_array_start>
   15204:	00008417          	auipc	s0,0x8
   15208:	e0040413          	add	s0,s0,-512 # 1d004 <__init_array_start>
   1520c:	c606                	sw	ra,12(sp)
   1520e:	c226                	sw	s1,4(sp)
   15210:	40878933          	sub	s2,a5,s0
   15214:	00878b63          	beq	a5,s0,1522a <__libc_init_array+0x34>
   15218:	40295913          	sra	s2,s2,0x2
   1521c:	4481                	li	s1,0
   1521e:	401c                	lw	a5,0(s0)
   15220:	0485                	add	s1,s1,1
   15222:	0411                	add	s0,s0,4
   15224:	9782                	jalr	a5
   15226:	ff24ece3          	bltu	s1,s2,1521e <__libc_init_array+0x28>
   1522a:	00008797          	auipc	a5,0x8
   1522e:	de278793          	add	a5,a5,-542 # 1d00c <__do_global_dtors_aux_fini_array_entry>
   15232:	00008417          	auipc	s0,0x8
   15236:	dd240413          	add	s0,s0,-558 # 1d004 <__init_array_start>
   1523a:	40878933          	sub	s2,a5,s0
   1523e:	40295913          	sra	s2,s2,0x2
   15242:	00878963          	beq	a5,s0,15254 <__libc_init_array+0x5e>
   15246:	4481                	li	s1,0
   15248:	401c                	lw	a5,0(s0)
   1524a:	0485                	add	s1,s1,1
   1524c:	0411                	add	s0,s0,4
   1524e:	9782                	jalr	a5
   15250:	ff24ece3          	bltu	s1,s2,15248 <__libc_init_array+0x52>
   15254:	40b2                	lw	ra,12(sp)
   15256:	4422                	lw	s0,8(sp)
   15258:	4492                	lw	s1,4(sp)
   1525a:	4902                	lw	s2,0(sp)
   1525c:	0141                	add	sp,sp,16
   1525e:	8082                	ret

00015260 <__libc_fini_array>:
   15260:	1141                	add	sp,sp,-16
   15262:	c422                	sw	s0,8(sp)
   15264:	00008797          	auipc	a5,0x8
   15268:	da878793          	add	a5,a5,-600 # 1d00c <__do_global_dtors_aux_fini_array_entry>
   1526c:	00008417          	auipc	s0,0x8
   15270:	da440413          	add	s0,s0,-604 # 1d010 <__sglue>
   15274:	8c1d                	sub	s0,s0,a5
   15276:	c226                	sw	s1,4(sp)
   15278:	c606                	sw	ra,12(sp)
   1527a:	40245493          	sra	s1,s0,0x2
   1527e:	c881                	beqz	s1,1528e <__libc_fini_array+0x2e>
   15280:	1471                	add	s0,s0,-4
   15282:	943e                	add	s0,s0,a5
   15284:	401c                	lw	a5,0(s0)
   15286:	14fd                	add	s1,s1,-1
   15288:	1471                	add	s0,s0,-4
   1528a:	9782                	jalr	a5
   1528c:	fce5                	bnez	s1,15284 <__libc_fini_array+0x24>
   1528e:	40b2                	lw	ra,12(sp)
   15290:	4422                	lw	s0,8(sp)
   15292:	4492                	lw	s1,4(sp)
   15294:	0141                	add	sp,sp,16
   15296:	8082                	ret

00015298 <__retarget_lock_init>:
   15298:	8082                	ret

0001529a <__retarget_lock_init_recursive>:
   1529a:	8082                	ret

0001529c <__retarget_lock_close>:
   1529c:	8082                	ret

0001529e <__retarget_lock_close_recursive>:
   1529e:	8082                	ret

000152a0 <__retarget_lock_acquire>:
   152a0:	8082                	ret

000152a2 <__retarget_lock_acquire_recursive>:
   152a2:	8082                	ret

000152a4 <__retarget_lock_try_acquire>:
   152a4:	4505                	li	a0,1
   152a6:	8082                	ret

000152a8 <__retarget_lock_try_acquire_recursive>:
   152a8:	4505                	li	a0,1
   152aa:	8082                	ret

000152ac <__retarget_lock_release>:
   152ac:	8082                	ret

000152ae <__retarget_lock_release_recursive>:
   152ae:	8082                	ret

000152b0 <_wcrtomb_r>:
   152b0:	1101                	add	sp,sp,-32
   152b2:	cc22                	sw	s0,24(sp)
   152b4:	ca26                	sw	s1,20(sp)
   152b6:	ce06                	sw	ra,28(sp)
   152b8:	84aa                	mv	s1,a0
   152ba:	10450413          	add	s0,a0,260
   152be:	c291                	beqz	a3,152c2 <_wcrtomb_r+0x12>
   152c0:	8436                	mv	s0,a3
   152c2:	8ec1a783          	lw	a5,-1812(gp) # 1d0fc <__global_locale+0xe0>
   152c6:	86a2                	mv	a3,s0
   152c8:	c999                	beqz	a1,152de <_wcrtomb_r+0x2e>
   152ca:	8526                	mv	a0,s1
   152cc:	9782                	jalr	a5
   152ce:	57fd                	li	a5,-1
   152d0:	00f50e63          	beq	a0,a5,152ec <_wcrtomb_r+0x3c>
   152d4:	40f2                	lw	ra,28(sp)
   152d6:	4462                	lw	s0,24(sp)
   152d8:	44d2                	lw	s1,20(sp)
   152da:	6105                	add	sp,sp,32
   152dc:	8082                	ret
   152de:	4601                	li	a2,0
   152e0:	004c                	add	a1,sp,4
   152e2:	8526                	mv	a0,s1
   152e4:	9782                	jalr	a5
   152e6:	57fd                	li	a5,-1
   152e8:	fef516e3          	bne	a0,a5,152d4 <_wcrtomb_r+0x24>
   152ec:	00042023          	sw	zero,0(s0)
   152f0:	40f2                	lw	ra,28(sp)
   152f2:	4462                	lw	s0,24(sp)
   152f4:	08a00793          	li	a5,138
   152f8:	c09c                	sw	a5,0(s1)
   152fa:	44d2                	lw	s1,20(sp)
   152fc:	6105                	add	sp,sp,32
   152fe:	8082                	ret

00015300 <wcrtomb>:
   15300:	1101                	add	sp,sp,-32
   15302:	cc22                	sw	s0,24(sp)
   15304:	ca26                	sw	s1,20(sp)
   15306:	8432                	mv	s0,a2
   15308:	ce06                	sw	ra,28(sp)
   1530a:	862e                	mv	a2,a1
   1530c:	f2c1a483          	lw	s1,-212(gp) # 1d73c <_impure_ptr>
   15310:	c005                	beqz	s0,15330 <wcrtomb+0x30>
   15312:	8ec1a783          	lw	a5,-1812(gp) # 1d0fc <__global_locale+0xe0>
   15316:	86a2                	mv	a3,s0
   15318:	c115                	beqz	a0,1533c <wcrtomb+0x3c>
   1531a:	85aa                	mv	a1,a0
   1531c:	8526                	mv	a0,s1
   1531e:	9782                	jalr	a5
   15320:	57fd                	li	a5,-1
   15322:	02f50463          	beq	a0,a5,1534a <wcrtomb+0x4a>
   15326:	40f2                	lw	ra,28(sp)
   15328:	4462                	lw	s0,24(sp)
   1532a:	44d2                	lw	s1,20(sp)
   1532c:	6105                	add	sp,sp,32
   1532e:	8082                	ret
   15330:	10448413          	add	s0,s1,260
   15334:	8ec1a783          	lw	a5,-1812(gp) # 1d0fc <__global_locale+0xe0>
   15338:	86a2                	mv	a3,s0
   1533a:	f165                	bnez	a0,1531a <wcrtomb+0x1a>
   1533c:	4601                	li	a2,0
   1533e:	004c                	add	a1,sp,4
   15340:	8526                	mv	a0,s1
   15342:	9782                	jalr	a5
   15344:	57fd                	li	a5,-1
   15346:	fef510e3          	bne	a0,a5,15326 <wcrtomb+0x26>
   1534a:	00042023          	sw	zero,0(s0)
   1534e:	40f2                	lw	ra,28(sp)
   15350:	4462                	lw	s0,24(sp)
   15352:	08a00793          	li	a5,138
   15356:	c09c                	sw	a5,0(s1)
   15358:	44d2                	lw	s1,20(sp)
   1535a:	6105                	add	sp,sp,32
   1535c:	8082                	ret

0001535e <_wcsrtombs_r>:
   1535e:	87ba                	mv	a5,a4
   15360:	8736                	mv	a4,a3
   15362:	56fd                	li	a3,-1
   15364:	1220406f          	j	19486 <_wcsnrtombs_r>

00015368 <wcsrtombs>:
   15368:	8732                	mv	a4,a2
   1536a:	87b6                	mv	a5,a3
   1536c:	862e                	mv	a2,a1
   1536e:	56fd                	li	a3,-1
   15370:	85aa                	mv	a1,a0
   15372:	f2c1a503          	lw	a0,-212(gp) # 1d73c <_impure_ptr>
   15376:	1100406f          	j	19486 <_wcsnrtombs_r>

0001537a <__set_ctype>:
   1537a:	00007797          	auipc	a5,0x7
   1537e:	12a78793          	add	a5,a5,298 # 1c4a4 <_ctype_>
   15382:	0ef52623          	sw	a5,236(a0)
   15386:	8082                	ret

00015388 <__register_exitproc>:
   15388:	1101                	add	sp,sp,-32
   1538a:	c84a                	sw	s2,16(sp)
   1538c:	f3018913          	add	s2,gp,-208 # 1d740 <__atexit_recursive_mutex>
   15390:	cc22                	sw	s0,24(sp)
   15392:	842a                	mv	s0,a0
   15394:	00092503          	lw	a0,0(s2)
   15398:	ca26                	sw	s1,20(sp)
   1539a:	c64e                	sw	s3,12(sp)
   1539c:	c452                	sw	s4,8(sp)
   1539e:	ce06                	sw	ra,28(sp)
   153a0:	84ae                	mv	s1,a1
   153a2:	8a32                	mv	s4,a2
   153a4:	89b6                	mv	s3,a3
   153a6:	3df5                	jal	152a2 <__retarget_lock_acquire_recursive>
   153a8:	f6c18713          	add	a4,gp,-148 # 1d77c <__atexit>
   153ac:	431c                	lw	a5,0(a4)
   153ae:	cfb9                	beqz	a5,1540c <__register_exitproc+0x84>
   153b0:	43d8                	lw	a4,4(a5)
   153b2:	45fd                	li	a1,31
   153b4:	00092503          	lw	a0,0(s2)
   153b8:	04e5ce63          	blt	a1,a4,15414 <__register_exitproc+0x8c>
   153bc:	00271593          	sll	a1,a4,0x2
   153c0:	ec19                	bnez	s0,153de <__register_exitproc+0x56>
   153c2:	0705                	add	a4,a4,1
   153c4:	c3d8                	sw	a4,4(a5)
   153c6:	97ae                	add	a5,a5,a1
   153c8:	c784                	sw	s1,8(a5)
   153ca:	35d5                	jal	152ae <__retarget_lock_release_recursive>
   153cc:	4501                	li	a0,0
   153ce:	40f2                	lw	ra,28(sp)
   153d0:	4462                	lw	s0,24(sp)
   153d2:	44d2                	lw	s1,20(sp)
   153d4:	4942                	lw	s2,16(sp)
   153d6:	49b2                	lw	s3,12(sp)
   153d8:	4a22                	lw	s4,8(sp)
   153da:	6105                	add	sp,sp,32
   153dc:	8082                	ret
   153de:	00b78833          	add	a6,a5,a1
   153e2:	09482423          	sw	s4,136(a6)
   153e6:	1887a683          	lw	a3,392(a5)
   153ea:	4605                	li	a2,1
   153ec:	00e61633          	sll	a2,a2,a4
   153f0:	8ed1                	or	a3,a3,a2
   153f2:	18d7a423          	sw	a3,392(a5)
   153f6:	11382423          	sw	s3,264(a6)
   153fa:	4689                	li	a3,2
   153fc:	fcd413e3          	bne	s0,a3,153c2 <__register_exitproc+0x3a>
   15400:	18c7a683          	lw	a3,396(a5)
   15404:	8ed1                	or	a3,a3,a2
   15406:	18d7a623          	sw	a3,396(a5)
   1540a:	bf65                	j	153c2 <__register_exitproc+0x3a>
   1540c:	38018793          	add	a5,gp,896 # 1db90 <__atexit0>
   15410:	c31c                	sw	a5,0(a4)
   15412:	bf79                	j	153b0 <__register_exitproc+0x28>
   15414:	3d69                	jal	152ae <__retarget_lock_release_recursive>
   15416:	557d                	li	a0,-1
   15418:	bf5d                	j	153ce <__register_exitproc+0x46>

0001541a <frexp>:
   1541a:	1141                	add	sp,sp,-16
   1541c:	c226                	sw	s1,4(sp)
   1541e:	800004b7          	lui	s1,0x80000
   15422:	c422                	sw	s0,8(sp)
   15424:	c606                	sw	ra,12(sp)
   15426:	14fd                	add	s1,s1,-1 # 7fffffff <__BSS_END__+0x7ffe22b7>
   15428:	8432                	mv	s0,a2
   1542a:	00062023          	sw	zero,0(a2)
   1542e:	00b4f6b3          	and	a3,s1,a1
   15432:	7ff00637          	lui	a2,0x7ff00
   15436:	87ae                	mv	a5,a1
   15438:	872a                	mv	a4,a0
   1543a:	02c6f763          	bgeu	a3,a2,15468 <frexp+0x4e>
   1543e:	00a6e633          	or	a2,a3,a0
   15442:	c21d                	beqz	a2,15468 <frexp+0x4e>
   15444:	0145d613          	srl	a2,a1,0x14
   15448:	7ff67613          	and	a2,a2,2047
   1544c:	c60d                	beqz	a2,15476 <frexp+0x5c>
   1544e:	4581                	li	a1,0
   15450:	80100637          	lui	a2,0x80100
   15454:	86d1                	sra	a3,a3,0x14
   15456:	167d                	add	a2,a2,-1 # 800fffff <__BSS_END__+0x800e22b7>
   15458:	c0268693          	add	a3,a3,-1022
   1545c:	8ff1                	and	a5,a5,a2
   1545e:	96ae                	add	a3,a3,a1
   15460:	3fe00637          	lui	a2,0x3fe00
   15464:	8fd1                	or	a5,a5,a2
   15466:	c014                	sw	a3,0(s0)
   15468:	40b2                	lw	ra,12(sp)
   1546a:	4422                	lw	s0,8(sp)
   1546c:	4492                	lw	s1,4(sp)
   1546e:	853a                	mv	a0,a4
   15470:	85be                	mv	a1,a5
   15472:	0141                	add	sp,sp,16
   15474:	8082                	ret
   15476:	00008797          	auipc	a5,0x8
   1547a:	27a78793          	add	a5,a5,634 # 1d6f0 <__SDATA_BEGIN__+0x20>
   1547e:	43d4                	lw	a3,4(a5)
   15480:	4390                	lw	a2,0(a5)
   15482:	5ca050ef          	jal	1aa4c <__muldf3>
   15486:	87ae                	mv	a5,a1
   15488:	00b4f6b3          	and	a3,s1,a1
   1548c:	872a                	mv	a4,a0
   1548e:	fca00593          	li	a1,-54
   15492:	bf7d                	j	15450 <frexp+0x36>

00015494 <__call_exitprocs>:
   15494:	7179                	add	sp,sp,-48
   15496:	c65e                	sw	s7,12(sp)
   15498:	f3018b93          	add	s7,gp,-208 # 1d740 <__atexit_recursive_mutex>
   1549c:	c85a                	sw	s6,16(sp)
   1549e:	8b2a                	mv	s6,a0
   154a0:	000ba503          	lw	a0,0(s7)
   154a4:	cc52                	sw	s4,24(sp)
   154a6:	f6c18a13          	add	s4,gp,-148 # 1d77c <__atexit>
   154aa:	d04a                	sw	s2,32(sp)
   154ac:	c462                	sw	s8,8(sp)
   154ae:	d606                	sw	ra,44(sp)
   154b0:	8c2e                	mv	s8,a1
   154b2:	df1ff0ef          	jal	152a2 <__retarget_lock_acquire_recursive>
   154b6:	000a2903          	lw	s2,0(s4)
   154ba:	06090663          	beqz	s2,15526 <__call_exitprocs+0x92>
   154be:	ce4e                	sw	s3,28(sp)
   154c0:	ca56                	sw	s5,20(sp)
   154c2:	d422                	sw	s0,40(sp)
   154c4:	d226                	sw	s1,36(sp)
   154c6:	c266                	sw	s9,4(sp)
   154c8:	59fd                	li	s3,-1
   154ca:	4a85                	li	s5,1
   154cc:	00492483          	lw	s1,4(s2)
   154d0:	fff48413          	add	s0,s1,-1
   154d4:	04044463          	bltz	s0,1551c <__call_exitprocs+0x88>
   154d8:	048a                	sll	s1,s1,0x2
   154da:	94ca                	add	s1,s1,s2
   154dc:	060c1063          	bnez	s8,1553c <__call_exitprocs+0xa8>
   154e0:	00492783          	lw	a5,4(s2)
   154e4:	40d4                	lw	a3,4(s1)
   154e6:	17fd                	add	a5,a5,-1
   154e8:	08878463          	beq	a5,s0,15570 <__call_exitprocs+0xdc>
   154ec:	0004a223          	sw	zero,4(s1)
   154f0:	c295                	beqz	a3,15514 <__call_exitprocs+0x80>
   154f2:	18892783          	lw	a5,392(s2)
   154f6:	008a9733          	sll	a4,s5,s0
   154fa:	00492c83          	lw	s9,4(s2)
   154fe:	8ff9                	and	a5,a5,a4
   15500:	e7b9                	bnez	a5,1554e <__call_exitprocs+0xba>
   15502:	9682                	jalr	a3
   15504:	00492703          	lw	a4,4(s2)
   15508:	000a2783          	lw	a5,0(s4)
   1550c:	05971f63          	bne	a4,s9,1556a <__call_exitprocs+0xd6>
   15510:	05279d63          	bne	a5,s2,1556a <__call_exitprocs+0xd6>
   15514:	147d                	add	s0,s0,-1
   15516:	14f1                	add	s1,s1,-4
   15518:	fd3412e3          	bne	s0,s3,154dc <__call_exitprocs+0x48>
   1551c:	5422                	lw	s0,40(sp)
   1551e:	5492                	lw	s1,36(sp)
   15520:	49f2                	lw	s3,28(sp)
   15522:	4ad2                	lw	s5,20(sp)
   15524:	4c92                	lw	s9,4(sp)
   15526:	000ba503          	lw	a0,0(s7)
   1552a:	50b2                	lw	ra,44(sp)
   1552c:	5902                	lw	s2,32(sp)
   1552e:	4a62                	lw	s4,24(sp)
   15530:	4b42                	lw	s6,16(sp)
   15532:	4bb2                	lw	s7,12(sp)
   15534:	4c22                	lw	s8,8(sp)
   15536:	6145                	add	sp,sp,48
   15538:	d77ff06f          	j	152ae <__retarget_lock_release_recursive>
   1553c:	1044a783          	lw	a5,260(s1)
   15540:	fb8780e3          	beq	a5,s8,154e0 <__call_exitprocs+0x4c>
   15544:	147d                	add	s0,s0,-1
   15546:	14f1                	add	s1,s1,-4
   15548:	ff341ae3          	bne	s0,s3,1553c <__call_exitprocs+0xa8>
   1554c:	bfc1                	j	1551c <__call_exitprocs+0x88>
   1554e:	18c92783          	lw	a5,396(s2)
   15552:	0844a583          	lw	a1,132(s1)
   15556:	8f7d                	and	a4,a4,a5
   15558:	ef19                	bnez	a4,15576 <__call_exitprocs+0xe2>
   1555a:	855a                	mv	a0,s6
   1555c:	9682                	jalr	a3
   1555e:	00492703          	lw	a4,4(s2)
   15562:	000a2783          	lw	a5,0(s4)
   15566:	fb9705e3          	beq	a4,s9,15510 <__call_exitprocs+0x7c>
   1556a:	dbcd                	beqz	a5,1551c <__call_exitprocs+0x88>
   1556c:	893e                	mv	s2,a5
   1556e:	bfb9                	j	154cc <__call_exitprocs+0x38>
   15570:	00892223          	sw	s0,4(s2)
   15574:	bfb5                	j	154f0 <__call_exitprocs+0x5c>
   15576:	852e                	mv	a0,a1
   15578:	9682                	jalr	a3
   1557a:	b769                	j	15504 <__call_exitprocs+0x70>

0001557c <quorem>:
   1557c:	1101                	add	sp,sp,-32
   1557e:	ca26                	sw	s1,20(sp)
   15580:	491c                	lw	a5,16(a0)
   15582:	4984                	lw	s1,16(a1)
   15584:	ce06                	sw	ra,28(sp)
   15586:	1297ca63          	blt	a5,s1,156ba <quorem+0x13e>
   1558a:	14fd                	add	s1,s1,-1
   1558c:	00249313          	sll	t1,s1,0x2
   15590:	cc22                	sw	s0,24(sp)
   15592:	01458413          	add	s0,a1,20
   15596:	c64e                	sw	s3,12(sp)
   15598:	c452                	sw	s4,8(sp)
   1559a:	006409b3          	add	s3,s0,t1
   1559e:	01450a13          	add	s4,a0,20
   155a2:	0009a783          	lw	a5,0(s3)
   155a6:	9352                	add	t1,t1,s4
   155a8:	00032703          	lw	a4,0(t1)
   155ac:	c84a                	sw	s2,16(sp)
   155ae:	c256                	sw	s5,4(sp)
   155b0:	0785                	add	a5,a5,1
   155b2:	02f75933          	divu	s2,a4,a5
   155b6:	8aaa                	mv	s5,a0
   155b8:	08f76263          	bltu	a4,a5,1563c <quorem+0xc0>
   155bc:	6541                	lui	a0,0x10
   155be:	88a2                	mv	a7,s0
   155c0:	8852                	mv	a6,s4
   155c2:	4e81                	li	t4,0
   155c4:	4681                	li	a3,0
   155c6:	157d                	add	a0,a0,-1 # ffff <exit-0x95>
   155c8:	0008a703          	lw	a4,0(a7)
   155cc:	00082e03          	lw	t3,0(a6)
   155d0:	0811                	add	a6,a6,4
   155d2:	00a77633          	and	a2,a4,a0
   155d6:	8341                	srl	a4,a4,0x10
   155d8:	00ae77b3          	and	a5,t3,a0
   155dc:	010e5e13          	srl	t3,t3,0x10
   155e0:	0891                	add	a7,a7,4
   155e2:	03260633          	mul	a2,a2,s2
   155e6:	03270733          	mul	a4,a4,s2
   155ea:	9676                	add	a2,a2,t4
   155ec:	00a67eb3          	and	t4,a2,a0
   155f0:	41d787b3          	sub	a5,a5,t4
   155f4:	8241                	srl	a2,a2,0x10
   155f6:	97b6                	add	a5,a5,a3
   155f8:	4107d693          	sra	a3,a5,0x10
   155fc:	8fe9                	and	a5,a5,a0
   155fe:	9732                	add	a4,a4,a2
   15600:	00a77633          	and	a2,a4,a0
   15604:	8e91                	sub	a3,a3,a2
   15606:	96f2                	add	a3,a3,t3
   15608:	01069613          	sll	a2,a3,0x10
   1560c:	8fd1                	or	a5,a5,a2
   1560e:	fef82e23          	sw	a5,-4(a6)
   15612:	01075e93          	srl	t4,a4,0x10
   15616:	86c1                	sra	a3,a3,0x10
   15618:	fb19f8e3          	bgeu	s3,a7,155c8 <quorem+0x4c>
   1561c:	00032783          	lw	a5,0(t1)
   15620:	ef91                	bnez	a5,1563c <quorem+0xc0>
   15622:	1371                	add	t1,t1,-4
   15624:	006a6663          	bltu	s4,t1,15630 <quorem+0xb4>
   15628:	a801                	j	15638 <quorem+0xbc>
   1562a:	14fd                	add	s1,s1,-1
   1562c:	006a7663          	bgeu	s4,t1,15638 <quorem+0xbc>
   15630:	00032783          	lw	a5,0(t1)
   15634:	1371                	add	t1,t1,-4
   15636:	dbf5                	beqz	a5,1562a <quorem+0xae>
   15638:	009aa823          	sw	s1,16(s5)
   1563c:	8556                	mv	a0,s5
   1563e:	071020ef          	jal	17eae <__mcmp>
   15642:	06054263          	bltz	a0,156a6 <quorem+0x12a>
   15646:	6541                	lui	a0,0x10
   15648:	85d2                	mv	a1,s4
   1564a:	4701                	li	a4,0
   1564c:	157d                	add	a0,a0,-1 # ffff <exit-0x95>
   1564e:	4194                	lw	a3,0(a1)
   15650:	4010                	lw	a2,0(s0)
   15652:	0591                	add	a1,a1,4
   15654:	00a6f7b3          	and	a5,a3,a0
   15658:	00a67833          	and	a6,a2,a0
   1565c:	410787b3          	sub	a5,a5,a6
   15660:	97ba                	add	a5,a5,a4
   15662:	4107d713          	sra	a4,a5,0x10
   15666:	8241                	srl	a2,a2,0x10
   15668:	82c1                	srl	a3,a3,0x10
   1566a:	8f11                	sub	a4,a4,a2
   1566c:	9736                	add	a4,a4,a3
   1566e:	01071693          	sll	a3,a4,0x10
   15672:	8fe9                	and	a5,a5,a0
   15674:	8fd5                	or	a5,a5,a3
   15676:	0411                	add	s0,s0,4
   15678:	fef5ae23          	sw	a5,-4(a1)
   1567c:	8741                	sra	a4,a4,0x10
   1567e:	fc89f8e3          	bgeu	s3,s0,1564e <quorem+0xd2>
   15682:	00249793          	sll	a5,s1,0x2
   15686:	97d2                	add	a5,a5,s4
   15688:	4398                	lw	a4,0(a5)
   1568a:	ef09                	bnez	a4,156a4 <quorem+0x128>
   1568c:	17f1                	add	a5,a5,-4
   1568e:	00fa6663          	bltu	s4,a5,1569a <quorem+0x11e>
   15692:	a039                	j	156a0 <quorem+0x124>
   15694:	14fd                	add	s1,s1,-1
   15696:	00fa7563          	bgeu	s4,a5,156a0 <quorem+0x124>
   1569a:	4398                	lw	a4,0(a5)
   1569c:	17f1                	add	a5,a5,-4
   1569e:	db7d                	beqz	a4,15694 <quorem+0x118>
   156a0:	009aa823          	sw	s1,16(s5)
   156a4:	0905                	add	s2,s2,1
   156a6:	4462                	lw	s0,24(sp)
   156a8:	40f2                	lw	ra,28(sp)
   156aa:	49b2                	lw	s3,12(sp)
   156ac:	4a22                	lw	s4,8(sp)
   156ae:	4a92                	lw	s5,4(sp)
   156b0:	44d2                	lw	s1,20(sp)
   156b2:	854a                	mv	a0,s2
   156b4:	4942                	lw	s2,16(sp)
   156b6:	6105                	add	sp,sp,32
   156b8:	8082                	ret
   156ba:	40f2                	lw	ra,28(sp)
   156bc:	44d2                	lw	s1,20(sp)
   156be:	4501                	li	a0,0
   156c0:	6105                	add	sp,sp,32
   156c2:	8082                	ret

000156c4 <_dtoa_r>:
   156c4:	03852303          	lw	t1,56(a0)
   156c8:	7171                	add	sp,sp,-176
   156ca:	d522                	sw	s0,168(sp)
   156cc:	d326                	sw	s1,164(sp)
   156ce:	d14a                	sw	s2,160(sp)
   156d0:	cd52                	sw	s4,152(sp)
   156d2:	deee                	sw	s11,124(sp)
   156d4:	d706                	sw	ra,172(sp)
   156d6:	cf4e                	sw	s3,156(sp)
   156d8:	cb56                	sw	s5,148(sp)
   156da:	ca3a                	sw	a4,20(sp)
   156dc:	c63e                	sw	a5,12(sp)
   156de:	c446                	sw	a7,8(sp)
   156e0:	d22e                	sw	a1,36(sp)
   156e2:	c032                	sw	a2,0(sp)
   156e4:	842a                	mv	s0,a0
   156e6:	8dae                	mv	s11,a1
   156e8:	84b2                	mv	s1,a2
   156ea:	8a36                	mv	s4,a3
   156ec:	8942                	mv	s2,a6
   156ee:	00030f63          	beqz	t1,1570c <_dtoa_r+0x48>
   156f2:	5d58                	lw	a4,60(a0)
   156f4:	4785                	li	a5,1
   156f6:	859a                	mv	a1,t1
   156f8:	00e797b3          	sll	a5,a5,a4
   156fc:	00e32223          	sw	a4,4(t1)
   15700:	00f32423          	sw	a5,8(t1)
   15704:	114020ef          	jal	17818 <_Bfree>
   15708:	02042c23          	sw	zero,56(s0)
   1570c:	89a6                	mv	s3,s1
   1570e:	4681                	li	a3,0
   15710:	0004d863          	bgez	s1,15720 <_dtoa_r+0x5c>
   15714:	0486                	sll	s1,s1,0x1
   15716:	0014d793          	srl	a5,s1,0x1
   1571a:	c03e                	sw	a5,0(sp)
   1571c:	89be                	mv	s3,a5
   1571e:	4685                	li	a3,1
   15720:	7ff00737          	lui	a4,0x7ff00
   15724:	00d92023          	sw	a3,0(s2)
   15728:	00e9f6b3          	and	a3,s3,a4
   1572c:	42e68d63          	beq	a3,a4,15b66 <_dtoa_r+0x4a2>
   15730:	4482                	lw	s1,0(sp)
   15732:	856e                	mv	a0,s11
   15734:	4601                	li	a2,0
   15736:	85a6                	mv	a1,s1
   15738:	4681                	li	a3,0
   1573a:	cc6e                	sw	s11,24(sp)
   1573c:	ce26                	sw	s1,28(sp)
   1573e:	122050ef          	jal	1a860 <__eqdf2>
   15742:	e915                	bnez	a0,15776 <_dtoa_r+0xb2>
   15744:	4732                	lw	a4,12(sp)
   15746:	4785                	li	a5,1
   15748:	c31c                	sw	a5,0(a4)
   1574a:	4722                	lw	a4,8(sp)
   1574c:	c711                	beqz	a4,15758 <_dtoa_r+0x94>
   1574e:	00006797          	auipc	a5,0x6
   15752:	44f78793          	add	a5,a5,1103 # 1bb9d <__clzsi2+0xbd>
   15756:	c31c                	sw	a5,0(a4)
   15758:	00006a97          	auipc	s5,0x6
   1575c:	444a8a93          	add	s5,s5,1092 # 1bb9c <__clzsi2+0xbc>
   15760:	50ba                	lw	ra,172(sp)
   15762:	542a                	lw	s0,168(sp)
   15764:	549a                	lw	s1,164(sp)
   15766:	590a                	lw	s2,160(sp)
   15768:	49fa                	lw	s3,156(sp)
   1576a:	4a6a                	lw	s4,152(sp)
   1576c:	5df6                	lw	s11,124(sp)
   1576e:	8556                	mv	a0,s5
   15770:	4ada                	lw	s5,148(sp)
   15772:	614d                	add	sp,sp,176
   15774:	8082                	ret
   15776:	8626                	mv	a2,s1
   15778:	10b8                	add	a4,sp,104
   1577a:	10f4                	add	a3,sp,108
   1577c:	85ee                	mv	a1,s11
   1577e:	8522                	mv	a0,s0
   15780:	c95a                	sw	s6,144(sp)
   15782:	c75e                	sw	s7,140(sp)
   15784:	c562                	sw	s8,136(sp)
   15786:	c366                	sw	s9,132(sp)
   15788:	c16a                	sw	s10,128(sp)
   1578a:	0149d913          	srl	s2,s3,0x14
   1578e:	231020ef          	jal	181be <__d2b>
   15792:	84aa                	mv	s1,a0
   15794:	40091263          	bnez	s2,15b98 <_dtoa_r+0x4d4>
   15798:	5aa6                	lw	s5,104(sp)
   1579a:	5936                	lw	s2,108(sp)
   1579c:	02000793          	li	a5,32
   157a0:	9956                	add	s2,s2,s5
   157a2:	43290713          	add	a4,s2,1074
   157a6:	7ce7d463          	bge	a5,a4,15f6e <_dtoa_r+0x8aa>
   157aa:	04000793          	li	a5,64
   157ae:	8f99                	sub	a5,a5,a4
   157b0:	41290513          	add	a0,s2,1042
   157b4:	00f997b3          	sll	a5,s3,a5
   157b8:	00add533          	srl	a0,s11,a0
   157bc:	8d5d                	or	a0,a0,a5
   157be:	00a060ef          	jal	1b7c8 <__floatunsidf>
   157c2:	fe1007b7          	lui	a5,0xfe100
   157c6:	4685                	li	a3,1
   157c8:	872a                	mv	a4,a0
   157ca:	97ae                	add	a5,a5,a1
   157cc:	197d                	add	s2,s2,-1
   157ce:	dc36                	sw	a3,56(sp)
   157d0:	00008697          	auipc	a3,0x8
   157d4:	f2868693          	add	a3,a3,-216 # 1d6f8 <__SDATA_BEGIN__+0x28>
   157d8:	4290                	lw	a2,0(a3)
   157da:	42d4                	lw	a3,4(a3)
   157dc:	853a                	mv	a0,a4
   157de:	85be                	mv	a1,a5
   157e0:	78a050ef          	jal	1af6a <__subdf3>
   157e4:	00008797          	auipc	a5,0x8
   157e8:	f1c78793          	add	a5,a5,-228 # 1d700 <__SDATA_BEGIN__+0x30>
   157ec:	4390                	lw	a2,0(a5)
   157ee:	43d4                	lw	a3,4(a5)
   157f0:	25c050ef          	jal	1aa4c <__muldf3>
   157f4:	00008797          	auipc	a5,0x8
   157f8:	f1478793          	add	a5,a5,-236 # 1d708 <__SDATA_BEGIN__+0x38>
   157fc:	4390                	lw	a2,0(a5)
   157fe:	43d4                	lw	a3,4(a5)
   15800:	384040ef          	jal	19b84 <__adddf3>
   15804:	8b2a                	mv	s6,a0
   15806:	854a                	mv	a0,s2
   15808:	89ae                	mv	s3,a1
   1580a:	751050ef          	jal	1b75a <__floatsidf>
   1580e:	00008797          	auipc	a5,0x8
   15812:	f0278793          	add	a5,a5,-254 # 1d710 <__SDATA_BEGIN__+0x40>
   15816:	4390                	lw	a2,0(a5)
   15818:	43d4                	lw	a3,4(a5)
   1581a:	232050ef          	jal	1aa4c <__muldf3>
   1581e:	862a                	mv	a2,a0
   15820:	86ae                	mv	a3,a1
   15822:	855a                	mv	a0,s6
   15824:	85ce                	mv	a1,s3
   15826:	35e040ef          	jal	19b84 <__adddf3>
   1582a:	8baa                	mv	s7,a0
   1582c:	8b2e                	mv	s6,a1
   1582e:	6c7050ef          	jal	1b6f4 <__fixdfsi>
   15832:	89aa                	mv	s3,a0
   15834:	85da                	mv	a1,s6
   15836:	855e                	mv	a0,s7
   15838:	4601                	li	a2,0
   1583a:	4681                	li	a3,0
   1583c:	14e050ef          	jal	1a98a <__ledf2>
   15840:	00055d63          	bgez	a0,1585a <_dtoa_r+0x196>
   15844:	854e                	mv	a0,s3
   15846:	715050ef          	jal	1b75a <__floatsidf>
   1584a:	865e                	mv	a2,s7
   1584c:	86da                	mv	a3,s6
   1584e:	012050ef          	jal	1a860 <__eqdf2>
   15852:	00a03533          	snez	a0,a0
   15856:	40a989b3          	sub	s3,s3,a0
   1585a:	412a8ab3          	sub	s5,s5,s2
   1585e:	47d9                	li	a5,22
   15860:	fffa8b13          	add	s6,s5,-1
   15864:	6d37e163          	bltu	a5,s3,15f26 <_dtoa_r+0x862>
   15868:	00399713          	sll	a4,s3,0x3
   1586c:	00007797          	auipc	a5,0x7
   15870:	f0478793          	add	a5,a5,-252 # 1c770 <__mprec_tens>
   15874:	97ba                	add	a5,a5,a4
   15876:	4390                	lw	a2,0(a5)
   15878:	43d4                	lw	a3,4(a5)
   1587a:	4562                	lw	a0,24(sp)
   1587c:	45f2                	lw	a1,28(sp)
   1587e:	10c050ef          	jal	1a98a <__ledf2>
   15882:	6c055c63          	bgez	a0,15f5a <_dtoa_r+0x896>
   15886:	19fd                	add	s3,s3,-1
   15888:	da02                	sw	zero,52(sp)
   1588a:	c802                	sw	zero,16(sp)
   1588c:	320b4263          	bltz	s6,15bb0 <_dtoa_r+0x4ec>
   15890:	3209d763          	bgez	s3,15bbe <_dtoa_r+0x4fa>
   15894:	47c2                	lw	a5,16(sp)
   15896:	d04e                	sw	s3,32(sp)
   15898:	413787b3          	sub	a5,a5,s3
   1589c:	c83e                	sw	a5,16(sp)
   1589e:	413007b3          	neg	a5,s3
   158a2:	d83e                	sw	a5,48(sp)
   158a4:	47a5                	li	a5,9
   158a6:	4981                	li	s3,0
   158a8:	3347e163          	bltu	a5,s4,15bca <_dtoa_r+0x506>
   158ac:	4795                	li	a5,5
   158ae:	6d47d563          	bge	a5,s4,15f78 <_dtoa_r+0x8b4>
   158b2:	1a71                	add	s4,s4,-4
   158b4:	478d                	li	a5,3
   158b6:	4901                	li	s2,0
   158b8:	1afa06e3          	beq	s4,a5,16264 <_dtoa_r+0xba0>
   158bc:	1747d9e3          	bge	a5,s4,1622e <_dtoa_r+0xb6a>
   158c0:	4791                	li	a5,4
   158c2:	0efa1de3          	bne	s4,a5,161bc <_dtoa_r+0xaf8>
   158c6:	4785                	li	a5,1
   158c8:	d43e                	sw	a5,40(sp)
   158ca:	4652                	lw	a2,20(sp)
   158cc:	18c058e3          	blez	a2,1625c <_dtoa_r+0xb98>
   158d0:	de32                	sw	a2,60(sp)
   158d2:	8c32                	mv	s8,a2
   158d4:	46dd                	li	a3,23
   158d6:	4705                	li	a4,1
   158d8:	4791                	li	a5,4
   158da:	50c6d7e3          	bge	a3,a2,165e8 <_dtoa_r+0xf24>
   158de:	0786                	sll	a5,a5,0x1
   158e0:	01478693          	add	a3,a5,20
   158e4:	85ba                	mv	a1,a4
   158e6:	0705                	add	a4,a4,1 # 7ff00001 <__BSS_END__+0x7fee22b9>
   158e8:	fed67be3          	bgeu	a2,a3,158de <_dtoa_r+0x21a>
   158ec:	dc4c                	sw	a1,60(s0)
   158ee:	8522                	mv	a0,s0
   158f0:	6bd010ef          	jal	177ac <_Balloc>
   158f4:	8aaa                	mv	s5,a0
   158f6:	4c050ce3          	beqz	a0,165ce <_dtoa_r+0xf0a>
   158fa:	dc08                	sw	a0,56(s0)
   158fc:	47b9                	li	a5,14
   158fe:	3787e663          	bltu	a5,s8,15c6a <_dtoa_r+0x5a6>
   15902:	36090463          	beqz	s2,15c6a <_dtoa_r+0x5a6>
   15906:	5782                	lw	a5,32(sp)
   15908:	18f052e3          	blez	a5,1628c <_dtoa_r+0xbc8>
   1590c:	00f7f713          	and	a4,a5,15
   15910:	070e                	sll	a4,a4,0x3
   15912:	4047dc93          	sra	s9,a5,0x4
   15916:	00007797          	auipc	a5,0x7
   1591a:	e5a78793          	add	a5,a5,-422 # 1c770 <__mprec_tens>
   1591e:	97ba                	add	a5,a5,a4
   15920:	010cf693          	and	a3,s9,16
   15924:	0007a803          	lw	a6,0(a5)
   15928:	43d8                	lw	a4,4(a5)
   1592a:	0e068de3          	beqz	a3,16224 <_dtoa_r+0xb60>
   1592e:	00007797          	auipc	a5,0x7
   15932:	e1a78793          	add	a5,a5,-486 # 1c748 <__mprec_bigtens>
   15936:	5390                	lw	a2,32(a5)
   15938:	53d4                	lw	a3,36(a5)
   1593a:	4562                	lw	a0,24(sp)
   1593c:	45f2                	lw	a1,28(sp)
   1593e:	c4ba                	sw	a4,72(sp)
   15940:	c0c2                	sw	a6,64(sp)
   15942:	15f040ef          	jal	1a2a0 <__divdf3>
   15946:	4806                	lw	a6,64(sp)
   15948:	4726                	lw	a4,72(sp)
   1594a:	00fcfc93          	and	s9,s9,15
   1594e:	832a                	mv	t1,a0
   15950:	8d2e                	mv	s10,a1
   15952:	490d                	li	s2,3
   15954:	020c8f63          	beqz	s9,15992 <_dtoa_r+0x2ce>
   15958:	c0a2                	sw	s0,64(sp)
   1595a:	00007b97          	auipc	s7,0x7
   1595e:	deeb8b93          	add	s7,s7,-530 # 1c748 <__mprec_bigtens>
   15962:	844a                	mv	s0,s2
   15964:	85ba                	mv	a1,a4
   15966:	891a                	mv	s2,t1
   15968:	001cf793          	and	a5,s9,1
   1596c:	cb91                	beqz	a5,15980 <_dtoa_r+0x2bc>
   1596e:	000ba603          	lw	a2,0(s7)
   15972:	004ba683          	lw	a3,4(s7)
   15976:	8542                	mv	a0,a6
   15978:	0405                	add	s0,s0,1
   1597a:	0d2050ef          	jal	1aa4c <__muldf3>
   1597e:	882a                	mv	a6,a0
   15980:	401cdc93          	sra	s9,s9,0x1
   15984:	0ba1                	add	s7,s7,8
   15986:	fe0c91e3          	bnez	s9,15968 <_dtoa_r+0x2a4>
   1598a:	834a                	mv	t1,s2
   1598c:	8922                	mv	s2,s0
   1598e:	4406                	lw	s0,64(sp)
   15990:	872e                	mv	a4,a1
   15992:	86ba                	mv	a3,a4
   15994:	8642                	mv	a2,a6
   15996:	851a                	mv	a0,t1
   15998:	85ea                	mv	a1,s10
   1599a:	107040ef          	jal	1a2a0 <__divdf3>
   1599e:	872a                	mv	a4,a0
   159a0:	87ae                	mv	a5,a1
   159a2:	56d2                	lw	a3,52(sp)
   159a4:	c28d                	beqz	a3,159c6 <_dtoa_r+0x302>
   159a6:	00008697          	auipc	a3,0x8
   159aa:	d7268693          	add	a3,a3,-654 # 1d718 <__SDATA_BEGIN__+0x48>
   159ae:	4290                	lw	a2,0(a3)
   159b0:	42d4                	lw	a3,4(a3)
   159b2:	853a                	mv	a0,a4
   159b4:	85be                	mv	a1,a5
   159b6:	c4ba                	sw	a4,72(sp)
   159b8:	c0be                	sw	a5,64(sp)
   159ba:	7d1040ef          	jal	1a98a <__ledf2>
   159be:	4786                	lw	a5,64(sp)
   159c0:	4726                	lw	a4,72(sp)
   159c2:	2e054ce3          	bltz	a0,164ba <_dtoa_r+0xdf6>
   159c6:	854a                	mv	a0,s2
   159c8:	c6be                	sw	a5,76(sp)
   159ca:	c0ba                	sw	a4,64(sp)
   159cc:	58f050ef          	jal	1b75a <__floatsidf>
   159d0:	4706                	lw	a4,64(sp)
   159d2:	47b6                	lw	a5,76(sp)
   159d4:	863a                	mv	a2,a4
   159d6:	86be                	mv	a3,a5
   159d8:	c4ba                	sw	a4,72(sp)
   159da:	c0be                	sw	a5,64(sp)
   159dc:	070050ef          	jal	1aa4c <__muldf3>
   159e0:	00008697          	auipc	a3,0x8
   159e4:	d4868693          	add	a3,a3,-696 # 1d728 <__SDATA_BEGIN__+0x58>
   159e8:	4290                	lw	a2,0(a3)
   159ea:	42d4                	lw	a3,4(a3)
   159ec:	198040ef          	jal	19b84 <__adddf3>
   159f0:	fcc006b7          	lui	a3,0xfcc00
   159f4:	4786                	lw	a5,64(sp)
   159f6:	4726                	lw	a4,72(sp)
   159f8:	8caa                	mv	s9,a0
   159fa:	00b68bb3          	add	s7,a3,a1
   159fe:	220c0863          	beqz	s8,15c2e <_dtoa_r+0x56a>
   15a02:	5682                	lw	a3,32(sp)
   15a04:	c4e2                	sw	s8,72(sp)
   15a06:	ceb6                	sw	a3,92(sp)
   15a08:	853a                	mv	a0,a4
   15a0a:	85be                	mv	a1,a5
   15a0c:	c6ba                	sw	a4,76(sp)
   15a0e:	c0be                	sw	a5,64(sp)
   15a10:	4e5050ef          	jal	1b6f4 <__fixdfsi>
   15a14:	47a6                	lw	a5,72(sp)
   15a16:	892a                	mv	s2,a0
   15a18:	cce6                	sw	s9,88(sp)
   15a1a:	fff78693          	add	a3,a5,-1
   15a1e:	068e                	sll	a3,a3,0x3
   15a20:	00007797          	auipc	a5,0x7
   15a24:	d5078793          	add	a5,a5,-688 # 1c770 <__mprec_tens>
   15a28:	96be                	add	a3,a3,a5
   15a2a:	429c                	lw	a5,0(a3)
   15a2c:	0046a803          	lw	a6,4(a3) # fcc00004 <__BSS_END__+0xfcbe22bc>
   15a30:	001a8d13          	add	s10,s5,1
   15a34:	c8be                	sw	a5,80(sp)
   15a36:	cac2                	sw	a6,84(sp)
   15a38:	523050ef          	jal	1b75a <__floatsidf>
   15a3c:	4736                	lw	a4,76(sp)
   15a3e:	4786                	lw	a5,64(sp)
   15a40:	862a                	mv	a2,a0
   15a42:	86ae                	mv	a3,a1
   15a44:	853a                	mv	a0,a4
   15a46:	85be                	mv	a1,a5
   15a48:	522050ef          	jal	1af6a <__subdf3>
   15a4c:	5722                	lw	a4,40(sp)
   15a4e:	03090313          	add	t1,s2,48
   15a52:	c0ea                	sw	s10,64(sp)
   15a54:	8caa                	mv	s9,a0
   15a56:	0ff37313          	zext.b	t1,t1
   15a5a:	140705e3          	beqz	a4,163a4 <_dtoa_r+0xce0>
   15a5e:	00008797          	auipc	a5,0x8
   15a62:	c8a78793          	add	a5,a5,-886 # 1d6e8 <__SDATA_BEGIN__+0x18>
   15a66:	4388                	lw	a0,0(a5)
   15a68:	4646                	lw	a2,80(sp)
   15a6a:	46d6                	lw	a3,84(sp)
   15a6c:	c0ae                	sw	a1,64(sp)
   15a6e:	43cc                	lw	a1,4(a5)
   15a70:	c69a                	sw	t1,76(sp)
   15a72:	02f040ef          	jal	1a2a0 <__divdf3>
   15a76:	4666                	lw	a2,88(sp)
   15a78:	86de                	mv	a3,s7
   15a7a:	4f0050ef          	jal	1af6a <__subdf3>
   15a7e:	4886                	lw	a7,64(sp)
   15a80:	4336                	lw	t1,76(sp)
   15a82:	8666                	mv	a2,s9
   15a84:	86c6                	mv	a3,a7
   15a86:	006a8023          	sb	t1,0(s5)
   15a8a:	892a                	mv	s2,a0
   15a8c:	8bae                	mv	s7,a1
   15a8e:	63f040ef          	jal	1a8cc <__gedf2>
   15a92:	4886                	lw	a7,64(sp)
   15a94:	2aa045e3          	bgtz	a0,1653e <_dtoa_r+0xe7a>
   15a98:	00008697          	auipc	a3,0x8
   15a9c:	c8068693          	add	a3,a3,-896 # 1d718 <__SDATA_BEGIN__+0x48>
   15aa0:	429c                	lw	a5,0(a3)
   15aa2:	0046a803          	lw	a6,4(a3)
   15aa6:	c6ce                	sw	s3,76(sp)
   15aa8:	c0be                	sw	a5,64(sp)
   15aaa:	4781                	li	a5,0
   15aac:	c8da                	sw	s6,80(sp)
   15aae:	cce2                	sw	s8,88(sp)
   15ab0:	c2c2                	sw	a6,68(sp)
   15ab2:	4c26                	lw	s8,72(sp)
   15ab4:	8b3e                	mv	s6,a5
   15ab6:	c4d2                	sw	s4,72(sp)
   15ab8:	89c6                	mv	s3,a7
   15aba:	a0a5                	j	15b22 <_dtoa_r+0x45e>
   15abc:	0b05                	add	s6,s6,1
   15abe:	2b8b5ae3          	bge	s6,s8,16572 <_dtoa_r+0xeae>
   15ac2:	00008a17          	auipc	s4,0x8
   15ac6:	c5ea0a13          	add	s4,s4,-930 # 1d720 <__SDATA_BEGIN__+0x50>
   15aca:	000a2603          	lw	a2,0(s4)
   15ace:	004a2683          	lw	a3,4(s4)
   15ad2:	854a                	mv	a0,s2
   15ad4:	85de                	mv	a1,s7
   15ad6:	777040ef          	jal	1aa4c <__muldf3>
   15ada:	000a2603          	lw	a2,0(s4)
   15ade:	004a2683          	lw	a3,4(s4)
   15ae2:	892a                	mv	s2,a0
   15ae4:	8bae                	mv	s7,a1
   15ae6:	8566                	mv	a0,s9
   15ae8:	85ce                	mv	a1,s3
   15aea:	763040ef          	jal	1aa4c <__muldf3>
   15aee:	8cae                	mv	s9,a1
   15af0:	8a2a                	mv	s4,a0
   15af2:	403050ef          	jal	1b6f4 <__fixdfsi>
   15af6:	89aa                	mv	s3,a0
   15af8:	463050ef          	jal	1b75a <__floatsidf>
   15afc:	862a                	mv	a2,a0
   15afe:	86ae                	mv	a3,a1
   15b00:	8552                	mv	a0,s4
   15b02:	85e6                	mv	a1,s9
   15b04:	466050ef          	jal	1af6a <__subdf3>
   15b08:	03098793          	add	a5,s3,48
   15b0c:	864a                	mv	a2,s2
   15b0e:	86de                	mv	a3,s7
   15b10:	00fd0023          	sb	a5,0(s10)
   15b14:	0d05                	add	s10,s10,1
   15b16:	8caa                	mv	s9,a0
   15b18:	89ae                	mv	s3,a1
   15b1a:	671040ef          	jal	1a98a <__ledf2>
   15b1e:	220540e3          	bltz	a0,1653e <_dtoa_r+0xe7a>
   15b22:	4506                	lw	a0,64(sp)
   15b24:	4596                	lw	a1,68(sp)
   15b26:	8666                	mv	a2,s9
   15b28:	86ce                	mv	a3,s3
   15b2a:	440050ef          	jal	1af6a <__subdf3>
   15b2e:	864a                	mv	a2,s2
   15b30:	86de                	mv	a3,s7
   15b32:	659040ef          	jal	1a98a <__ledf2>
   15b36:	f80553e3          	bgez	a0,15abc <_dtoa_r+0x3f8>
   15b3a:	47f6                	lw	a5,92(sp)
   15b3c:	8bea                	mv	s7,s10
   15b3e:	00178c13          	add	s8,a5,1
   15b42:	03900613          	li	a2,57
   15b46:	a019                	j	15b4c <_dtoa_r+0x488>
   15b48:	1d7a8be3          	beq	s5,s7,1651e <_dtoa_r+0xe5a>
   15b4c:	fffbc683          	lbu	a3,-1(s7)
   15b50:	8d5e                	mv	s10,s7
   15b52:	1bfd                	add	s7,s7,-1
   15b54:	fec68ae3          	beq	a3,a2,15b48 <_dtoa_r+0x484>
   15b58:	0685                	add	a3,a3,1
   15b5a:	0ff6f693          	zext.b	a3,a3
   15b5e:	00db8023          	sb	a3,0(s7)
   15b62:	8a62                	mv	s4,s8
   15b64:	aeb9                	j	15ec2 <_dtoa_r+0x7fe>
   15b66:	46b2                	lw	a3,12(sp)
   15b68:	6709                	lui	a4,0x2
   15b6a:	00c99793          	sll	a5,s3,0xc
   15b6e:	70f70713          	add	a4,a4,1807 # 270f <exit-0xd985>
   15b72:	83b1                	srl	a5,a5,0xc
   15b74:	c298                	sw	a4,0(a3)
   15b76:	01b7e7b3          	or	a5,a5,s11
   15b7a:	c3bd                	beqz	a5,15be0 <_dtoa_r+0x51c>
   15b7c:	47a2                	lw	a5,8(sp)
   15b7e:	00006a97          	auipc	s5,0x6
   15b82:	162a8a93          	add	s5,s5,354 # 1bce0 <__clzsi2+0x200>
   15b86:	bc078de3          	beqz	a5,15760 <_dtoa_r+0x9c>
   15b8a:	00006797          	auipc	a5,0x6
   15b8e:	15978793          	add	a5,a5,345 # 1bce3 <__clzsi2+0x203>
   15b92:	4722                	lw	a4,8(sp)
   15b94:	c31c                	sw	a5,0(a4)
   15b96:	b6e9                	j	15760 <_dtoa_r+0x9c>
   15b98:	47f2                	lw	a5,28(sp)
   15b9a:	3ff006b7          	lui	a3,0x3ff00
   15b9e:	5aa6                	lw	s5,104(sp)
   15ba0:	07b2                	sll	a5,a5,0xc
   15ba2:	83b1                	srl	a5,a5,0xc
   15ba4:	4762                	lw	a4,24(sp)
   15ba6:	8fd5                	or	a5,a5,a3
   15ba8:	c0190913          	add	s2,s2,-1023
   15bac:	dc02                	sw	zero,56(sp)
   15bae:	b10d                	j	157d0 <_dtoa_r+0x10c>
   15bb0:	4785                	li	a5,1
   15bb2:	415787b3          	sub	a5,a5,s5
   15bb6:	c83e                	sw	a5,16(sp)
   15bb8:	4b01                	li	s6,0
   15bba:	cc09cde3          	bltz	s3,15894 <_dtoa_r+0x1d0>
   15bbe:	d04e                	sw	s3,32(sp)
   15bc0:	d802                	sw	zero,48(sp)
   15bc2:	47a5                	li	a5,9
   15bc4:	9b4e                	add	s6,s6,s3
   15bc6:	cf47f3e3          	bgeu	a5,s4,158ac <_dtoa_r+0x1e8>
   15bca:	4785                	li	a5,1
   15bcc:	4905                	li	s2,1
   15bce:	4a01                	li	s4,0
   15bd0:	d43e                	sw	a5,40(sp)
   15bd2:	5c7d                	li	s8,-1
   15bd4:	ca02                	sw	zero,20(sp)
   15bd6:	02042e23          	sw	zero,60(s0)
   15bda:	de62                	sw	s8,60(sp)
   15bdc:	4581                	li	a1,0
   15bde:	bb01                	j	158ee <_dtoa_r+0x22a>
   15be0:	4722                	lw	a4,8(sp)
   15be2:	00006a97          	auipc	s5,0x6
   15be6:	0f2a8a93          	add	s5,s5,242 # 1bcd4 <__clzsi2+0x1f4>
   15bea:	00006797          	auipc	a5,0x6
   15bee:	0f278793          	add	a5,a5,242 # 1bcdc <__clzsi2+0x1fc>
   15bf2:	f345                	bnez	a4,15b92 <_dtoa_r+0x4ce>
   15bf4:	b6b5                	j	15760 <_dtoa_r+0x9c>
   15bf6:	854a                	mv	a0,s2
   15bf8:	c6be                	sw	a5,76(sp)
   15bfa:	c0ba                	sw	a4,64(sp)
   15bfc:	35f050ef          	jal	1b75a <__floatsidf>
   15c00:	4706                	lw	a4,64(sp)
   15c02:	47b6                	lw	a5,76(sp)
   15c04:	863a                	mv	a2,a4
   15c06:	86be                	mv	a3,a5
   15c08:	c4ba                	sw	a4,72(sp)
   15c0a:	c0be                	sw	a5,64(sp)
   15c0c:	641040ef          	jal	1aa4c <__muldf3>
   15c10:	00008697          	auipc	a3,0x8
   15c14:	b1868693          	add	a3,a3,-1256 # 1d728 <__SDATA_BEGIN__+0x58>
   15c18:	4290                	lw	a2,0(a3)
   15c1a:	42d4                	lw	a3,4(a3)
   15c1c:	769030ef          	jal	19b84 <__adddf3>
   15c20:	4786                	lw	a5,64(sp)
   15c22:	4726                	lw	a4,72(sp)
   15c24:	fcc006b7          	lui	a3,0xfcc00
   15c28:	8caa                	mv	s9,a0
   15c2a:	00b68bb3          	add	s7,a3,a1
   15c2e:	00008697          	auipc	a3,0x8
   15c32:	b0268693          	add	a3,a3,-1278 # 1d730 <__SDATA_BEGIN__+0x60>
   15c36:	4290                	lw	a2,0(a3)
   15c38:	42d4                	lw	a3,4(a3)
   15c3a:	853a                	mv	a0,a4
   15c3c:	85be                	mv	a1,a5
   15c3e:	32c050ef          	jal	1af6a <__subdf3>
   15c42:	8666                	mv	a2,s9
   15c44:	86de                	mv	a3,s7
   15c46:	8d2a                	mv	s10,a0
   15c48:	892e                	mv	s2,a1
   15c4a:	483040ef          	jal	1a8cc <__gedf2>
   15c4e:	0ca04de3          	bgtz	a0,16528 <_dtoa_r+0xe64>
   15c52:	800007b7          	lui	a5,0x80000
   15c56:	0177c7b3          	xor	a5,a5,s7
   15c5a:	8666                	mv	a2,s9
   15c5c:	856a                	mv	a0,s10
   15c5e:	86be                	mv	a3,a5
   15c60:	85ca                	mv	a1,s2
   15c62:	529040ef          	jal	1a98a <__ledf2>
   15c66:	04054e63          	bltz	a0,15cc2 <_dtoa_r+0x5fe>
   15c6a:	57b6                	lw	a5,108(sp)
   15c6c:	1207c263          	bltz	a5,15d90 <_dtoa_r+0x6cc>
   15c70:	5682                	lw	a3,32(sp)
   15c72:	4739                	li	a4,14
   15c74:	10d74e63          	blt	a4,a3,15d90 <_dtoa_r+0x6cc>
   15c78:	5782                	lw	a5,32(sp)
   15c7a:	00379713          	sll	a4,a5,0x3
   15c7e:	00007797          	auipc	a5,0x7
   15c82:	af278793          	add	a5,a5,-1294 # 1c770 <__mprec_tens>
   15c86:	97ba                	add	a5,a5,a4
   15c88:	0007a903          	lw	s2,0(a5)
   15c8c:	0047a983          	lw	s3,4(a5)
   15c90:	47d2                	lw	a5,20(sp)
   15c92:	0207df63          	bgez	a5,15cd0 <_dtoa_r+0x60c>
   15c96:	03804d63          	bgtz	s8,15cd0 <_dtoa_r+0x60c>
   15c9a:	020c1463          	bnez	s8,15cc2 <_dtoa_r+0x5fe>
   15c9e:	00008797          	auipc	a5,0x8
   15ca2:	a9278793          	add	a5,a5,-1390 # 1d730 <__SDATA_BEGIN__+0x60>
   15ca6:	4390                	lw	a2,0(a5)
   15ca8:	43d4                	lw	a3,4(a5)
   15caa:	854a                	mv	a0,s2
   15cac:	85ce                	mv	a1,s3
   15cae:	59f040ef          	jal	1aa4c <__muldf3>
   15cb2:	862a                	mv	a2,a0
   15cb4:	86ae                	mv	a3,a1
   15cb6:	4562                	lw	a0,24(sp)
   15cb8:	45f2                	lw	a1,28(sp)
   15cba:	4d1040ef          	jal	1a98a <__ledf2>
   15cbe:	06a045e3          	bgtz	a0,16528 <_dtoa_r+0xe64>
   15cc2:	8d56                	mv	s10,s5
   15cc4:	cc02                	sw	zero,24(sp)
   15cc6:	4901                	li	s2,0
   15cc8:	47d2                	lw	a5,20(sp)
   15cca:	fff7ca13          	not	s4,a5
   15cce:	a9a5                	j	16146 <_dtoa_r+0xa82>
   15cd0:	001a8793          	add	a5,s5,1
   15cd4:	c0be                	sw	a5,64(sp)
   15cd6:	4b62                	lw	s6,24(sp)
   15cd8:	4a72                	lw	s4,28(sp)
   15cda:	864a                	mv	a2,s2
   15cdc:	86ce                	mv	a3,s3
   15cde:	855a                	mv	a0,s6
   15ce0:	85d2                	mv	a1,s4
   15ce2:	5be040ef          	jal	1a2a0 <__divdf3>
   15ce6:	20f050ef          	jal	1b6f4 <__fixdfsi>
   15cea:	8d2a                	mv	s10,a0
   15cec:	26f050ef          	jal	1b75a <__floatsidf>
   15cf0:	864a                	mv	a2,s2
   15cf2:	86ce                	mv	a3,s3
   15cf4:	559040ef          	jal	1aa4c <__muldf3>
   15cf8:	862a                	mv	a2,a0
   15cfa:	86ae                	mv	a3,a1
   15cfc:	855a                	mv	a0,s6
   15cfe:	85d2                	mv	a1,s4
   15d00:	26a050ef          	jal	1af6a <__subdf3>
   15d04:	030d0793          	add	a5,s10,48
   15d08:	00fa8023          	sb	a5,0(s5)
   15d0c:	4605                	li	a2,1
   15d0e:	4b86                	lw	s7,64(sp)
   15d10:	872a                	mv	a4,a0
   15d12:	86ae                	mv	a3,a1
   15d14:	5ecc0a63          	beq	s8,a2,16308 <_dtoa_r+0xc44>
   15d18:	00008617          	auipc	a2,0x8
   15d1c:	a0860613          	add	a2,a2,-1528 # 1d720 <__SDATA_BEGIN__+0x50>
   15d20:	421c                	lw	a5,0(a2)
   15d22:	00462803          	lw	a6,4(a2)
   15d26:	4d85                	li	s11,1
   15d28:	c03e                	sw	a5,0(sp)
   15d2a:	c242                	sw	a6,4(sp)
   15d2c:	a081                	j	15d6c <_dtoa_r+0x6a8>
   15d2e:	864a                	mv	a2,s2
   15d30:	86ce                	mv	a3,s3
   15d32:	855a                	mv	a0,s6
   15d34:	85d2                	mv	a1,s4
   15d36:	56a040ef          	jal	1a2a0 <__divdf3>
   15d3a:	1bb050ef          	jal	1b6f4 <__fixdfsi>
   15d3e:	8d2a                	mv	s10,a0
   15d40:	21b050ef          	jal	1b75a <__floatsidf>
   15d44:	864a                	mv	a2,s2
   15d46:	86ce                	mv	a3,s3
   15d48:	505040ef          	jal	1aa4c <__muldf3>
   15d4c:	86ae                	mv	a3,a1
   15d4e:	862a                	mv	a2,a0
   15d50:	85d2                	mv	a1,s4
   15d52:	855a                	mv	a0,s6
   15d54:	216050ef          	jal	1af6a <__subdf3>
   15d58:	0b85                	add	s7,s7,1
   15d5a:	030d0793          	add	a5,s10,48
   15d5e:	0d85                	add	s11,s11,1
   15d60:	fefb8fa3          	sb	a5,-1(s7)
   15d64:	872a                	mv	a4,a0
   15d66:	86ae                	mv	a3,a1
   15d68:	5bbc0063          	beq	s8,s11,16308 <_dtoa_r+0xc44>
   15d6c:	4602                	lw	a2,0(sp)
   15d6e:	85b6                	mv	a1,a3
   15d70:	4692                	lw	a3,4(sp)
   15d72:	853a                	mv	a0,a4
   15d74:	4d9040ef          	jal	1aa4c <__muldf3>
   15d78:	4601                	li	a2,0
   15d7a:	4681                	li	a3,0
   15d7c:	8b2a                	mv	s6,a0
   15d7e:	8a2e                	mv	s4,a1
   15d80:	2e1040ef          	jal	1a860 <__eqdf2>
   15d84:	f54d                	bnez	a0,15d2e <_dtoa_r+0x66a>
   15d86:	5782                	lw	a5,32(sp)
   15d88:	8d5e                	mv	s10,s7
   15d8a:	00178a13          	add	s4,a5,1
   15d8e:	aa15                	j	15ec2 <_dtoa_r+0x7fe>
   15d90:	5722                	lw	a4,40(sp)
   15d92:	18071f63          	bnez	a4,15f30 <_dtoa_r+0x86c>
   15d96:	5bc2                	lw	s7,48(sp)
   15d98:	4cc2                	lw	s9,16(sp)
   15d9a:	d402                	sw	zero,40(sp)
   15d9c:	4901                	li	s2,0
   15d9e:	000c8e63          	beqz	s9,15dba <_dtoa_r+0x6f6>
   15da2:	01605c63          	blez	s6,15dba <_dtoa_r+0x6f6>
   15da6:	87e6                	mv	a5,s9
   15da8:	459b4963          	blt	s6,s9,161fa <_dtoa_r+0xb36>
   15dac:	4742                	lw	a4,16(sp)
   15dae:	40fc8cb3          	sub	s9,s9,a5
   15db2:	40fb0b33          	sub	s6,s6,a5
   15db6:	8f1d                	sub	a4,a4,a5
   15db8:	c83a                	sw	a4,16(sp)
   15dba:	57c2                	lw	a5,48(sp)
   15dbc:	cb99                	beqz	a5,15dd2 <_dtoa_r+0x70e>
   15dbe:	57a2                	lw	a5,40(sp)
   15dc0:	c399                	beqz	a5,15dc6 <_dtoa_r+0x702>
   15dc2:	5a0b9963          	bnez	s7,16374 <_dtoa_r+0xcb0>
   15dc6:	5642                	lw	a2,48(sp)
   15dc8:	85a6                	mv	a1,s1
   15dca:	8522                	mv	a0,s0
   15dcc:	6f7010ef          	jal	17cc2 <__pow5mult>
   15dd0:	84aa                	mv	s1,a0
   15dd2:	4585                	li	a1,1
   15dd4:	8522                	mv	a0,s0
   15dd6:	4e7010ef          	jal	17abc <__i2b>
   15dda:	cc2a                	sw	a0,24(sp)
   15ddc:	36099d63          	bnez	s3,16156 <_dtoa_r+0xa92>
   15de0:	4785                	li	a5,1
   15de2:	3b47d063          	bge	a5,s4,16182 <_dtoa_r+0xabe>
   15de6:	97da                	add	a5,a5,s6
   15de8:	8bfd                	and	a5,a5,31
   15dea:	14078163          	beqz	a5,15f2c <_dtoa_r+0x868>
   15dee:	02000713          	li	a4,32
   15df2:	8f1d                	sub	a4,a4,a5
   15df4:	4691                	li	a3,4
   15df6:	3ae6dc63          	bge	a3,a4,161ae <_dtoa_r+0xaea>
   15dfa:	4771                	li	a4,28
   15dfc:	40f707b3          	sub	a5,a4,a5
   15e00:	4742                	lw	a4,16(sp)
   15e02:	9cbe                	add	s9,s9,a5
   15e04:	9b3e                	add	s6,s6,a5
   15e06:	973e                	add	a4,a4,a5
   15e08:	c83a                	sw	a4,16(sp)
   15e0a:	47c2                	lw	a5,16(sp)
   15e0c:	0cf04f63          	bgtz	a5,15eea <_dtoa_r+0x826>
   15e10:	01605863          	blez	s6,15e20 <_dtoa_r+0x75c>
   15e14:	45e2                	lw	a1,24(sp)
   15e16:	865a                	mv	a2,s6
   15e18:	8522                	mv	a0,s0
   15e1a:	783010ef          	jal	17d9c <__lshift>
   15e1e:	cc2a                	sw	a0,24(sp)
   15e20:	57d2                	lw	a5,52(sp)
   15e22:	ebf9                	bnez	a5,15ef8 <_dtoa_r+0x834>
   15e24:	2f805563          	blez	s8,1610e <_dtoa_r+0xa4a>
   15e28:	57a2                	lw	a5,40(sp)
   15e2a:	18079c63          	bnez	a5,15fc2 <_dtoa_r+0x8fe>
   15e2e:	5782                	lw	a5,32(sp)
   15e30:	00178a13          	add	s4,a5,1
   15e34:	4b62                	lw	s6,24(sp)
   15e36:	4985                	li	s3,1
   15e38:	a809                	j	15e4a <_dtoa_r+0x786>
   15e3a:	85a6                	mv	a1,s1
   15e3c:	4681                	li	a3,0
   15e3e:	4629                	li	a2,10
   15e40:	8522                	mv	a0,s0
   15e42:	1e9010ef          	jal	1782a <__multadd>
   15e46:	84aa                	mv	s1,a0
   15e48:	0985                	add	s3,s3,1
   15e4a:	85da                	mv	a1,s6
   15e4c:	8526                	mv	a0,s1
   15e4e:	f2eff0ef          	jal	1557c <quorem>
   15e52:	03050b93          	add	s7,a0,48
   15e56:	013a87b3          	add	a5,s5,s3
   15e5a:	ff778fa3          	sb	s7,-1(a5)
   15e5e:	fd89cee3          	blt	s3,s8,15e3a <_dtoa_r+0x776>
   15e62:	4985                	li	s3,1
   15e64:	39804963          	bgtz	s8,161f6 <_dtoa_r+0xb32>
   15e68:	99d6                	add	s3,s3,s5
   15e6a:	4c01                	li	s8,0
   15e6c:	85a6                	mv	a1,s1
   15e6e:	4605                	li	a2,1
   15e70:	8522                	mv	a0,s0
   15e72:	72b010ef          	jal	17d9c <__lshift>
   15e76:	45e2                	lw	a1,24(sp)
   15e78:	84aa                	mv	s1,a0
   15e7a:	034020ef          	jal	17eae <__mcmp>
   15e7e:	34a05e63          	blez	a0,161da <_dtoa_r+0xb16>
   15e82:	03900693          	li	a3,57
   15e86:	a019                	j	15e8c <_dtoa_r+0x7c8>
   15e88:	3f3a8c63          	beq	s5,s3,16280 <_dtoa_r+0xbbc>
   15e8c:	fff9c783          	lbu	a5,-1(s3)
   15e90:	8d4e                	mv	s10,s3
   15e92:	19fd                	add	s3,s3,-1
   15e94:	fed78ae3          	beq	a5,a3,15e88 <_dtoa_r+0x7c4>
   15e98:	0785                	add	a5,a5,1
   15e9a:	00f98023          	sb	a5,0(s3)
   15e9e:	45e2                	lw	a1,24(sp)
   15ea0:	8522                	mv	a0,s0
   15ea2:	177010ef          	jal	17818 <_Bfree>
   15ea6:	00090e63          	beqz	s2,15ec2 <_dtoa_r+0x7fe>
   15eaa:	000c0863          	beqz	s8,15eba <_dtoa_r+0x7f6>
   15eae:	012c0663          	beq	s8,s2,15eba <_dtoa_r+0x7f6>
   15eb2:	85e2                	mv	a1,s8
   15eb4:	8522                	mv	a0,s0
   15eb6:	163010ef          	jal	17818 <_Bfree>
   15eba:	85ca                	mv	a1,s2
   15ebc:	8522                	mv	a0,s0
   15ebe:	15b010ef          	jal	17818 <_Bfree>
   15ec2:	85a6                	mv	a1,s1
   15ec4:	8522                	mv	a0,s0
   15ec6:	153010ef          	jal	17818 <_Bfree>
   15eca:	47b2                	lw	a5,12(sp)
   15ecc:	000d0023          	sb	zero,0(s10)
   15ed0:	0147a023          	sw	s4,0(a5)
   15ed4:	47a2                	lw	a5,8(sp)
   15ed6:	c399                	beqz	a5,15edc <_dtoa_r+0x818>
   15ed8:	01a7a023          	sw	s10,0(a5)
   15edc:	4b4a                	lw	s6,144(sp)
   15ede:	4bba                	lw	s7,140(sp)
   15ee0:	4c2a                	lw	s8,136(sp)
   15ee2:	4c9a                	lw	s9,132(sp)
   15ee4:	4d0a                	lw	s10,128(sp)
   15ee6:	87bff06f          	j	15760 <_dtoa_r+0x9c>
   15eea:	85a6                	mv	a1,s1
   15eec:	863e                	mv	a2,a5
   15eee:	8522                	mv	a0,s0
   15ef0:	6ad010ef          	jal	17d9c <__lshift>
   15ef4:	84aa                	mv	s1,a0
   15ef6:	bf29                	j	15e10 <_dtoa_r+0x74c>
   15ef8:	45e2                	lw	a1,24(sp)
   15efa:	8526                	mv	a0,s1
   15efc:	7b3010ef          	jal	17eae <__mcmp>
   15f00:	f20552e3          	bgez	a0,15e24 <_dtoa_r+0x760>
   15f04:	5782                	lw	a5,32(sp)
   15f06:	85a6                	mv	a1,s1
   15f08:	4681                	li	a3,0
   15f0a:	4629                	li	a2,10
   15f0c:	8522                	mv	a0,s0
   15f0e:	fff78b13          	add	s6,a5,-1
   15f12:	119010ef          	jal	1782a <__multadd>
   15f16:	57a2                	lw	a5,40(sp)
   15f18:	84aa                	mv	s1,a0
   15f1a:	ebc9                	bnez	a5,15fac <_dtoa_r+0x8e8>
   15f1c:	5c72                	lw	s8,60(sp)
   15f1e:	67805063          	blez	s8,1657e <_dtoa_r+0xeba>
   15f22:	5a02                	lw	s4,32(sp)
   15f24:	bf01                	j	15e34 <_dtoa_r+0x770>
   15f26:	4785                	li	a5,1
   15f28:	da3e                	sw	a5,52(sp)
   15f2a:	b285                	j	1588a <_dtoa_r+0x1c6>
   15f2c:	47f1                	li	a5,28
   15f2e:	bdc9                	j	15e00 <_dtoa_r+0x73c>
   15f30:	4705                	li	a4,1
   15f32:	33475b63          	bge	a4,s4,16268 <_dtoa_r+0xba4>
   15f36:	57c2                	lw	a5,48(sp)
   15f38:	fffc0b93          	add	s7,s8,-1
   15f3c:	2d77c163          	blt	a5,s7,161fe <_dtoa_r+0xb3a>
   15f40:	41778bb3          	sub	s7,a5,s7
   15f44:	47c2                	lw	a5,16(sp)
   15f46:	41878cb3          	sub	s9,a5,s8
   15f4a:	600c5a63          	bgez	s8,1655e <_dtoa_r+0xe9a>
   15f4e:	4585                	li	a1,1
   15f50:	8522                	mv	a0,s0
   15f52:	36b010ef          	jal	17abc <__i2b>
   15f56:	892a                	mv	s2,a0
   15f58:	b599                	j	15d9e <_dtoa_r+0x6da>
   15f5a:	da02                	sw	zero,52(sp)
   15f5c:	c802                	sw	zero,16(sp)
   15f5e:	c75040e3          	bgtz	s5,15bbe <_dtoa_r+0x4fa>
   15f62:	4785                	li	a5,1
   15f64:	415787b3          	sub	a5,a5,s5
   15f68:	c83e                	sw	a5,16(sp)
   15f6a:	4b01                	li	s6,0
   15f6c:	b989                	j	15bbe <_dtoa_r+0x4fa>
   15f6e:	8f99                	sub	a5,a5,a4
   15f70:	00fd9533          	sll	a0,s11,a5
   15f74:	84bff06f          	j	157be <_dtoa_r+0xfa>
   15f78:	478d                	li	a5,3
   15f7a:	4905                	li	s2,1
   15f7c:	2efa0463          	beq	s4,a5,16264 <_dtoa_r+0xba0>
   15f80:	9547c0e3          	blt	a5,s4,158c0 <_dtoa_r+0x1fc>
   15f84:	4789                	li	a5,2
   15f86:	66fa0663          	beq	s4,a5,165f2 <_dtoa_r+0xf2e>
   15f8a:	02042e23          	sw	zero,60(s0)
   15f8e:	4581                	li	a1,0
   15f90:	8522                	mv	a0,s0
   15f92:	01b010ef          	jal	177ac <_Balloc>
   15f96:	8aaa                	mv	s5,a0
   15f98:	62050b63          	beqz	a0,165ce <_dtoa_r+0xf0a>
   15f9c:	4785                	li	a5,1
   15f9e:	d43e                	sw	a5,40(sp)
   15fa0:	57fd                	li	a5,-1
   15fa2:	dc08                	sw	a0,56(s0)
   15fa4:	de3e                	sw	a5,60(sp)
   15fa6:	5c7d                	li	s8,-1
   15fa8:	ca02                	sw	zero,20(sp)
   15faa:	b1c1                	j	15c6a <_dtoa_r+0x5a6>
   15fac:	85ca                	mv	a1,s2
   15fae:	4681                	li	a3,0
   15fb0:	4629                	li	a2,10
   15fb2:	8522                	mv	a0,s0
   15fb4:	077010ef          	jal	1782a <__multadd>
   15fb8:	5c72                	lw	s8,60(sp)
   15fba:	892a                	mv	s2,a0
   15fbc:	5d805d63          	blez	s8,16596 <_dtoa_r+0xed2>
   15fc0:	d05a                	sw	s6,32(sp)
   15fc2:	01905863          	blez	s9,15fd2 <_dtoa_r+0x90e>
   15fc6:	85ca                	mv	a1,s2
   15fc8:	8666                	mv	a2,s9
   15fca:	8522                	mv	a0,s0
   15fcc:	5d1010ef          	jal	17d9c <__lshift>
   15fd0:	892a                	mv	s2,a0
   15fd2:	8b4a                	mv	s6,s2
   15fd4:	36099863          	bnez	s3,16344 <_dtoa_r+0xc80>
   15fd8:	5792                	lw	a5,36(sp)
   15fda:	fffa8d13          	add	s10,s5,-1
   15fde:	8cd6                	mv	s9,s5
   15fe0:	c856                	sw	s5,16(sp)
   15fe2:	4ae2                	lw	s5,24(sp)
   15fe4:	8b85                	and	a5,a5,1
   15fe6:	9d62                	add	s10,s10,s8
   15fe8:	c03e                	sw	a5,0(sp)
   15fea:	ca6e                	sw	s11,20(sp)
   15fec:	85d6                	mv	a1,s5
   15fee:	8526                	mv	a0,s1
   15ff0:	d8cff0ef          	jal	1557c <quorem>
   15ff4:	8c2a                	mv	s8,a0
   15ff6:	85ca                	mv	a1,s2
   15ff8:	8526                	mv	a0,s1
   15ffa:	6b5010ef          	jal	17eae <__mcmp>
   15ffe:	89aa                	mv	s3,a0
   16000:	865a                	mv	a2,s6
   16002:	85d6                	mv	a1,s5
   16004:	8522                	mv	a0,s0
   16006:	6e5010ef          	jal	17eea <__mdiff>
   1600a:	4558                	lw	a4,12(a0)
   1600c:	030c0b93          	add	s7,s8,48
   16010:	8daa                	mv	s11,a0
   16012:	e335                	bnez	a4,16076 <_dtoa_r+0x9b2>
   16014:	85aa                	mv	a1,a0
   16016:	8526                	mv	a0,s1
   16018:	697010ef          	jal	17eae <__mcmp>
   1601c:	872a                	mv	a4,a0
   1601e:	85ee                	mv	a1,s11
   16020:	8522                	mv	a0,s0
   16022:	8dba                	mv	s11,a4
   16024:	7f4010ef          	jal	17818 <_Bfree>
   16028:	014de6b3          	or	a3,s11,s4
   1602c:	e6cd                	bnez	a3,160d6 <_dtoa_r+0xa12>
   1602e:	4782                	lw	a5,0(sp)
   16030:	50078b63          	beqz	a5,16546 <_dtoa_r+0xe82>
   16034:	5209c163          	bltz	s3,16556 <_dtoa_r+0xe92>
   16038:	017c8023          	sb	s7,0(s9)
   1603c:	001c8993          	add	s3,s9,1
   16040:	479d0163          	beq	s10,s9,164a2 <_dtoa_r+0xdde>
   16044:	85a6                	mv	a1,s1
   16046:	4681                	li	a3,0
   16048:	4629                	li	a2,10
   1604a:	8522                	mv	a0,s0
   1604c:	7de010ef          	jal	1782a <__multadd>
   16050:	84aa                	mv	s1,a0
   16052:	4681                	li	a3,0
   16054:	4629                	li	a2,10
   16056:	85ca                	mv	a1,s2
   16058:	8522                	mv	a0,s0
   1605a:	07690863          	beq	s2,s6,160ca <_dtoa_r+0xa06>
   1605e:	7cc010ef          	jal	1782a <__multadd>
   16062:	85da                	mv	a1,s6
   16064:	892a                	mv	s2,a0
   16066:	4681                	li	a3,0
   16068:	4629                	li	a2,10
   1606a:	8522                	mv	a0,s0
   1606c:	7be010ef          	jal	1782a <__multadd>
   16070:	8b2a                	mv	s6,a0
   16072:	8cce                	mv	s9,s3
   16074:	bfa5                	j	15fec <_dtoa_r+0x928>
   16076:	85aa                	mv	a1,a0
   16078:	8522                	mv	a0,s0
   1607a:	4ac2                	lw	s5,16(sp)
   1607c:	4dd2                	lw	s11,20(sp)
   1607e:	79a010ef          	jal	17818 <_Bfree>
   16082:	0009c963          	bltz	s3,16094 <_dtoa_r+0x9d0>
   16086:	001df713          	and	a4,s11,1
   1608a:	0149e9b3          	or	s3,s3,s4
   1608e:	01376733          	or	a4,a4,s3
   16092:	ef31                	bnez	a4,160ee <_dtoa_r+0xa2a>
   16094:	85a6                	mv	a1,s1
   16096:	4605                	li	a2,1
   16098:	8522                	mv	a0,s0
   1609a:	503010ef          	jal	17d9c <__lshift>
   1609e:	45e2                	lw	a1,24(sp)
   160a0:	84aa                	mv	s1,a0
   160a2:	60d010ef          	jal	17eae <__mcmp>
   160a6:	18a05863          	blez	a0,16236 <_dtoa_r+0xb72>
   160aa:	03900713          	li	a4,57
   160ae:	18eb8b63          	beq	s7,a4,16244 <_dtoa_r+0xb80>
   160b2:	031c0b93          	add	s7,s8,49
   160b6:	5782                	lw	a5,32(sp)
   160b8:	8c4a                	mv	s8,s2
   160ba:	001c8d13          	add	s10,s9,1
   160be:	017c8023          	sb	s7,0(s9)
   160c2:	00178a13          	add	s4,a5,1
   160c6:	895a                	mv	s2,s6
   160c8:	bbd9                	j	15e9e <_dtoa_r+0x7da>
   160ca:	760010ef          	jal	1782a <__multadd>
   160ce:	892a                	mv	s2,a0
   160d0:	8b2a                	mv	s6,a0
   160d2:	8cce                	mv	s9,s3
   160d4:	bf21                	j	15fec <_dtoa_r+0x928>
   160d6:	4e09c863          	bltz	s3,165c6 <_dtoa_r+0xf02>
   160da:	4782                	lw	a5,0(sp)
   160dc:	0149e9b3          	or	s3,s3,s4
   160e0:	0137e9b3          	or	s3,a5,s3
   160e4:	4e098163          	beqz	s3,165c6 <_dtoa_r+0xf02>
   160e8:	f5b058e3          	blez	s11,16038 <_dtoa_r+0x974>
   160ec:	4ac2                	lw	s5,16(sp)
   160ee:	03900713          	li	a4,57
   160f2:	14eb8963          	beq	s7,a4,16244 <_dtoa_r+0xb80>
   160f6:	5702                	lw	a4,32(sp)
   160f8:	001b8793          	add	a5,s7,1
   160fc:	8c4a                	mv	s8,s2
   160fe:	001c8d13          	add	s10,s9,1
   16102:	00170a13          	add	s4,a4,1
   16106:	00fc8023          	sb	a5,0(s9)
   1610a:	895a                	mv	s2,s6
   1610c:	bb49                	j	15e9e <_dtoa_r+0x7da>
   1610e:	4789                	li	a5,2
   16110:	d147dce3          	bge	a5,s4,15e28 <_dtoa_r+0x764>
   16114:	8d56                	mv	s10,s5
   16116:	ba0c19e3          	bnez	s8,15cc8 <_dtoa_r+0x604>
   1611a:	45e2                	lw	a1,24(sp)
   1611c:	4681                	li	a3,0
   1611e:	4615                	li	a2,5
   16120:	8522                	mv	a0,s0
   16122:	708010ef          	jal	1782a <__multadd>
   16126:	85aa                	mv	a1,a0
   16128:	cc2a                	sw	a0,24(sp)
   1612a:	8526                	mv	a0,s1
   1612c:	583010ef          	jal	17eae <__mcmp>
   16130:	b8a05ce3          	blez	a0,15cc8 <_dtoa_r+0x604>
   16134:	03100793          	li	a5,49
   16138:	00fa8023          	sb	a5,0(s5)
   1613c:	5782                	lw	a5,32(sp)
   1613e:	001a8d13          	add	s10,s5,1
   16142:	00178a13          	add	s4,a5,1
   16146:	45e2                	lw	a1,24(sp)
   16148:	8522                	mv	a0,s0
   1614a:	0a05                	add	s4,s4,1
   1614c:	6cc010ef          	jal	17818 <_Bfree>
   16150:	d60915e3          	bnez	s2,15eba <_dtoa_r+0x7f6>
   16154:	b3bd                	j	15ec2 <_dtoa_r+0x7fe>
   16156:	85aa                	mv	a1,a0
   16158:	864e                	mv	a2,s3
   1615a:	8522                	mv	a0,s0
   1615c:	367010ef          	jal	17cc2 <__pow5mult>
   16160:	4785                	li	a5,1
   16162:	cc2a                	sw	a0,24(sp)
   16164:	0b47da63          	bge	a5,s4,16218 <_dtoa_r+0xb54>
   16168:	4981                	li	s3,0
   1616a:	4762                	lw	a4,24(sp)
   1616c:	4b1c                	lw	a5,16(a4)
   1616e:	078d                	add	a5,a5,3
   16170:	078a                	sll	a5,a5,0x2
   16172:	97ba                	add	a5,a5,a4
   16174:	43c8                	lw	a0,4(a5)
   16176:	069010ef          	jal	179de <__hi0bits>
   1617a:	02000793          	li	a5,32
   1617e:	8f89                	sub	a5,a5,a0
   16180:	b19d                	j	15de6 <_dtoa_r+0x722>
   16182:	5792                	lw	a5,36(sp)
   16184:	e39d                	bnez	a5,161aa <_dtoa_r+0xae6>
   16186:	4782                	lw	a5,0(sp)
   16188:	07b2                	sll	a5,a5,0xc
   1618a:	e385                	bnez	a5,161aa <_dtoa_r+0xae6>
   1618c:	4682                	lw	a3,0(sp)
   1618e:	4781                	li	a5,0
   16190:	0146d713          	srl	a4,a3,0x14
   16194:	7ff77713          	and	a4,a4,2047
   16198:	c711                	beqz	a4,161a4 <_dtoa_r+0xae0>
   1619a:	47c2                	lw	a5,16(sp)
   1619c:	0b05                	add	s6,s6,1
   1619e:	0785                	add	a5,a5,1
   161a0:	c83e                	sw	a5,16(sp)
   161a2:	4785                	li	a5,1
   161a4:	3a099b63          	bnez	s3,1655a <_dtoa_r+0xe96>
   161a8:	89be                	mv	s3,a5
   161aa:	4785                	li	a5,1
   161ac:	b92d                	j	15de6 <_dtoa_r+0x722>
   161ae:	c4d70ee3          	beq	a4,a3,15e0a <_dtoa_r+0x746>
   161b2:	03c00713          	li	a4,60
   161b6:	40f707b3          	sub	a5,a4,a5
   161ba:	b199                	j	15e00 <_dtoa_r+0x73c>
   161bc:	4785                	li	a5,1
   161be:	4a15                	li	s4,5
   161c0:	d43e                	sw	a5,40(sp)
   161c2:	47d2                	lw	a5,20(sp)
   161c4:	5702                	lw	a4,32(sp)
   161c6:	97ba                	add	a5,a5,a4
   161c8:	00178c13          	add	s8,a5,1
   161cc:	de3e                	sw	a5,60(sp)
   161ce:	8662                	mv	a2,s8
   161d0:	f1804263          	bgtz	s8,158d4 <_dtoa_r+0x210>
   161d4:	4605                	li	a2,1
   161d6:	efeff06f          	j	158d4 <_dtoa_r+0x210>
   161da:	e509                	bnez	a0,161e4 <_dtoa_r+0xb20>
   161dc:	001bf793          	and	a5,s7,1
   161e0:	ca0791e3          	bnez	a5,15e82 <_dtoa_r+0x7be>
   161e4:	03000693          	li	a3,48
   161e8:	fff9c783          	lbu	a5,-1(s3)
   161ec:	8d4e                	mv	s10,s3
   161ee:	19fd                	add	s3,s3,-1
   161f0:	fed78ce3          	beq	a5,a3,161e8 <_dtoa_r+0xb24>
   161f4:	b16d                	j	15e9e <_dtoa_r+0x7da>
   161f6:	89e2                	mv	s3,s8
   161f8:	b985                	j	15e68 <_dtoa_r+0x7a4>
   161fa:	87da                	mv	a5,s6
   161fc:	be45                	j	15dac <_dtoa_r+0x6e8>
   161fe:	57c2                	lw	a5,48(sp)
   16200:	4742                	lw	a4,16(sp)
   16202:	d85e                	sw	s7,48(sp)
   16204:	40fb87b3          	sub	a5,s7,a5
   16208:	99be                	add	s3,s3,a5
   1620a:	018707b3          	add	a5,a4,s8
   1620e:	8cba                	mv	s9,a4
   16210:	9b62                	add	s6,s6,s8
   16212:	c83e                	sw	a5,16(sp)
   16214:	4b81                	li	s7,0
   16216:	bb25                	j	15f4e <_dtoa_r+0x88a>
   16218:	5792                	lw	a5,36(sp)
   1621a:	f7b9                	bnez	a5,16168 <_dtoa_r+0xaa4>
   1621c:	4782                	lw	a5,0(sp)
   1621e:	07b2                	sll	a5,a5,0xc
   16220:	f7a1                	bnez	a5,16168 <_dtoa_r+0xaa4>
   16222:	b7ad                	j	1618c <_dtoa_r+0xac8>
   16224:	4362                	lw	t1,24(sp)
   16226:	4d72                	lw	s10,28(sp)
   16228:	4909                	li	s2,2
   1622a:	f2aff06f          	j	15954 <_dtoa_r+0x290>
   1622e:	4a09                	li	s4,2
   16230:	d402                	sw	zero,40(sp)
   16232:	e98ff06f          	j	158ca <_dtoa_r+0x206>
   16236:	e80510e3          	bnez	a0,160b6 <_dtoa_r+0x9f2>
   1623a:	001bf713          	and	a4,s7,1
   1623e:	e60716e3          	bnez	a4,160aa <_dtoa_r+0x9e6>
   16242:	bd95                	j	160b6 <_dtoa_r+0x9f2>
   16244:	03900793          	li	a5,57
   16248:	00fc8023          	sb	a5,0(s9)
   1624c:	5782                	lw	a5,32(sp)
   1624e:	8c4a                	mv	s8,s2
   16250:	001c8993          	add	s3,s9,1
   16254:	00178a13          	add	s4,a5,1
   16258:	895a                	mv	s2,s6
   1625a:	b125                	j	15e82 <_dtoa_r+0x7be>
   1625c:	4785                	li	a5,1
   1625e:	4c05                	li	s8,1
   16260:	ca3e                	sw	a5,20(sp)
   16262:	ba95                	j	15bd6 <_dtoa_r+0x512>
   16264:	d402                	sw	zero,40(sp)
   16266:	bfb1                	j	161c2 <_dtoa_r+0xafe>
   16268:	5762                	lw	a4,56(sp)
   1626a:	22070163          	beqz	a4,1648c <_dtoa_r+0xdc8>
   1626e:	4742                	lw	a4,16(sp)
   16270:	43378793          	add	a5,a5,1075
   16274:	9b3e                	add	s6,s6,a5
   16276:	97ba                	add	a5,a5,a4
   16278:	5bc2                	lw	s7,48(sp)
   1627a:	8cba                	mv	s9,a4
   1627c:	c83e                	sw	a5,16(sp)
   1627e:	b9c1                	j	15f4e <_dtoa_r+0x88a>
   16280:	03100793          	li	a5,49
   16284:	00fa8023          	sb	a5,0(s5)
   16288:	0a05                	add	s4,s4,1
   1628a:	b911                	j	15e9e <_dtoa_r+0x7da>
   1628c:	5782                	lw	a5,32(sp)
   1628e:	22078163          	beqz	a5,164b0 <_dtoa_r+0xdec>
   16292:	40f00bb3          	neg	s7,a5
   16296:	00fbf713          	and	a4,s7,15
   1629a:	070e                	sll	a4,a4,0x3
   1629c:	00006797          	auipc	a5,0x6
   162a0:	4d478793          	add	a5,a5,1236 # 1c770 <__mprec_tens>
   162a4:	97ba                	add	a5,a5,a4
   162a6:	4390                	lw	a2,0(a5)
   162a8:	43d4                	lw	a3,4(a5)
   162aa:	4562                	lw	a0,24(sp)
   162ac:	45f2                	lw	a1,28(sp)
   162ae:	404bdb93          	sra	s7,s7,0x4
   162b2:	79a040ef          	jal	1aa4c <__muldf3>
   162b6:	8d2e                	mv	s10,a1
   162b8:	2e0b8563          	beqz	s7,165a2 <_dtoa_r+0xede>
   162bc:	4909                	li	s2,2
   162be:	c0a2                	sw	s0,64(sp)
   162c0:	00006c97          	auipc	s9,0x6
   162c4:	488c8c93          	add	s9,s9,1160 # 1c748 <__mprec_bigtens>
   162c8:	844a                	mv	s0,s2
   162ca:	872a                	mv	a4,a0
   162cc:	4601                	li	a2,0
   162ce:	892a                	mv	s2,a0
   162d0:	001bf693          	and	a3,s7,1
   162d4:	ca99                	beqz	a3,162ea <_dtoa_r+0xc26>
   162d6:	000ca603          	lw	a2,0(s9)
   162da:	004ca683          	lw	a3,4(s9)
   162de:	853a                	mv	a0,a4
   162e0:	0405                	add	s0,s0,1
   162e2:	76a040ef          	jal	1aa4c <__muldf3>
   162e6:	872a                	mv	a4,a0
   162e8:	4605                	li	a2,1
   162ea:	401bdb93          	sra	s7,s7,0x1
   162ee:	0ca1                	add	s9,s9,8
   162f0:	fe0b90e3          	bnez	s7,162d0 <_dtoa_r+0xc0c>
   162f4:	854a                	mv	a0,s2
   162f6:	87ae                	mv	a5,a1
   162f8:	8922                	mv	s2,s0
   162fa:	4406                	lw	s0,64(sp)
   162fc:	ea061363          	bnez	a2,159a2 <_dtoa_r+0x2de>
   16300:	872a                	mv	a4,a0
   16302:	87ea                	mv	a5,s10
   16304:	e9eff06f          	j	159a2 <_dtoa_r+0x2de>
   16308:	85b6                	mv	a1,a3
   1630a:	863a                	mv	a2,a4
   1630c:	853a                	mv	a0,a4
   1630e:	077030ef          	jal	19b84 <__adddf3>
   16312:	5782                	lw	a5,32(sp)
   16314:	864a                	mv	a2,s2
   16316:	86ce                	mv	a3,s3
   16318:	00178a13          	add	s4,a5,1
   1631c:	8caa                	mv	s9,a0
   1631e:	8b2e                	mv	s6,a1
   16320:	8c52                	mv	s8,s4
   16322:	5aa040ef          	jal	1a8cc <__gedf2>
   16326:	80a04ee3          	bgtz	a0,15b42 <_dtoa_r+0x47e>
   1632a:	8566                	mv	a0,s9
   1632c:	85da                	mv	a1,s6
   1632e:	864a                	mv	a2,s2
   16330:	86ce                	mv	a3,s3
   16332:	52e040ef          	jal	1a860 <__eqdf2>
   16336:	e509                	bnez	a0,16340 <_dtoa_r+0xc7c>
   16338:	001d7d13          	and	s10,s10,1
   1633c:	800d13e3          	bnez	s10,15b42 <_dtoa_r+0x47e>
   16340:	8d5e                	mv	s10,s7
   16342:	b641                	j	15ec2 <_dtoa_r+0x7fe>
   16344:	00492583          	lw	a1,4(s2)
   16348:	8522                	mv	a0,s0
   1634a:	462010ef          	jal	177ac <_Balloc>
   1634e:	89aa                	mv	s3,a0
   16350:	24050e63          	beqz	a0,165ac <_dtoa_r+0xee8>
   16354:	01092603          	lw	a2,16(s2)
   16358:	00c90593          	add	a1,s2,12
   1635c:	0531                	add	a0,a0,12
   1635e:	0609                	add	a2,a2,2
   16360:	060a                	sll	a2,a2,0x2
   16362:	b55fe0ef          	jal	14eb6 <memcpy>
   16366:	4605                	li	a2,1
   16368:	85ce                	mv	a1,s3
   1636a:	8522                	mv	a0,s0
   1636c:	231010ef          	jal	17d9c <__lshift>
   16370:	8b2a                	mv	s6,a0
   16372:	b19d                	j	15fd8 <_dtoa_r+0x914>
   16374:	85ca                	mv	a1,s2
   16376:	865e                	mv	a2,s7
   16378:	8522                	mv	a0,s0
   1637a:	149010ef          	jal	17cc2 <__pow5mult>
   1637e:	8626                	mv	a2,s1
   16380:	85aa                	mv	a1,a0
   16382:	892a                	mv	s2,a0
   16384:	8522                	mv	a0,s0
   16386:	7a2010ef          	jal	17b28 <__multiply>
   1638a:	87aa                	mv	a5,a0
   1638c:	85a6                	mv	a1,s1
   1638e:	8522                	mv	a0,s0
   16390:	84be                	mv	s1,a5
   16392:	486010ef          	jal	17818 <_Bfree>
   16396:	57c2                	lw	a5,48(sp)
   16398:	417787b3          	sub	a5,a5,s7
   1639c:	d83e                	sw	a5,48(sp)
   1639e:	a2078ae3          	beqz	a5,15dd2 <_dtoa_r+0x70e>
   163a2:	b415                	j	15dc6 <_dtoa_r+0x702>
   163a4:	4646                	lw	a2,80(sp)
   163a6:	46d6                	lw	a3,84(sp)
   163a8:	4566                	lw	a0,88(sp)
   163aa:	c6ae                	sw	a1,76(sp)
   163ac:	85de                	mv	a1,s7
   163ae:	d41a                	sw	t1,40(sp)
   163b0:	69c040ef          	jal	1aa4c <__muldf3>
   163b4:	5322                	lw	t1,40(sp)
   163b6:	47a6                	lw	a5,72(sp)
   163b8:	4685                	li	a3,1
   163ba:	006a8023          	sb	t1,0(s5)
   163be:	dc2a                	sw	a0,56(sp)
   163c0:	48b6                	lw	a7,76(sp)
   163c2:	892e                	mv	s2,a1
   163c4:	00fa8bb3          	add	s7,s5,a5
   163c8:	00007617          	auipc	a2,0x7
   163cc:	35860613          	add	a2,a2,856 # 1d720 <__SDATA_BEGIN__+0x50>
   163d0:	1cd78163          	beq	a5,a3,16592 <_dtoa_r+0xece>
   163d4:	421c                	lw	a5,0(a2)
   163d6:	00462803          	lw	a6,4(a2)
   163da:	c4a6                	sw	s1,72(sp)
   163dc:	d43e                	sw	a5,40(sp)
   163de:	d642                	sw	a6,44(sp)
   163e0:	c6a2                	sw	s0,76(sp)
   163e2:	8566                	mv	a0,s9
   163e4:	85c6                	mv	a1,a7
   163e6:	5622                	lw	a2,40(sp)
   163e8:	56b2                	lw	a3,44(sp)
   163ea:	0d05                	add	s10,s10,1
   163ec:	660040ef          	jal	1aa4c <__muldf3>
   163f0:	842e                	mv	s0,a1
   163f2:	84aa                	mv	s1,a0
   163f4:	300050ef          	jal	1b6f4 <__fixdfsi>
   163f8:	8caa                	mv	s9,a0
   163fa:	360050ef          	jal	1b75a <__floatsidf>
   163fe:	862a                	mv	a2,a0
   16400:	86ae                	mv	a3,a1
   16402:	8526                	mv	a0,s1
   16404:	85a2                	mv	a1,s0
   16406:	030c8c93          	add	s9,s9,48
   1640a:	361040ef          	jal	1af6a <__subdf3>
   1640e:	ff9d0fa3          	sb	s9,-1(s10)
   16412:	fdab9ae3          	bne	s7,s10,163e6 <_dtoa_r+0xd22>
   16416:	44a6                	lw	s1,72(sp)
   16418:	4436                	lw	s0,76(sp)
   1641a:	8caa                	mv	s9,a0
   1641c:	88ae                	mv	a7,a1
   1641e:	00007d17          	auipc	s10,0x7
   16422:	2cad0d13          	add	s10,s10,714 # 1d6e8 <__SDATA_BEGIN__+0x18>
   16426:	000d2603          	lw	a2,0(s10)
   1642a:	004d2683          	lw	a3,4(s10)
   1642e:	5562                	lw	a0,56(sp)
   16430:	85ca                	mv	a1,s2
   16432:	d446                	sw	a7,40(sp)
   16434:	750030ef          	jal	19b84 <__adddf3>
   16438:	58a2                	lw	a7,40(sp)
   1643a:	8666                	mv	a2,s9
   1643c:	86c6                	mv	a3,a7
   1643e:	54c040ef          	jal	1a98a <__ledf2>
   16442:	12054363          	bltz	a0,16568 <_dtoa_r+0xea4>
   16446:	5662                	lw	a2,56(sp)
   16448:	000d2503          	lw	a0,0(s10)
   1644c:	004d2583          	lw	a1,4(s10)
   16450:	86ca                	mv	a3,s2
   16452:	319040ef          	jal	1af6a <__subdf3>
   16456:	58a2                	lw	a7,40(sp)
   16458:	8666                	mv	a2,s9
   1645a:	86c6                	mv	a3,a7
   1645c:	470040ef          	jal	1a8cc <__gedf2>
   16460:	0ca04763          	bgtz	a0,1652e <_dtoa_r+0xe6a>
   16464:	57b6                	lw	a5,108(sp)
   16466:	9207c8e3          	bltz	a5,15d96 <_dtoa_r+0x6d2>
   1646a:	5702                	lw	a4,32(sp)
   1646c:	47b9                	li	a5,14
   1646e:	92e7c4e3          	blt	a5,a4,15d96 <_dtoa_r+0x6d2>
   16472:	5782                	lw	a5,32(sp)
   16474:	00006717          	auipc	a4,0x6
   16478:	2fc70713          	add	a4,a4,764 # 1c770 <__mprec_tens>
   1647c:	078e                	sll	a5,a5,0x3
   1647e:	97ba                	add	a5,a5,a4
   16480:	0007a903          	lw	s2,0(a5)
   16484:	0047a983          	lw	s3,4(a5)
   16488:	84fff06f          	j	15cd6 <_dtoa_r+0x612>
   1648c:	5726                	lw	a4,104(sp)
   1648e:	46c2                	lw	a3,16(sp)
   16490:	03600793          	li	a5,54
   16494:	8f99                	sub	a5,a5,a4
   16496:	9b3e                	add	s6,s6,a5
   16498:	97b6                	add	a5,a5,a3
   1649a:	5bc2                	lw	s7,48(sp)
   1649c:	8cb6                	mv	s9,a3
   1649e:	c83e                	sw	a5,16(sp)
   164a0:	b47d                	j	15f4e <_dtoa_r+0x88a>
   164a2:	5782                	lw	a5,32(sp)
   164a4:	8c4a                	mv	s8,s2
   164a6:	4ac2                	lw	s5,16(sp)
   164a8:	00178a13          	add	s4,a5,1
   164ac:	895a                	mv	s2,s6
   164ae:	ba7d                	j	15e6c <_dtoa_r+0x7a8>
   164b0:	4762                	lw	a4,24(sp)
   164b2:	47f2                	lw	a5,28(sp)
   164b4:	4909                	li	s2,2
   164b6:	cecff06f          	j	159a2 <_dtoa_r+0x2de>
   164ba:	f20c0e63          	beqz	s8,15bf6 <_dtoa_r+0x532>
   164be:	5d72                	lw	s10,60(sp)
   164c0:	fba05563          	blez	s10,15c6a <_dtoa_r+0x5a6>
   164c4:	00007617          	auipc	a2,0x7
   164c8:	25c60613          	add	a2,a2,604 # 1d720 <__SDATA_BEGIN__+0x50>
   164cc:	85be                	mv	a1,a5
   164ce:	5782                	lw	a5,32(sp)
   164d0:	4254                	lw	a3,4(a2)
   164d2:	4210                	lw	a2,0(a2)
   164d4:	17fd                	add	a5,a5,-1
   164d6:	853a                	mv	a0,a4
   164d8:	cebe                	sw	a5,92(sp)
   164da:	572040ef          	jal	1aa4c <__muldf3>
   164de:	872a                	mv	a4,a0
   164e0:	00190513          	add	a0,s2,1
   164e4:	c4ba                	sw	a4,72(sp)
   164e6:	c0ae                	sw	a1,64(sp)
   164e8:	272050ef          	jal	1b75a <__floatsidf>
   164ec:	4726                	lw	a4,72(sp)
   164ee:	4786                	lw	a5,64(sp)
   164f0:	863a                	mv	a2,a4
   164f2:	86be                	mv	a3,a5
   164f4:	c6ba                	sw	a4,76(sp)
   164f6:	556040ef          	jal	1aa4c <__muldf3>
   164fa:	00007697          	auipc	a3,0x7
   164fe:	22e68693          	add	a3,a3,558 # 1d728 <__SDATA_BEGIN__+0x58>
   16502:	4290                	lw	a2,0(a3)
   16504:	42d4                	lw	a3,4(a3)
   16506:	67e030ef          	jal	19b84 <__adddf3>
   1650a:	fcc006b7          	lui	a3,0xfcc00
   1650e:	4786                	lw	a5,64(sp)
   16510:	4736                	lw	a4,76(sp)
   16512:	8caa                	mv	s9,a0
   16514:	00b68bb3          	add	s7,a3,a1
   16518:	c4ea                	sw	s10,72(sp)
   1651a:	ceeff06f          	j	15a08 <_dtoa_r+0x344>
   1651e:	03100693          	li	a3,49
   16522:	0c05                	add	s8,s8,1
   16524:	e3aff06f          	j	15b5e <_dtoa_r+0x49a>
   16528:	cc02                	sw	zero,24(sp)
   1652a:	4901                	li	s2,0
   1652c:	b121                	j	16134 <_dtoa_r+0xa70>
   1652e:	03000613          	li	a2,48
   16532:	fffbc783          	lbu	a5,-1(s7)
   16536:	8d5e                	mv	s10,s7
   16538:	1bfd                	add	s7,s7,-1
   1653a:	fec78ce3          	beq	a5,a2,16532 <_dtoa_r+0xe6e>
   1653e:	47f6                	lw	a5,92(sp)
   16540:	00178a13          	add	s4,a5,1
   16544:	babd                	j	15ec2 <_dtoa_r+0x7fe>
   16546:	03900713          	li	a4,57
   1654a:	4ac2                	lw	s5,16(sp)
   1654c:	ceeb8ce3          	beq	s7,a4,16244 <_dtoa_r+0xb80>
   16550:	b73041e3          	bgtz	s3,160b2 <_dtoa_r+0x9ee>
   16554:	b68d                	j	160b6 <_dtoa_r+0x9f2>
   16556:	4ac2                	lw	s5,16(sp)
   16558:	beb9                	j	160b6 <_dtoa_r+0x9f2>
   1655a:	89be                	mv	s3,a5
   1655c:	b139                	j	1616a <_dtoa_r+0xaa6>
   1655e:	8cbe                	mv	s9,a5
   16560:	97e2                	add	a5,a5,s8
   16562:	9b62                	add	s6,s6,s8
   16564:	c83e                	sw	a5,16(sp)
   16566:	b2e5                	j	15f4e <_dtoa_r+0x88a>
   16568:	47f6                	lw	a5,92(sp)
   1656a:	00178c13          	add	s8,a5,1
   1656e:	dd4ff06f          	j	15b42 <_dtoa_r+0x47e>
   16572:	49b6                	lw	s3,76(sp)
   16574:	4b46                	lw	s6,80(sp)
   16576:	4c66                	lw	s8,88(sp)
   16578:	4a26                	lw	s4,72(sp)
   1657a:	ef0ff06f          	j	15c6a <_dtoa_r+0x5a6>
   1657e:	4789                	li	a5,2
   16580:	0147c663          	blt	a5,s4,1658c <_dtoa_r+0xec8>
   16584:	5a02                	lw	s4,32(sp)
   16586:	5c72                	lw	s8,60(sp)
   16588:	8adff06f          	j	15e34 <_dtoa_r+0x770>
   1658c:	5c72                	lw	s8,60(sp)
   1658e:	d05a                	sw	s6,32(sp)
   16590:	b651                	j	16114 <_dtoa_r+0xa50>
   16592:	4b86                	lw	s7,64(sp)
   16594:	b569                	j	1641e <_dtoa_r+0xd5a>
   16596:	4789                	li	a5,2
   16598:	ff47cae3          	blt	a5,s4,1658c <_dtoa_r+0xec8>
   1659c:	5c72                	lw	s8,60(sp)
   1659e:	d05a                	sw	s6,32(sp)
   165a0:	b40d                	j	15fc2 <_dtoa_r+0x8fe>
   165a2:	872a                	mv	a4,a0
   165a4:	87ae                	mv	a5,a1
   165a6:	4909                	li	s2,2
   165a8:	bfaff06f          	j	159a2 <_dtoa_r+0x2de>
   165ac:	00005697          	auipc	a3,0x5
   165b0:	73868693          	add	a3,a3,1848 # 1bce4 <__clzsi2+0x204>
   165b4:	4601                	li	a2,0
   165b6:	2ef00593          	li	a1,751
   165ba:	00005517          	auipc	a0,0x5
   165be:	73e50513          	add	a0,a0,1854 # 1bcf8 <__clzsi2+0x218>
   165c2:	6ef020ef          	jal	194b0 <__assert_func>
   165c6:	4ac2                	lw	s5,16(sp)
   165c8:	adb046e3          	bgtz	s11,16094 <_dtoa_r+0x9d0>
   165cc:	b4ed                	j	160b6 <_dtoa_r+0x9f2>
   165ce:	00005697          	auipc	a3,0x5
   165d2:	71668693          	add	a3,a3,1814 # 1bce4 <__clzsi2+0x204>
   165d6:	4601                	li	a2,0
   165d8:	1af00593          	li	a1,431
   165dc:	00005517          	auipc	a0,0x5
   165e0:	71c50513          	add	a0,a0,1820 # 1bcf8 <__clzsi2+0x218>
   165e4:	6cd020ef          	jal	194b0 <__assert_func>
   165e8:	02042e23          	sw	zero,60(s0)
   165ec:	4581                	li	a1,0
   165ee:	b00ff06f          	j	158ee <_dtoa_r+0x22a>
   165f2:	d402                	sw	zero,40(sp)
   165f4:	ad6ff06f          	j	158ca <_dtoa_r+0x206>

000165f8 <_malloc_trim_r>:
   165f8:	1101                	add	sp,sp,-32
   165fa:	cc22                	sw	s0,24(sp)
   165fc:	ca26                	sw	s1,20(sp)
   165fe:	c84a                	sw	s2,16(sp)
   16600:	c64e                	sw	s3,12(sp)
   16602:	c452                	sw	s4,8(sp)
   16604:	89ae                	mv	s3,a1
   16606:	ce06                	sw	ra,28(sp)
   16608:	892a                	mv	s2,a0
   1660a:	00007a17          	auipc	s4,0x7
   1660e:	cbea0a13          	add	s4,s4,-834 # 1d2c8 <__malloc_av_>
   16612:	18a010ef          	jal	1779c <__malloc_lock>
   16616:	008a2703          	lw	a4,8(s4)
   1661a:	6785                	lui	a5,0x1
   1661c:	17bd                	add	a5,a5,-17 # fef <exit-0xf0a5>
   1661e:	4344                	lw	s1,4(a4)
   16620:	6705                	lui	a4,0x1
   16622:	98f1                	and	s1,s1,-4
   16624:	00f48433          	add	s0,s1,a5
   16628:	41340433          	sub	s0,s0,s3
   1662c:	8031                	srl	s0,s0,0xc
   1662e:	147d                	add	s0,s0,-1
   16630:	0432                	sll	s0,s0,0xc
   16632:	00e44b63          	blt	s0,a4,16648 <_malloc_trim_r+0x50>
   16636:	4581                	li	a1,0
   16638:	854a                	mv	a0,s2
   1663a:	4b9020ef          	jal	192f2 <_sbrk_r>
   1663e:	008a2783          	lw	a5,8(s4)
   16642:	97a6                	add	a5,a5,s1
   16644:	00f50e63          	beq	a0,a5,16660 <_malloc_trim_r+0x68>
   16648:	854a                	mv	a0,s2
   1664a:	15a010ef          	jal	177a4 <__malloc_unlock>
   1664e:	40f2                	lw	ra,28(sp)
   16650:	4462                	lw	s0,24(sp)
   16652:	44d2                	lw	s1,20(sp)
   16654:	4942                	lw	s2,16(sp)
   16656:	49b2                	lw	s3,12(sp)
   16658:	4a22                	lw	s4,8(sp)
   1665a:	4501                	li	a0,0
   1665c:	6105                	add	sp,sp,32
   1665e:	8082                	ret
   16660:	408005b3          	neg	a1,s0
   16664:	854a                	mv	a0,s2
   16666:	48d020ef          	jal	192f2 <_sbrk_r>
   1666a:	57fd                	li	a5,-1
   1666c:	02f50963          	beq	a0,a5,1669e <_malloc_trim_r+0xa6>
   16670:	51018713          	add	a4,gp,1296 # 1dd20 <__malloc_current_mallinfo>
   16674:	431c                	lw	a5,0(a4)
   16676:	008a2683          	lw	a3,8(s4)
   1667a:	8c81                	sub	s1,s1,s0
   1667c:	0014e493          	or	s1,s1,1
   16680:	8f81                	sub	a5,a5,s0
   16682:	854a                	mv	a0,s2
   16684:	c2c4                	sw	s1,4(a3)
   16686:	c31c                	sw	a5,0(a4)
   16688:	11c010ef          	jal	177a4 <__malloc_unlock>
   1668c:	40f2                	lw	ra,28(sp)
   1668e:	4462                	lw	s0,24(sp)
   16690:	44d2                	lw	s1,20(sp)
   16692:	4942                	lw	s2,16(sp)
   16694:	49b2                	lw	s3,12(sp)
   16696:	4a22                	lw	s4,8(sp)
   16698:	4505                	li	a0,1
   1669a:	6105                	add	sp,sp,32
   1669c:	8082                	ret
   1669e:	4581                	li	a1,0
   166a0:	854a                	mv	a0,s2
   166a2:	451020ef          	jal	192f2 <_sbrk_r>
   166a6:	008a2703          	lw	a4,8(s4)
   166aa:	46bd                	li	a3,15
   166ac:	40e507b3          	sub	a5,a0,a4
   166b0:	f8f6dce3          	bge	a3,a5,16648 <_malloc_trim_r+0x50>
   166b4:	f341a683          	lw	a3,-204(gp) # 1d744 <__malloc_sbrk_base>
   166b8:	8d15                	sub	a0,a0,a3
   166ba:	0017e793          	or	a5,a5,1
   166be:	50a1a823          	sw	a0,1296(gp) # 1dd20 <__malloc_current_mallinfo>
   166c2:	c35c                	sw	a5,4(a4)
   166c4:	b751                	j	16648 <_malloc_trim_r+0x50>

000166c6 <_free_r>:
   166c6:	10058d63          	beqz	a1,167e0 <_free_r+0x11a>
   166ca:	1141                	add	sp,sp,-16
   166cc:	c422                	sw	s0,8(sp)
   166ce:	c226                	sw	s1,4(sp)
   166d0:	842e                	mv	s0,a1
   166d2:	84aa                	mv	s1,a0
   166d4:	c606                	sw	ra,12(sp)
   166d6:	0c6010ef          	jal	1779c <__malloc_lock>
   166da:	ffc42583          	lw	a1,-4(s0)
   166de:	ff840713          	add	a4,s0,-8
   166e2:	00007517          	auipc	a0,0x7
   166e6:	be650513          	add	a0,a0,-1050 # 1d2c8 <__malloc_av_>
   166ea:	ffe5f793          	and	a5,a1,-2
   166ee:	00f70633          	add	a2,a4,a5
   166f2:	4254                	lw	a3,4(a2)
   166f4:	00852803          	lw	a6,8(a0)
   166f8:	9af1                	and	a3,a3,-4
   166fa:	12c80563          	beq	a6,a2,16824 <_free_r+0x15e>
   166fe:	c254                	sw	a3,4(a2)
   16700:	8985                	and	a1,a1,1
   16702:	00d60833          	add	a6,a2,a3
   16706:	e9bd                	bnez	a1,1677c <_free_r+0xb6>
   16708:	ff842303          	lw	t1,-8(s0)
   1670c:	00482583          	lw	a1,4(a6)
   16710:	00007897          	auipc	a7,0x7
   16714:	bc088893          	add	a7,a7,-1088 # 1d2d0 <__malloc_av_+0x8>
   16718:	40670733          	sub	a4,a4,t1
   1671c:	00872803          	lw	a6,8(a4) # 1008 <exit-0xf08c>
   16720:	979a                	add	a5,a5,t1
   16722:	8985                	and	a1,a1,1
   16724:	0f180463          	beq	a6,a7,1680c <_free_r+0x146>
   16728:	00c72303          	lw	t1,12(a4)
   1672c:	00682623          	sw	t1,12(a6)
   16730:	01032423          	sw	a6,8(t1)
   16734:	12058163          	beqz	a1,16856 <_free_r+0x190>
   16738:	0017e693          	or	a3,a5,1
   1673c:	c354                	sw	a3,4(a4)
   1673e:	c21c                	sw	a5,0(a2)
   16740:	1ff00693          	li	a3,511
   16744:	04f6e963          	bltu	a3,a5,16796 <_free_r+0xd0>
   16748:	ff87f693          	and	a3,a5,-8
   1674c:	06a1                	add	a3,a3,8
   1674e:	414c                	lw	a1,4(a0)
   16750:	96aa                	add	a3,a3,a0
   16752:	4290                	lw	a2,0(a3)
   16754:	0057d813          	srl	a6,a5,0x5
   16758:	4785                	li	a5,1
   1675a:	010797b3          	sll	a5,a5,a6
   1675e:	8fcd                	or	a5,a5,a1
   16760:	ff868593          	add	a1,a3,-8
   16764:	c74c                	sw	a1,12(a4)
   16766:	c710                	sw	a2,8(a4)
   16768:	c15c                	sw	a5,4(a0)
   1676a:	c298                	sw	a4,0(a3)
   1676c:	c658                	sw	a4,12(a2)
   1676e:	4422                	lw	s0,8(sp)
   16770:	40b2                	lw	ra,12(sp)
   16772:	8526                	mv	a0,s1
   16774:	4492                	lw	s1,4(sp)
   16776:	0141                	add	sp,sp,16
   16778:	02c0106f          	j	177a4 <__malloc_unlock>
   1677c:	00482583          	lw	a1,4(a6)
   16780:	8985                	and	a1,a1,1
   16782:	c1a5                	beqz	a1,167e2 <_free_r+0x11c>
   16784:	0017e693          	or	a3,a5,1
   16788:	fed42e23          	sw	a3,-4(s0)
   1678c:	c21c                	sw	a5,0(a2)
   1678e:	1ff00693          	li	a3,511
   16792:	faf6fbe3          	bgeu	a3,a5,16748 <_free_r+0x82>
   16796:	0097d693          	srl	a3,a5,0x9
   1679a:	4611                	li	a2,4
   1679c:	0ad66f63          	bltu	a2,a3,1685a <_free_r+0x194>
   167a0:	0067d693          	srl	a3,a5,0x6
   167a4:	03968593          	add	a1,a3,57
   167a8:	03868613          	add	a2,a3,56
   167ac:	058e                	sll	a1,a1,0x3
   167ae:	95aa                	add	a1,a1,a0
   167b0:	4194                	lw	a3,0(a1)
   167b2:	15e1                	add	a1,a1,-8
   167b4:	00d59663          	bne	a1,a3,167c0 <_free_r+0xfa>
   167b8:	a0d5                	j	1689c <_free_r+0x1d6>
   167ba:	4694                	lw	a3,8(a3)
   167bc:	00d58663          	beq	a1,a3,167c8 <_free_r+0x102>
   167c0:	42d0                	lw	a2,4(a3)
   167c2:	9a71                	and	a2,a2,-4
   167c4:	fec7ebe3          	bltu	a5,a2,167ba <_free_r+0xf4>
   167c8:	46cc                	lw	a1,12(a3)
   167ca:	c74c                	sw	a1,12(a4)
   167cc:	c714                	sw	a3,8(a4)
   167ce:	4422                	lw	s0,8(sp)
   167d0:	40b2                	lw	ra,12(sp)
   167d2:	c598                	sw	a4,8(a1)
   167d4:	8526                	mv	a0,s1
   167d6:	4492                	lw	s1,4(sp)
   167d8:	c6d8                	sw	a4,12(a3)
   167da:	0141                	add	sp,sp,16
   167dc:	7c90006f          	j	177a4 <__malloc_unlock>
   167e0:	8082                	ret
   167e2:	97b6                	add	a5,a5,a3
   167e4:	00007897          	auipc	a7,0x7
   167e8:	aec88893          	add	a7,a7,-1300 # 1d2d0 <__malloc_av_+0x8>
   167ec:	4614                	lw	a3,8(a2)
   167ee:	09168b63          	beq	a3,a7,16884 <_free_r+0x1be>
   167f2:	00c62803          	lw	a6,12(a2)
   167f6:	0017e593          	or	a1,a5,1
   167fa:	00f70633          	add	a2,a4,a5
   167fe:	0106a623          	sw	a6,12(a3)
   16802:	00d82423          	sw	a3,8(a6)
   16806:	c34c                	sw	a1,4(a4)
   16808:	c21c                	sw	a5,0(a2)
   1680a:	bf1d                	j	16740 <_free_r+0x7a>
   1680c:	edf9                	bnez	a1,168ea <_free_r+0x224>
   1680e:	460c                	lw	a1,8(a2)
   16810:	4650                	lw	a2,12(a2)
   16812:	96be                	add	a3,a3,a5
   16814:	0016e793          	or	a5,a3,1
   16818:	c5d0                	sw	a2,12(a1)
   1681a:	c60c                	sw	a1,8(a2)
   1681c:	c35c                	sw	a5,4(a4)
   1681e:	9736                	add	a4,a4,a3
   16820:	c314                	sw	a3,0(a4)
   16822:	b7b1                	j	1676e <_free_r+0xa8>
   16824:	8985                	and	a1,a1,1
   16826:	96be                	add	a3,a3,a5
   16828:	e989                	bnez	a1,1683a <_free_r+0x174>
   1682a:	ff842583          	lw	a1,-8(s0)
   1682e:	8f0d                	sub	a4,a4,a1
   16830:	475c                	lw	a5,12(a4)
   16832:	4710                	lw	a2,8(a4)
   16834:	96ae                	add	a3,a3,a1
   16836:	c65c                	sw	a5,12(a2)
   16838:	c790                	sw	a2,8(a5)
   1683a:	0016e793          	or	a5,a3,1
   1683e:	c35c                	sw	a5,4(a4)
   16840:	c518                	sw	a4,8(a0)
   16842:	f381a783          	lw	a5,-200(gp) # 1d748 <__malloc_trim_threshold>
   16846:	f2f6e4e3          	bltu	a3,a5,1676e <_free_r+0xa8>
   1684a:	f781a583          	lw	a1,-136(gp) # 1d788 <__malloc_top_pad>
   1684e:	8526                	mv	a0,s1
   16850:	da9ff0ef          	jal	165f8 <_malloc_trim_r>
   16854:	bf29                	j	1676e <_free_r+0xa8>
   16856:	97b6                	add	a5,a5,a3
   16858:	bf51                	j	167ec <_free_r+0x126>
   1685a:	4651                	li	a2,20
   1685c:	00d67e63          	bgeu	a2,a3,16878 <_free_r+0x1b2>
   16860:	05400613          	li	a2,84
   16864:	04d66663          	bltu	a2,a3,168b0 <_free_r+0x1ea>
   16868:	00c7d693          	srl	a3,a5,0xc
   1686c:	06f68593          	add	a1,a3,111
   16870:	06e68613          	add	a2,a3,110
   16874:	058e                	sll	a1,a1,0x3
   16876:	bf25                	j	167ae <_free_r+0xe8>
   16878:	05c68593          	add	a1,a3,92
   1687c:	05b68613          	add	a2,a3,91
   16880:	058e                	sll	a1,a1,0x3
   16882:	b735                	j	167ae <_free_r+0xe8>
   16884:	c958                	sw	a4,20(a0)
   16886:	c918                	sw	a4,16(a0)
   16888:	0017e693          	or	a3,a5,1
   1688c:	01172623          	sw	a7,12(a4)
   16890:	01172423          	sw	a7,8(a4)
   16894:	c354                	sw	a3,4(a4)
   16896:	973e                	add	a4,a4,a5
   16898:	c31c                	sw	a5,0(a4)
   1689a:	bdd1                	j	1676e <_free_r+0xa8>
   1689c:	00452803          	lw	a6,4(a0)
   168a0:	8609                	sra	a2,a2,0x2
   168a2:	4785                	li	a5,1
   168a4:	00c797b3          	sll	a5,a5,a2
   168a8:	0107e7b3          	or	a5,a5,a6
   168ac:	c15c                	sw	a5,4(a0)
   168ae:	bf31                	j	167ca <_free_r+0x104>
   168b0:	15400613          	li	a2,340
   168b4:	00d66a63          	bltu	a2,a3,168c8 <_free_r+0x202>
   168b8:	00f7d693          	srl	a3,a5,0xf
   168bc:	07868593          	add	a1,a3,120
   168c0:	07768613          	add	a2,a3,119
   168c4:	058e                	sll	a1,a1,0x3
   168c6:	b5e5                	j	167ae <_free_r+0xe8>
   168c8:	55400613          	li	a2,1364
   168cc:	00d66a63          	bltu	a2,a3,168e0 <_free_r+0x21a>
   168d0:	0127d693          	srl	a3,a5,0x12
   168d4:	07d68593          	add	a1,a3,125
   168d8:	07c68613          	add	a2,a3,124
   168dc:	058e                	sll	a1,a1,0x3
   168de:	bdc1                	j	167ae <_free_r+0xe8>
   168e0:	3f800593          	li	a1,1016
   168e4:	07e00613          	li	a2,126
   168e8:	b5d9                	j	167ae <_free_r+0xe8>
   168ea:	0017e693          	or	a3,a5,1
   168ee:	c354                	sw	a3,4(a4)
   168f0:	c21c                	sw	a5,0(a2)
   168f2:	bdb5                	j	1676e <_free_r+0xa8>

000168f4 <_findenv_r>:
   168f4:	7179                	add	sp,sp,-48
   168f6:	c85a                	sw	s6,16(sp)
   168f8:	f3c18b13          	add	s6,gp,-196 # 1d74c <environ>
   168fc:	d226                	sw	s1,36(sp)
   168fe:	ce4e                	sw	s3,28(sp)
   16900:	cc52                	sw	s4,24(sp)
   16902:	ca56                	sw	s5,20(sp)
   16904:	d606                	sw	ra,44(sp)
   16906:	8aaa                	mv	s5,a0
   16908:	89ae                	mv	s3,a1
   1690a:	8a32                	mv	s4,a2
   1690c:	495020ef          	jal	195a0 <__env_lock>
   16910:	000b2483          	lw	s1,0(s6)
   16914:	c08d                	beqz	s1,16936 <_findenv_r+0x42>
   16916:	d422                	sw	s0,40(sp)
   16918:	0009c703          	lbu	a4,0(s3)
   1691c:	87ce                	mv	a5,s3
   1691e:	03d00693          	li	a3,61
   16922:	4401                	li	s0,0
   16924:	e709                	bnez	a4,1692e <_findenv_r+0x3a>
   16926:	a035                	j	16952 <_findenv_r+0x5e>
   16928:	0007c703          	lbu	a4,0(a5)
   1692c:	c30d                	beqz	a4,1694e <_findenv_r+0x5a>
   1692e:	0785                	add	a5,a5,1
   16930:	fed71ce3          	bne	a4,a3,16928 <_findenv_r+0x34>
   16934:	5422                	lw	s0,40(sp)
   16936:	8556                	mv	a0,s5
   16938:	471020ef          	jal	195a8 <__env_unlock>
   1693c:	50b2                	lw	ra,44(sp)
   1693e:	5492                	lw	s1,36(sp)
   16940:	49f2                	lw	s3,28(sp)
   16942:	4a62                	lw	s4,24(sp)
   16944:	4ad2                	lw	s5,20(sp)
   16946:	4b42                	lw	s6,16(sp)
   16948:	4501                	li	a0,0
   1694a:	6145                	add	sp,sp,48
   1694c:	8082                	ret
   1694e:	41378433          	sub	s0,a5,s3
   16952:	4088                	lw	a0,0(s1)
   16954:	d165                	beqz	a0,16934 <_findenv_r+0x40>
   16956:	c65e                	sw	s7,12(sp)
   16958:	d04a                	sw	s2,32(sp)
   1695a:	03d00b93          	li	s7,61
   1695e:	8622                	mv	a2,s0
   16960:	85ce                	mv	a1,s3
   16962:	788020ef          	jal	190ea <strncmp>
   16966:	e901                	bnez	a0,16976 <_findenv_r+0x82>
   16968:	0004a903          	lw	s2,0(s1)
   1696c:	9922                	add	s2,s2,s0
   1696e:	00094783          	lbu	a5,0(s2)
   16972:	01778963          	beq	a5,s7,16984 <_findenv_r+0x90>
   16976:	40c8                	lw	a0,4(s1)
   16978:	0491                	add	s1,s1,4
   1697a:	f175                	bnez	a0,1695e <_findenv_r+0x6a>
   1697c:	5422                	lw	s0,40(sp)
   1697e:	5902                	lw	s2,32(sp)
   16980:	4bb2                	lw	s7,12(sp)
   16982:	bf55                	j	16936 <_findenv_r+0x42>
   16984:	000b2783          	lw	a5,0(s6)
   16988:	8556                	mv	a0,s5
   1698a:	8c9d                	sub	s1,s1,a5
   1698c:	8489                	sra	s1,s1,0x2
   1698e:	009a2023          	sw	s1,0(s4)
   16992:	417020ef          	jal	195a8 <__env_unlock>
   16996:	50b2                	lw	ra,44(sp)
   16998:	5422                	lw	s0,40(sp)
   1699a:	4bb2                	lw	s7,12(sp)
   1699c:	5492                	lw	s1,36(sp)
   1699e:	49f2                	lw	s3,28(sp)
   169a0:	4a62                	lw	s4,24(sp)
   169a2:	4ad2                	lw	s5,20(sp)
   169a4:	4b42                	lw	s6,16(sp)
   169a6:	00190513          	add	a0,s2,1
   169aa:	5902                	lw	s2,32(sp)
   169ac:	6145                	add	sp,sp,48
   169ae:	8082                	ret

000169b0 <_getenv_r>:
   169b0:	1101                	add	sp,sp,-32
   169b2:	0070                	add	a2,sp,12
   169b4:	ce06                	sw	ra,28(sp)
   169b6:	f3fff0ef          	jal	168f4 <_findenv_r>
   169ba:	40f2                	lw	ra,28(sp)
   169bc:	6105                	add	sp,sp,32
   169be:	8082                	ret

000169c0 <_malloc_r>:
   169c0:	7179                	add	sp,sp,-48
   169c2:	d04a                	sw	s2,32(sp)
   169c4:	d606                	sw	ra,44(sp)
   169c6:	d422                	sw	s0,40(sp)
   169c8:	d226                	sw	s1,36(sp)
   169ca:	ce4e                	sw	s3,28(sp)
   169cc:	00b58793          	add	a5,a1,11
   169d0:	4759                	li	a4,22
   169d2:	892a                	mv	s2,a0
   169d4:	04f76b63          	bltu	a4,a5,16a2a <_malloc_r+0x6a>
   169d8:	47c1                	li	a5,16
   169da:	16b7ef63          	bltu	a5,a1,16b58 <_malloc_r+0x198>
   169de:	5bf000ef          	jal	1779c <__malloc_lock>
   169e2:	47e1                	li	a5,24
   169e4:	4589                	li	a1,2
   169e6:	44c1                	li	s1,16
   169e8:	00007997          	auipc	s3,0x7
   169ec:	8e098993          	add	s3,s3,-1824 # 1d2c8 <__malloc_av_>
   169f0:	97ce                	add	a5,a5,s3
   169f2:	43c0                	lw	s0,4(a5)
   169f4:	ff878713          	add	a4,a5,-8
   169f8:	26e40563          	beq	s0,a4,16c62 <_malloc_r+0x2a2>
   169fc:	405c                	lw	a5,4(s0)
   169fe:	4454                	lw	a3,12(s0)
   16a00:	4410                	lw	a2,8(s0)
   16a02:	9bf1                	and	a5,a5,-4
   16a04:	97a2                	add	a5,a5,s0
   16a06:	43d8                	lw	a4,4(a5)
   16a08:	c654                	sw	a3,12(a2)
   16a0a:	c690                	sw	a2,8(a3)
   16a0c:	00176713          	or	a4,a4,1
   16a10:	854a                	mv	a0,s2
   16a12:	c3d8                	sw	a4,4(a5)
   16a14:	591000ef          	jal	177a4 <__malloc_unlock>
   16a18:	00840513          	add	a0,s0,8
   16a1c:	50b2                	lw	ra,44(sp)
   16a1e:	5422                	lw	s0,40(sp)
   16a20:	5492                	lw	s1,36(sp)
   16a22:	5902                	lw	s2,32(sp)
   16a24:	49f2                	lw	s3,28(sp)
   16a26:	6145                	add	sp,sp,48
   16a28:	8082                	ret
   16a2a:	ff87f493          	and	s1,a5,-8
   16a2e:	1207c563          	bltz	a5,16b58 <_malloc_r+0x198>
   16a32:	12b4e363          	bltu	s1,a1,16b58 <_malloc_r+0x198>
   16a36:	567000ef          	jal	1779c <__malloc_lock>
   16a3a:	1f700793          	li	a5,503
   16a3e:	2e97f363          	bgeu	a5,s1,16d24 <_malloc_r+0x364>
   16a42:	0094d793          	srl	a5,s1,0x9
   16a46:	10078e63          	beqz	a5,16b62 <_malloc_r+0x1a2>
   16a4a:	4711                	li	a4,4
   16a4c:	26f76063          	bltu	a4,a5,16cac <_malloc_r+0x2ec>
   16a50:	0064d793          	srl	a5,s1,0x6
   16a54:	03978593          	add	a1,a5,57
   16a58:	03878813          	add	a6,a5,56
   16a5c:	00359613          	sll	a2,a1,0x3
   16a60:	00007997          	auipc	s3,0x7
   16a64:	86898993          	add	s3,s3,-1944 # 1d2c8 <__malloc_av_>
   16a68:	964e                	add	a2,a2,s3
   16a6a:	4240                	lw	s0,4(a2)
   16a6c:	1661                	add	a2,a2,-8
   16a6e:	02860163          	beq	a2,s0,16a90 <_malloc_r+0xd0>
   16a72:	453d                	li	a0,15
   16a74:	a039                	j	16a82 <_malloc_r+0xc2>
   16a76:	4454                	lw	a3,12(s0)
   16a78:	1e075363          	bgez	a4,16c5e <_malloc_r+0x29e>
   16a7c:	00d60a63          	beq	a2,a3,16a90 <_malloc_r+0xd0>
   16a80:	8436                	mv	s0,a3
   16a82:	405c                	lw	a5,4(s0)
   16a84:	9bf1                	and	a5,a5,-4
   16a86:	40978733          	sub	a4,a5,s1
   16a8a:	fee556e3          	bge	a0,a4,16a76 <_malloc_r+0xb6>
   16a8e:	85c2                	mv	a1,a6
   16a90:	0109a403          	lw	s0,16(s3)
   16a94:	00007897          	auipc	a7,0x7
   16a98:	83c88893          	add	a7,a7,-1988 # 1d2d0 <__malloc_av_+0x8>
   16a9c:	1b140e63          	beq	s0,a7,16c58 <_malloc_r+0x298>
   16aa0:	405c                	lw	a5,4(s0)
   16aa2:	46bd                	li	a3,15
   16aa4:	9bf1                	and	a5,a5,-4
   16aa6:	40978733          	sub	a4,a5,s1
   16aaa:	28e6c263          	blt	a3,a4,16d2e <_malloc_r+0x36e>
   16aae:	0119aa23          	sw	a7,20(s3)
   16ab2:	0119a823          	sw	a7,16(s3)
   16ab6:	24075c63          	bgez	a4,16d0e <_malloc_r+0x34e>
   16aba:	1ff00713          	li	a4,511
   16abe:	0049a503          	lw	a0,4(s3)
   16ac2:	1af76563          	bltu	a4,a5,16c6c <_malloc_r+0x2ac>
   16ac6:	ff87f713          	and	a4,a5,-8
   16aca:	0721                	add	a4,a4,8
   16acc:	974e                	add	a4,a4,s3
   16ace:	4314                	lw	a3,0(a4)
   16ad0:	0057d613          	srl	a2,a5,0x5
   16ad4:	4785                	li	a5,1
   16ad6:	00c797b3          	sll	a5,a5,a2
   16ada:	8d5d                	or	a0,a0,a5
   16adc:	ff870793          	add	a5,a4,-8
   16ae0:	c45c                	sw	a5,12(s0)
   16ae2:	c414                	sw	a3,8(s0)
   16ae4:	00a9a223          	sw	a0,4(s3)
   16ae8:	c300                	sw	s0,0(a4)
   16aea:	c6c0                	sw	s0,12(a3)
   16aec:	4025d793          	sra	a5,a1,0x2
   16af0:	4605                	li	a2,1
   16af2:	00f61633          	sll	a2,a2,a5
   16af6:	06c56d63          	bltu	a0,a2,16b70 <_malloc_r+0x1b0>
   16afa:	00a677b3          	and	a5,a2,a0
   16afe:	ef81                	bnez	a5,16b16 <_malloc_r+0x156>
   16b00:	0606                	sll	a2,a2,0x1
   16b02:	99f1                	and	a1,a1,-4
   16b04:	00a677b3          	and	a5,a2,a0
   16b08:	0591                	add	a1,a1,4
   16b0a:	e791                	bnez	a5,16b16 <_malloc_r+0x156>
   16b0c:	0606                	sll	a2,a2,0x1
   16b0e:	00a677b3          	and	a5,a2,a0
   16b12:	0591                	add	a1,a1,4
   16b14:	dfe5                	beqz	a5,16b0c <_malloc_r+0x14c>
   16b16:	483d                	li	a6,15
   16b18:	00359313          	sll	t1,a1,0x3
   16b1c:	934e                	add	t1,t1,s3
   16b1e:	851a                	mv	a0,t1
   16b20:	455c                	lw	a5,12(a0)
   16b22:	8e2e                	mv	t3,a1
   16b24:	1af50463          	beq	a0,a5,16ccc <_malloc_r+0x30c>
   16b28:	43d8                	lw	a4,4(a5)
   16b2a:	843e                	mv	s0,a5
   16b2c:	47dc                	lw	a5,12(a5)
   16b2e:	9b71                	and	a4,a4,-4
   16b30:	409706b3          	sub	a3,a4,s1
   16b34:	1ad84363          	blt	a6,a3,16cda <_malloc_r+0x31a>
   16b38:	fe06c6e3          	bltz	a3,16b24 <_malloc_r+0x164>
   16b3c:	9722                	add	a4,a4,s0
   16b3e:	4354                	lw	a3,4(a4)
   16b40:	4410                	lw	a2,8(s0)
   16b42:	854a                	mv	a0,s2
   16b44:	0016e693          	or	a3,a3,1
   16b48:	c354                	sw	a3,4(a4)
   16b4a:	c65c                	sw	a5,12(a2)
   16b4c:	c790                	sw	a2,8(a5)
   16b4e:	457000ef          	jal	177a4 <__malloc_unlock>
   16b52:	00840513          	add	a0,s0,8
   16b56:	b5d9                	j	16a1c <_malloc_r+0x5c>
   16b58:	47b1                	li	a5,12
   16b5a:	00f92023          	sw	a5,0(s2)
   16b5e:	4501                	li	a0,0
   16b60:	bd75                	j	16a1c <_malloc_r+0x5c>
   16b62:	20000613          	li	a2,512
   16b66:	04000593          	li	a1,64
   16b6a:	03f00813          	li	a6,63
   16b6e:	bdcd                	j	16a60 <_malloc_r+0xa0>
   16b70:	0089a403          	lw	s0,8(s3)
   16b74:	c85a                	sw	s6,16(sp)
   16b76:	405c                	lw	a5,4(s0)
   16b78:	ffc7fb13          	and	s6,a5,-4
   16b7c:	009b6763          	bltu	s6,s1,16b8a <_malloc_r+0x1ca>
   16b80:	409b0733          	sub	a4,s6,s1
   16b84:	47bd                	li	a5,15
   16b86:	0ae7c363          	blt	a5,a4,16c2c <_malloc_r+0x26c>
   16b8a:	c266                	sw	s9,4(sp)
   16b8c:	f3418c93          	add	s9,gp,-204 # 1d744 <__malloc_sbrk_base>
   16b90:	000ca703          	lw	a4,0(s9)
   16b94:	cc52                	sw	s4,24(sp)
   16b96:	ca56                	sw	s5,20(sp)
   16b98:	c65e                	sw	s7,12(sp)
   16b9a:	f781aa83          	lw	s5,-136(gp) # 1d788 <__malloc_top_pad>
   16b9e:	57fd                	li	a5,-1
   16ba0:	01640a33          	add	s4,s0,s6
   16ba4:	9aa6                	add	s5,s5,s1
   16ba6:	2cf70b63          	beq	a4,a5,16e7c <_malloc_r+0x4bc>
   16baa:	6785                	lui	a5,0x1
   16bac:	07bd                	add	a5,a5,15 # 100f <exit-0xf085>
   16bae:	9abe                	add	s5,s5,a5
   16bb0:	77fd                	lui	a5,0xfffff
   16bb2:	00fafab3          	and	s5,s5,a5
   16bb6:	85d6                	mv	a1,s5
   16bb8:	854a                	mv	a0,s2
   16bba:	738020ef          	jal	192f2 <_sbrk_r>
   16bbe:	57fd                	li	a5,-1
   16bc0:	8baa                	mv	s7,a0
   16bc2:	32f50e63          	beq	a0,a5,16efe <_malloc_r+0x53e>
   16bc6:	c462                	sw	s8,8(sp)
   16bc8:	1b456263          	bltu	a0,s4,16d6c <_malloc_r+0x3ac>
   16bcc:	51018c13          	add	s8,gp,1296 # 1dd20 <__malloc_current_mallinfo>
   16bd0:	000c2583          	lw	a1,0(s8)
   16bd4:	95d6                	add	a1,a1,s5
   16bd6:	00bc2023          	sw	a1,0(s8)
   16bda:	872e                	mv	a4,a1
   16bdc:	1eaa1c63          	bne	s4,a0,16dd4 <_malloc_r+0x414>
   16be0:	01451793          	sll	a5,a0,0x14
   16be4:	1e079863          	bnez	a5,16dd4 <_malloc_r+0x414>
   16be8:	0089ab83          	lw	s7,8(s3)
   16bec:	015b07b3          	add	a5,s6,s5
   16bf0:	0017e793          	or	a5,a5,1
   16bf4:	00fba223          	sw	a5,4(s7)
   16bf8:	f7418713          	add	a4,gp,-140 # 1d784 <__malloc_max_sbrked_mem>
   16bfc:	4314                	lw	a3,0(a4)
   16bfe:	00b6f363          	bgeu	a3,a1,16c04 <_malloc_r+0x244>
   16c02:	c30c                	sw	a1,0(a4)
   16c04:	f7018713          	add	a4,gp,-144 # 1d780 <__malloc_max_total_mem>
   16c08:	4314                	lw	a3,0(a4)
   16c0a:	00b6f363          	bgeu	a3,a1,16c10 <_malloc_r+0x250>
   16c0e:	c30c                	sw	a1,0(a4)
   16c10:	4c22                	lw	s8,8(sp)
   16c12:	845e                	mv	s0,s7
   16c14:	9bf1                	and	a5,a5,-4
   16c16:	40978733          	sub	a4,a5,s1
   16c1a:	2897ef63          	bltu	a5,s1,16eb8 <_malloc_r+0x4f8>
   16c1e:	47bd                	li	a5,15
   16c20:	28e7dc63          	bge	a5,a4,16eb8 <_malloc_r+0x4f8>
   16c24:	4a62                	lw	s4,24(sp)
   16c26:	4ad2                	lw	s5,20(sp)
   16c28:	4bb2                	lw	s7,12(sp)
   16c2a:	4c92                	lw	s9,4(sp)
   16c2c:	0014e793          	or	a5,s1,1
   16c30:	c05c                	sw	a5,4(s0)
   16c32:	94a2                	add	s1,s1,s0
   16c34:	0099a423          	sw	s1,8(s3)
   16c38:	00176713          	or	a4,a4,1
   16c3c:	854a                	mv	a0,s2
   16c3e:	c0d8                	sw	a4,4(s1)
   16c40:	365000ef          	jal	177a4 <__malloc_unlock>
   16c44:	50b2                	lw	ra,44(sp)
   16c46:	00840513          	add	a0,s0,8
   16c4a:	5422                	lw	s0,40(sp)
   16c4c:	4b42                	lw	s6,16(sp)
   16c4e:	5492                	lw	s1,36(sp)
   16c50:	5902                	lw	s2,32(sp)
   16c52:	49f2                	lw	s3,28(sp)
   16c54:	6145                	add	sp,sp,48
   16c56:	8082                	ret
   16c58:	0049a503          	lw	a0,4(s3)
   16c5c:	bd41                	j	16aec <_malloc_r+0x12c>
   16c5e:	4410                	lw	a2,8(s0)
   16c60:	b355                	j	16a04 <_malloc_r+0x44>
   16c62:	47c0                	lw	s0,12(a5)
   16c64:	0589                	add	a1,a1,2
   16c66:	e28785e3          	beq	a5,s0,16a90 <_malloc_r+0xd0>
   16c6a:	bb49                	j	169fc <_malloc_r+0x3c>
   16c6c:	0097d713          	srl	a4,a5,0x9
   16c70:	4691                	li	a3,4
   16c72:	0ee6f563          	bgeu	a3,a4,16d5c <_malloc_r+0x39c>
   16c76:	46d1                	li	a3,20
   16c78:	24e6ea63          	bltu	a3,a4,16ecc <_malloc_r+0x50c>
   16c7c:	05c70613          	add	a2,a4,92
   16c80:	05b70693          	add	a3,a4,91
   16c84:	060e                	sll	a2,a2,0x3
   16c86:	964e                	add	a2,a2,s3
   16c88:	4218                	lw	a4,0(a2)
   16c8a:	1661                	add	a2,a2,-8
   16c8c:	00e61663          	bne	a2,a4,16c98 <_malloc_r+0x2d8>
   16c90:	aac5                	j	16e80 <_malloc_r+0x4c0>
   16c92:	4718                	lw	a4,8(a4)
   16c94:	00e60663          	beq	a2,a4,16ca0 <_malloc_r+0x2e0>
   16c98:	4354                	lw	a3,4(a4)
   16c9a:	9af1                	and	a3,a3,-4
   16c9c:	fed7ebe3          	bltu	a5,a3,16c92 <_malloc_r+0x2d2>
   16ca0:	4750                	lw	a2,12(a4)
   16ca2:	c450                	sw	a2,12(s0)
   16ca4:	c418                	sw	a4,8(s0)
   16ca6:	c600                	sw	s0,8(a2)
   16ca8:	c740                	sw	s0,12(a4)
   16caa:	b589                	j	16aec <_malloc_r+0x12c>
   16cac:	4751                	li	a4,20
   16cae:	0cf77663          	bgeu	a4,a5,16d7a <_malloc_r+0x3ba>
   16cb2:	05400713          	li	a4,84
   16cb6:	22f76763          	bltu	a4,a5,16ee4 <_malloc_r+0x524>
   16cba:	00c4d793          	srl	a5,s1,0xc
   16cbe:	06f78593          	add	a1,a5,111 # fffff06f <__BSS_END__+0xfffe1327>
   16cc2:	06e78813          	add	a6,a5,110
   16cc6:	00359613          	sll	a2,a1,0x3
   16cca:	bb59                	j	16a60 <_malloc_r+0xa0>
   16ccc:	0e05                	add	t3,t3,1
   16cce:	003e7793          	and	a5,t3,3
   16cd2:	0521                	add	a0,a0,8
   16cd4:	cfdd                	beqz	a5,16d92 <_malloc_r+0x3d2>
   16cd6:	455c                	lw	a5,12(a0)
   16cd8:	b5b1                	j	16b24 <_malloc_r+0x164>
   16cda:	4410                	lw	a2,8(s0)
   16cdc:	0014e593          	or	a1,s1,1
   16ce0:	c04c                	sw	a1,4(s0)
   16ce2:	c65c                	sw	a5,12(a2)
   16ce4:	c790                	sw	a2,8(a5)
   16ce6:	94a2                	add	s1,s1,s0
   16ce8:	0099aa23          	sw	s1,20(s3)
   16cec:	0099a823          	sw	s1,16(s3)
   16cf0:	0016e793          	or	a5,a3,1
   16cf4:	0114a623          	sw	a7,12(s1)
   16cf8:	0114a423          	sw	a7,8(s1)
   16cfc:	c0dc                	sw	a5,4(s1)
   16cfe:	9722                	add	a4,a4,s0
   16d00:	854a                	mv	a0,s2
   16d02:	c314                	sw	a3,0(a4)
   16d04:	2a1000ef          	jal	177a4 <__malloc_unlock>
   16d08:	00840513          	add	a0,s0,8
   16d0c:	bb01                	j	16a1c <_malloc_r+0x5c>
   16d0e:	97a2                	add	a5,a5,s0
   16d10:	43d8                	lw	a4,4(a5)
   16d12:	854a                	mv	a0,s2
   16d14:	00176713          	or	a4,a4,1
   16d18:	c3d8                	sw	a4,4(a5)
   16d1a:	28b000ef          	jal	177a4 <__malloc_unlock>
   16d1e:	00840513          	add	a0,s0,8
   16d22:	b9ed                	j	16a1c <_malloc_r+0x5c>
   16d24:	0034d593          	srl	a1,s1,0x3
   16d28:	00848793          	add	a5,s1,8
   16d2c:	b975                	j	169e8 <_malloc_r+0x28>
   16d2e:	0014e693          	or	a3,s1,1
   16d32:	c054                	sw	a3,4(s0)
   16d34:	94a2                	add	s1,s1,s0
   16d36:	0099aa23          	sw	s1,20(s3)
   16d3a:	0099a823          	sw	s1,16(s3)
   16d3e:	00176693          	or	a3,a4,1
   16d42:	0114a623          	sw	a7,12(s1)
   16d46:	0114a423          	sw	a7,8(s1)
   16d4a:	c0d4                	sw	a3,4(s1)
   16d4c:	97a2                	add	a5,a5,s0
   16d4e:	854a                	mv	a0,s2
   16d50:	c398                	sw	a4,0(a5)
   16d52:	253000ef          	jal	177a4 <__malloc_unlock>
   16d56:	00840513          	add	a0,s0,8
   16d5a:	b1c9                	j	16a1c <_malloc_r+0x5c>
   16d5c:	0067d713          	srl	a4,a5,0x6
   16d60:	03970613          	add	a2,a4,57
   16d64:	03870693          	add	a3,a4,56
   16d68:	060e                	sll	a2,a2,0x3
   16d6a:	bf31                	j	16c86 <_malloc_r+0x2c6>
   16d6c:	05340d63          	beq	s0,s3,16dc6 <_malloc_r+0x406>
   16d70:	0089a403          	lw	s0,8(s3)
   16d74:	4c22                	lw	s8,8(sp)
   16d76:	405c                	lw	a5,4(s0)
   16d78:	bd71                	j	16c14 <_malloc_r+0x254>
   16d7a:	05c78593          	add	a1,a5,92
   16d7e:	05b78813          	add	a6,a5,91
   16d82:	00359613          	sll	a2,a1,0x3
   16d86:	b9e9                	j	16a60 <_malloc_r+0xa0>
   16d88:	00832783          	lw	a5,8(t1)
   16d8c:	15fd                	add	a1,a1,-1
   16d8e:	1e679663          	bne	a5,t1,16f7a <_malloc_r+0x5ba>
   16d92:	0035f793          	and	a5,a1,3
   16d96:	1361                	add	t1,t1,-8
   16d98:	fbe5                	bnez	a5,16d88 <_malloc_r+0x3c8>
   16d9a:	0049a703          	lw	a4,4(s3)
   16d9e:	fff64793          	not	a5,a2
   16da2:	8ff9                	and	a5,a5,a4
   16da4:	00f9a223          	sw	a5,4(s3)
   16da8:	0606                	sll	a2,a2,0x1
   16daa:	dcc7e3e3          	bltu	a5,a2,16b70 <_malloc_r+0x1b0>
   16dae:	dc0601e3          	beqz	a2,16b70 <_malloc_r+0x1b0>
   16db2:	00f67733          	and	a4,a2,a5
   16db6:	e711                	bnez	a4,16dc2 <_malloc_r+0x402>
   16db8:	0606                	sll	a2,a2,0x1
   16dba:	00f67733          	and	a4,a2,a5
   16dbe:	0e11                	add	t3,t3,4
   16dc0:	df65                	beqz	a4,16db8 <_malloc_r+0x3f8>
   16dc2:	85f2                	mv	a1,t3
   16dc4:	bb91                	j	16b18 <_malloc_r+0x158>
   16dc6:	51018c13          	add	s8,gp,1296 # 1dd20 <__malloc_current_mallinfo>
   16dca:	000c2703          	lw	a4,0(s8)
   16dce:	9756                	add	a4,a4,s5
   16dd0:	00ec2023          	sw	a4,0(s8)
   16dd4:	000ca683          	lw	a3,0(s9)
   16dd8:	57fd                	li	a5,-1
   16dda:	12f68663          	beq	a3,a5,16f06 <_malloc_r+0x546>
   16dde:	414b87b3          	sub	a5,s7,s4
   16de2:	97ba                	add	a5,a5,a4
   16de4:	00fc2023          	sw	a5,0(s8)
   16de8:	007bfc93          	and	s9,s7,7
   16dec:	0a0c8263          	beqz	s9,16e90 <_malloc_r+0x4d0>
   16df0:	419b8bb3          	sub	s7,s7,s9
   16df4:	6785                	lui	a5,0x1
   16df6:	07a1                	add	a5,a5,8 # 1008 <exit-0xf08c>
   16df8:	0ba1                	add	s7,s7,8
   16dfa:	419785b3          	sub	a1,a5,s9
   16dfe:	9ade                	add	s5,s5,s7
   16e00:	415585b3          	sub	a1,a1,s5
   16e04:	05d2                	sll	a1,a1,0x14
   16e06:	0145da13          	srl	s4,a1,0x14
   16e0a:	85d2                	mv	a1,s4
   16e0c:	854a                	mv	a0,s2
   16e0e:	4e4020ef          	jal	192f2 <_sbrk_r>
   16e12:	57fd                	li	a5,-1
   16e14:	12f50563          	beq	a0,a5,16f3e <_malloc_r+0x57e>
   16e18:	41750533          	sub	a0,a0,s7
   16e1c:	01450ab3          	add	s5,a0,s4
   16e20:	000c2703          	lw	a4,0(s8)
   16e24:	0179a423          	sw	s7,8(s3)
   16e28:	001ae793          	or	a5,s5,1
   16e2c:	00ea05b3          	add	a1,s4,a4
   16e30:	00bc2023          	sw	a1,0(s8)
   16e34:	00fba223          	sw	a5,4(s7)
   16e38:	dd3400e3          	beq	s0,s3,16bf8 <_malloc_r+0x238>
   16e3c:	46bd                	li	a3,15
   16e3e:	0766f963          	bgeu	a3,s6,16eb0 <_malloc_r+0x4f0>
   16e42:	4058                	lw	a4,4(s0)
   16e44:	ff4b0793          	add	a5,s6,-12
   16e48:	9be1                	and	a5,a5,-8
   16e4a:	8b05                	and	a4,a4,1
   16e4c:	8f5d                	or	a4,a4,a5
   16e4e:	c058                	sw	a4,4(s0)
   16e50:	4615                	li	a2,5
   16e52:	00f40733          	add	a4,s0,a5
   16e56:	c350                	sw	a2,4(a4)
   16e58:	c710                	sw	a2,8(a4)
   16e5a:	00f6e563          	bltu	a3,a5,16e64 <_malloc_r+0x4a4>
   16e5e:	004ba783          	lw	a5,4(s7)
   16e62:	bb59                	j	16bf8 <_malloc_r+0x238>
   16e64:	00840593          	add	a1,s0,8
   16e68:	854a                	mv	a0,s2
   16e6a:	85dff0ef          	jal	166c6 <_free_r>
   16e6e:	0089ab83          	lw	s7,8(s3)
   16e72:	000c2583          	lw	a1,0(s8)
   16e76:	004ba783          	lw	a5,4(s7)
   16e7a:	bbbd                	j	16bf8 <_malloc_r+0x238>
   16e7c:	0ac1                	add	s5,s5,16
   16e7e:	bb25                	j	16bb6 <_malloc_r+0x1f6>
   16e80:	8689                	sra	a3,a3,0x2
   16e82:	4785                	li	a5,1
   16e84:	00d797b3          	sll	a5,a5,a3
   16e88:	8d5d                	or	a0,a0,a5
   16e8a:	00a9a223          	sw	a0,4(s3)
   16e8e:	bd11                	j	16ca2 <_malloc_r+0x2e2>
   16e90:	015b85b3          	add	a1,s7,s5
   16e94:	40b005b3          	neg	a1,a1
   16e98:	05d2                	sll	a1,a1,0x14
   16e9a:	0145da13          	srl	s4,a1,0x14
   16e9e:	85d2                	mv	a1,s4
   16ea0:	854a                	mv	a0,s2
   16ea2:	450020ef          	jal	192f2 <_sbrk_r>
   16ea6:	57fd                	li	a5,-1
   16ea8:	f6f518e3          	bne	a0,a5,16e18 <_malloc_r+0x458>
   16eac:	4a01                	li	s4,0
   16eae:	bf8d                	j	16e20 <_malloc_r+0x460>
   16eb0:	4c22                	lw	s8,8(sp)
   16eb2:	4785                	li	a5,1
   16eb4:	00fba223          	sw	a5,4(s7)
   16eb8:	854a                	mv	a0,s2
   16eba:	0eb000ef          	jal	177a4 <__malloc_unlock>
   16ebe:	4501                	li	a0,0
   16ec0:	4a62                	lw	s4,24(sp)
   16ec2:	4ad2                	lw	s5,20(sp)
   16ec4:	4b42                	lw	s6,16(sp)
   16ec6:	4bb2                	lw	s7,12(sp)
   16ec8:	4c92                	lw	s9,4(sp)
   16eca:	be89                	j	16a1c <_malloc_r+0x5c>
   16ecc:	05400693          	li	a3,84
   16ed0:	02e6ee63          	bltu	a3,a4,16f0c <_malloc_r+0x54c>
   16ed4:	00c7d713          	srl	a4,a5,0xc
   16ed8:	06f70613          	add	a2,a4,111
   16edc:	06e70693          	add	a3,a4,110
   16ee0:	060e                	sll	a2,a2,0x3
   16ee2:	b355                	j	16c86 <_malloc_r+0x2c6>
   16ee4:	15400713          	li	a4,340
   16ee8:	02f76e63          	bltu	a4,a5,16f24 <_malloc_r+0x564>
   16eec:	00f4d793          	srl	a5,s1,0xf
   16ef0:	07878593          	add	a1,a5,120
   16ef4:	07778813          	add	a6,a5,119
   16ef8:	00359613          	sll	a2,a1,0x3
   16efc:	b695                	j	16a60 <_malloc_r+0xa0>
   16efe:	0089a403          	lw	s0,8(s3)
   16f02:	405c                	lw	a5,4(s0)
   16f04:	bb01                	j	16c14 <_malloc_r+0x254>
   16f06:	017ca023          	sw	s7,0(s9)
   16f0a:	bdf9                	j	16de8 <_malloc_r+0x428>
   16f0c:	15400693          	li	a3,340
   16f10:	02e6ed63          	bltu	a3,a4,16f4a <_malloc_r+0x58a>
   16f14:	00f7d713          	srl	a4,a5,0xf
   16f18:	07870613          	add	a2,a4,120
   16f1c:	07770693          	add	a3,a4,119
   16f20:	060e                	sll	a2,a2,0x3
   16f22:	b395                	j	16c86 <_malloc_r+0x2c6>
   16f24:	55400713          	li	a4,1364
   16f28:	02f76d63          	bltu	a4,a5,16f62 <_malloc_r+0x5a2>
   16f2c:	0124d793          	srl	a5,s1,0x12
   16f30:	07d78593          	add	a1,a5,125
   16f34:	07c78813          	add	a6,a5,124
   16f38:	00359613          	sll	a2,a1,0x3
   16f3c:	b615                	j	16a60 <_malloc_r+0xa0>
   16f3e:	1ce1                	add	s9,s9,-8
   16f40:	9ae6                	add	s5,s5,s9
   16f42:	417a8ab3          	sub	s5,s5,s7
   16f46:	4a01                	li	s4,0
   16f48:	bde1                	j	16e20 <_malloc_r+0x460>
   16f4a:	55400693          	li	a3,1364
   16f4e:	02e6e163          	bltu	a3,a4,16f70 <_malloc_r+0x5b0>
   16f52:	0127d713          	srl	a4,a5,0x12
   16f56:	07d70613          	add	a2,a4,125
   16f5a:	07c70693          	add	a3,a4,124
   16f5e:	060e                	sll	a2,a2,0x3
   16f60:	b31d                	j	16c86 <_malloc_r+0x2c6>
   16f62:	3f800613          	li	a2,1016
   16f66:	07f00593          	li	a1,127
   16f6a:	07e00813          	li	a6,126
   16f6e:	bccd                	j	16a60 <_malloc_r+0xa0>
   16f70:	3f800613          	li	a2,1016
   16f74:	07e00693          	li	a3,126
   16f78:	b339                	j	16c86 <_malloc_r+0x2c6>
   16f7a:	0049a783          	lw	a5,4(s3)
   16f7e:	b52d                	j	16da8 <_malloc_r+0x3e8>

00016f80 <_mbtowc_r>:
   16f80:	8f01a783          	lw	a5,-1808(gp) # 1d100 <__global_locale+0xe4>
   16f84:	8782                	jr	a5

00016f86 <__ascii_mbtowc>:
   16f86:	c999                	beqz	a1,16f9c <__ascii_mbtowc+0x16>
   16f88:	c61d                	beqz	a2,16fb6 <__ascii_mbtowc+0x30>
   16f8a:	ca95                	beqz	a3,16fbe <__ascii_mbtowc+0x38>
   16f8c:	00064783          	lbu	a5,0(a2)
   16f90:	c19c                	sw	a5,0(a1)
   16f92:	00064503          	lbu	a0,0(a2)
   16f96:	00a03533          	snez	a0,a0
   16f9a:	8082                	ret
   16f9c:	1141                	add	sp,sp,-16
   16f9e:	006c                	add	a1,sp,12
   16fa0:	ce09                	beqz	a2,16fba <__ascii_mbtowc+0x34>
   16fa2:	c285                	beqz	a3,16fc2 <__ascii_mbtowc+0x3c>
   16fa4:	00064783          	lbu	a5,0(a2)
   16fa8:	c19c                	sw	a5,0(a1)
   16faa:	00064503          	lbu	a0,0(a2)
   16fae:	00a03533          	snez	a0,a0
   16fb2:	0141                	add	sp,sp,16
   16fb4:	8082                	ret
   16fb6:	4501                	li	a0,0
   16fb8:	8082                	ret
   16fba:	4501                	li	a0,0
   16fbc:	bfdd                	j	16fb2 <__ascii_mbtowc+0x2c>
   16fbe:	5579                	li	a0,-2
   16fc0:	8082                	ret
   16fc2:	5579                	li	a0,-2
   16fc4:	b7fd                	j	16fb2 <__ascii_mbtowc+0x2c>

00016fc6 <__utf8_mbtowc>:
   16fc6:	1141                	add	sp,sp,-16
   16fc8:	8e2a                	mv	t3,a0
   16fca:	c1d1                	beqz	a1,1704e <__utf8_mbtowc+0x88>
   16fcc:	ce35                	beqz	a2,17048 <__utf8_mbtowc+0x82>
   16fce:	20068963          	beqz	a3,171e0 <__utf8_mbtowc+0x21a>
   16fd2:	00072803          	lw	a6,0(a4)
   16fd6:	06081163          	bnez	a6,17038 <__utf8_mbtowc+0x72>
   16fda:	00064783          	lbu	a5,0(a2)
   16fde:	4505                	li	a0,1
   16fe0:	c3a5                	beqz	a5,17040 <__utf8_mbtowc+0x7a>
   16fe2:	07f00893          	li	a7,127
   16fe6:	0ef8d563          	bge	a7,a5,170d0 <__utf8_mbtowc+0x10a>
   16fea:	f4078893          	add	a7,a5,-192
   16fee:	437d                	li	t1,31
   16ff0:	07136163          	bltu	t1,a7,17052 <__utf8_mbtowc+0x8c>
   16ff4:	00f70223          	sb	a5,4(a4)
   16ff8:	00081763          	bnez	a6,17006 <__utf8_mbtowc+0x40>
   16ffc:	4805                	li	a6,1
   16ffe:	01072023          	sw	a6,0(a4)
   17002:	1d068f63          	beq	a3,a6,171e0 <__utf8_mbtowc+0x21a>
   17006:	962a                	add	a2,a2,a0
   17008:	00064683          	lbu	a3,0(a2)
   1700c:	03f00613          	li	a2,63
   17010:	0505                	add	a0,a0,1
   17012:	f8068813          	add	a6,a3,-128
   17016:	1b066a63          	bltu	a2,a6,171ca <__utf8_mbtowc+0x204>
   1701a:	0c100613          	li	a2,193
   1701e:	1af65663          	bge	a2,a5,171ca <__utf8_mbtowc+0x204>
   17022:	079a                	sll	a5,a5,0x6
   17024:	7c07f793          	and	a5,a5,1984
   17028:	03f6f693          	and	a3,a3,63
   1702c:	00072023          	sw	zero,0(a4)
   17030:	8fd5                	or	a5,a5,a3
   17032:	c19c                	sw	a5,0(a1)
   17034:	0141                	add	sp,sp,16
   17036:	8082                	ret
   17038:	00474783          	lbu	a5,4(a4)
   1703c:	4501                	li	a0,0
   1703e:	f3d5                	bnez	a5,16fe2 <__utf8_mbtowc+0x1c>
   17040:	0005a023          	sw	zero,0(a1)
   17044:	00072023          	sw	zero,0(a4)
   17048:	4501                	li	a0,0
   1704a:	0141                	add	sp,sp,16
   1704c:	8082                	ret
   1704e:	006c                	add	a1,sp,12
   17050:	bfb5                	j	16fcc <__utf8_mbtowc+0x6>
   17052:	f2078893          	add	a7,a5,-224
   17056:	433d                	li	t1,15
   17058:	09136263          	bltu	t1,a7,170dc <__utf8_mbtowc+0x116>
   1705c:	00f70223          	sb	a5,4(a4)
   17060:	12080963          	beqz	a6,17192 <__utf8_mbtowc+0x1cc>
   17064:	00168893          	add	a7,a3,1
   17068:	011038b3          	snez	a7,a7
   1706c:	4305                	li	t1,1
   1706e:	96c6                	add	a3,a3,a7
   17070:	12680663          	beq	a6,t1,1719c <__utf8_mbtowc+0x1d6>
   17074:	00574883          	lbu	a7,5(a4)
   17078:	0e000313          	li	t1,224
   1707c:	14678363          	beq	a5,t1,171c2 <__utf8_mbtowc+0x1fc>
   17080:	f8088313          	add	t1,a7,-128
   17084:	03f00e93          	li	t4,63
   17088:	146ee163          	bltu	t4,t1,171ca <__utf8_mbtowc+0x204>
   1708c:	011702a3          	sb	a7,5(a4)
   17090:	4305                	li	t1,1
   17092:	14680263          	beq	a6,t1,171d6 <__utf8_mbtowc+0x210>
   17096:	962a                	add	a2,a2,a0
   17098:	00064683          	lbu	a3,0(a2)
   1709c:	03f00613          	li	a2,63
   170a0:	0505                	add	a0,a0,1
   170a2:	f8068813          	add	a6,a3,-128
   170a6:	13066263          	bltu	a2,a6,171ca <__utf8_mbtowc+0x204>
   170aa:	6605                	lui	a2,0x1
   170ac:	07b2                	sll	a5,a5,0xc
   170ae:	089a                	sll	a7,a7,0x6
   170b0:	fc060613          	add	a2,a2,-64 # fc0 <exit-0xf0d4>
   170b4:	683d                	lui	a6,0xf
   170b6:	0107f7b3          	and	a5,a5,a6
   170ba:	00c8f8b3          	and	a7,a7,a2
   170be:	0117e7b3          	or	a5,a5,a7
   170c2:	03f6f693          	and	a3,a3,63
   170c6:	00072023          	sw	zero,0(a4)
   170ca:	8fd5                	or	a5,a5,a3
   170cc:	c19c                	sw	a5,0(a1)
   170ce:	bfb5                	j	1704a <__utf8_mbtowc+0x84>
   170d0:	00072023          	sw	zero,0(a4)
   170d4:	c19c                	sw	a5,0(a1)
   170d6:	4505                	li	a0,1
   170d8:	0141                	add	sp,sp,16
   170da:	8082                	ret
   170dc:	f1078893          	add	a7,a5,-240
   170e0:	4311                	li	t1,4
   170e2:	0f136463          	bltu	t1,a7,171ca <__utf8_mbtowc+0x204>
   170e6:	00f70223          	sb	a5,4(a4)
   170ea:	0c080063          	beqz	a6,171aa <__utf8_mbtowc+0x1e4>
   170ee:	00168893          	add	a7,a3,1
   170f2:	011038b3          	snez	a7,a7
   170f6:	4305                	li	t1,1
   170f8:	96c6                	add	a3,a3,a7
   170fa:	0a680d63          	beq	a6,t1,171b4 <__utf8_mbtowc+0x1ee>
   170fe:	00574883          	lbu	a7,5(a4)
   17102:	0f000313          	li	t1,240
   17106:	0c678f63          	beq	a5,t1,171e4 <__utf8_mbtowc+0x21e>
   1710a:	0f400313          	li	t1,244
   1710e:	10678963          	beq	a5,t1,17220 <__utf8_mbtowc+0x25a>
   17112:	f8088313          	add	t1,a7,-128
   17116:	03f00e93          	li	t4,63
   1711a:	0a6ee863          	bltu	t4,t1,171ca <__utf8_mbtowc+0x204>
   1711e:	011702a3          	sb	a7,5(a4)
   17122:	4305                	li	t1,1
   17124:	0c680563          	beq	a6,t1,171ee <__utf8_mbtowc+0x228>
   17128:	00072f03          	lw	t5,0(a4)
   1712c:	00168813          	add	a6,a3,1
   17130:	01003833          	snez	a6,a6
   17134:	4309                	li	t1,2
   17136:	96c2                	add	a3,a3,a6
   17138:	0c6f0063          	beq	t5,t1,171f8 <__utf8_mbtowc+0x232>
   1713c:	00674803          	lbu	a6,6(a4)
   17140:	f8080693          	add	a3,a6,-128 # ef80 <exit-0x1114>
   17144:	08dee363          	bltu	t4,a3,171ca <__utf8_mbtowc+0x204>
   17148:	962a                	add	a2,a2,a0
   1714a:	00064683          	lbu	a3,0(a2)
   1714e:	03f00613          	li	a2,63
   17152:	0505                	add	a0,a0,1
   17154:	f8068313          	add	t1,a3,-128
   17158:	06666963          	bltu	a2,t1,171ca <__utf8_mbtowc+0x204>
   1715c:	001c0337          	lui	t1,0x1c0
   17160:	07ca                	sll	a5,a5,0x12
   17162:	0067f7b3          	and	a5,a5,t1
   17166:	08b2                	sll	a7,a7,0xc
   17168:	6605                	lui	a2,0x1
   1716a:	0003f337          	lui	t1,0x3f
   1716e:	0068f8b3          	and	a7,a7,t1
   17172:	081a                	sll	a6,a6,0x6
   17174:	fc060613          	add	a2,a2,-64 # fc0 <exit-0xf0d4>
   17178:	0117e7b3          	or	a5,a5,a7
   1717c:	00c87833          	and	a6,a6,a2
   17180:	0107e7b3          	or	a5,a5,a6
   17184:	03f6f693          	and	a3,a3,63
   17188:	8fd5                	or	a5,a5,a3
   1718a:	c19c                	sw	a5,0(a1)
   1718c:	00072023          	sw	zero,0(a4)
   17190:	bd6d                	j	1704a <__utf8_mbtowc+0x84>
   17192:	4805                	li	a6,1
   17194:	01072023          	sw	a6,0(a4)
   17198:	05068463          	beq	a3,a6,171e0 <__utf8_mbtowc+0x21a>
   1719c:	00a60833          	add	a6,a2,a0
   171a0:	00084883          	lbu	a7,0(a6)
   171a4:	0505                	add	a0,a0,1
   171a6:	4805                	li	a6,1
   171a8:	bdc1                	j	17078 <__utf8_mbtowc+0xb2>
   171aa:	4805                	li	a6,1
   171ac:	01072023          	sw	a6,0(a4)
   171b0:	03068863          	beq	a3,a6,171e0 <__utf8_mbtowc+0x21a>
   171b4:	00a60833          	add	a6,a2,a0
   171b8:	00084883          	lbu	a7,0(a6)
   171bc:	0505                	add	a0,a0,1
   171be:	4805                	li	a6,1
   171c0:	b789                	j	17102 <__utf8_mbtowc+0x13c>
   171c2:	09f00313          	li	t1,159
   171c6:	eb134de3          	blt	t1,a7,17080 <__utf8_mbtowc+0xba>
   171ca:	08a00793          	li	a5,138
   171ce:	00fe2023          	sw	a5,0(t3)
   171d2:	557d                	li	a0,-1
   171d4:	bd9d                	j	1704a <__utf8_mbtowc+0x84>
   171d6:	4809                	li	a6,2
   171d8:	01072023          	sw	a6,0(a4)
   171dc:	eb069de3          	bne	a3,a6,17096 <__utf8_mbtowc+0xd0>
   171e0:	5579                	li	a0,-2
   171e2:	b5a5                	j	1704a <__utf8_mbtowc+0x84>
   171e4:	08f00313          	li	t1,143
   171e8:	f31345e3          	blt	t1,a7,17112 <__utf8_mbtowc+0x14c>
   171ec:	bff9                	j	171ca <__utf8_mbtowc+0x204>
   171ee:	4809                	li	a6,2
   171f0:	01072023          	sw	a6,0(a4)
   171f4:	ff0686e3          	beq	a3,a6,171e0 <__utf8_mbtowc+0x21a>
   171f8:	00a60833          	add	a6,a2,a0
   171fc:	00084803          	lbu	a6,0(a6)
   17200:	03f00313          	li	t1,63
   17204:	0505                	add	a0,a0,1
   17206:	f8080e93          	add	t4,a6,-128
   1720a:	fdd360e3          	bltu	t1,t4,171ca <__utf8_mbtowc+0x204>
   1720e:	430d                	li	t1,3
   17210:	01070323          	sb	a6,6(a4)
   17214:	00672023          	sw	t1,0(a4)
   17218:	f26698e3          	bne	a3,t1,17148 <__utf8_mbtowc+0x182>
   1721c:	5579                	li	a0,-2
   1721e:	b535                	j	1704a <__utf8_mbtowc+0x84>
   17220:	08f00313          	li	t1,143
   17224:	ef1357e3          	bge	t1,a7,17112 <__utf8_mbtowc+0x14c>
   17228:	b74d                	j	171ca <__utf8_mbtowc+0x204>

0001722a <__sjis_mbtowc>:
   1722a:	882a                	mv	a6,a0
   1722c:	c1b5                	beqz	a1,17290 <__sjis_mbtowc+0x66>
   1722e:	c265                	beqz	a2,1730e <__sjis_mbtowc+0xe4>
   17230:	c2fd                	beqz	a3,17316 <__sjis_mbtowc+0xec>
   17232:	4308                	lw	a0,0(a4)
   17234:	00064783          	lbu	a5,0(a2)
   17238:	c911                	beqz	a0,1724c <__sjis_mbtowc+0x22>
   1723a:	4685                	li	a3,1
   1723c:	02d50663          	beq	a0,a3,17268 <__sjis_mbtowc+0x3e>
   17240:	c19c                	sw	a5,0(a1)
   17242:	00064503          	lbu	a0,0(a2)
   17246:	00a03533          	snez	a0,a0
   1724a:	8082                	ret
   1724c:	f7f78513          	add	a0,a5,-129
   17250:	48f9                	li	a7,30
   17252:	06a8e163          	bltu	a7,a0,172b4 <__sjis_mbtowc+0x8a>
   17256:	4505                	li	a0,1
   17258:	00f70223          	sb	a5,4(a4)
   1725c:	c308                	sw	a0,0(a4)
   1725e:	0aa68c63          	beq	a3,a0,17316 <__sjis_mbtowc+0xec>
   17262:	00164783          	lbu	a5,1(a2)
   17266:	4509                	li	a0,2
   17268:	fc078693          	add	a3,a5,-64
   1726c:	03e00613          	li	a2,62
   17270:	00d67863          	bgeu	a2,a3,17280 <__sjis_mbtowc+0x56>
   17274:	f8078693          	add	a3,a5,-128
   17278:	07c00613          	li	a2,124
   1727c:	0ad66163          	bltu	a2,a3,1731e <__sjis_mbtowc+0xf4>
   17280:	00474683          	lbu	a3,4(a4)
   17284:	06a2                	sll	a3,a3,0x8
   17286:	97b6                	add	a5,a5,a3
   17288:	c19c                	sw	a5,0(a1)
   1728a:	00072023          	sw	zero,0(a4)
   1728e:	8082                	ret
   17290:	1141                	add	sp,sp,-16
   17292:	006c                	add	a1,sp,12
   17294:	ce3d                	beqz	a2,17312 <__sjis_mbtowc+0xe8>
   17296:	c2d1                	beqz	a3,1731a <__sjis_mbtowc+0xf0>
   17298:	4308                	lw	a0,0(a4)
   1729a:	00064783          	lbu	a5,0(a2)
   1729e:	c10d                	beqz	a0,172c0 <__sjis_mbtowc+0x96>
   172a0:	4685                	li	a3,1
   172a2:	04d50263          	beq	a0,a3,172e6 <__sjis_mbtowc+0xbc>
   172a6:	c19c                	sw	a5,0(a1)
   172a8:	00064503          	lbu	a0,0(a2)
   172ac:	00a03533          	snez	a0,a0
   172b0:	0141                	add	sp,sp,16
   172b2:	8082                	ret
   172b4:	f2078513          	add	a0,a5,-224
   172b8:	48bd                	li	a7,15
   172ba:	f8a8e3e3          	bltu	a7,a0,17240 <__sjis_mbtowc+0x16>
   172be:	bf61                	j	17256 <__sjis_mbtowc+0x2c>
   172c0:	f7f78513          	add	a0,a5,-129
   172c4:	48f9                	li	a7,30
   172c6:	00a8f763          	bgeu	a7,a0,172d4 <__sjis_mbtowc+0xaa>
   172ca:	f2078513          	add	a0,a5,-224
   172ce:	48bd                	li	a7,15
   172d0:	fca8ebe3          	bltu	a7,a0,172a6 <__sjis_mbtowc+0x7c>
   172d4:	4505                	li	a0,1
   172d6:	00f70223          	sb	a5,4(a4)
   172da:	c308                	sw	a0,0(a4)
   172dc:	02a68f63          	beq	a3,a0,1731a <__sjis_mbtowc+0xf0>
   172e0:	00164783          	lbu	a5,1(a2)
   172e4:	4509                	li	a0,2
   172e6:	fc078693          	add	a3,a5,-64
   172ea:	03e00613          	li	a2,62
   172ee:	00d67863          	bgeu	a2,a3,172fe <__sjis_mbtowc+0xd4>
   172f2:	f8078693          	add	a3,a5,-128
   172f6:	07c00613          	li	a2,124
   172fa:	02d66863          	bltu	a2,a3,1732a <__sjis_mbtowc+0x100>
   172fe:	00474683          	lbu	a3,4(a4)
   17302:	06a2                	sll	a3,a3,0x8
   17304:	97b6                	add	a5,a5,a3
   17306:	c19c                	sw	a5,0(a1)
   17308:	00072023          	sw	zero,0(a4)
   1730c:	b755                	j	172b0 <__sjis_mbtowc+0x86>
   1730e:	4501                	li	a0,0
   17310:	8082                	ret
   17312:	4501                	li	a0,0
   17314:	bf71                	j	172b0 <__sjis_mbtowc+0x86>
   17316:	5579                	li	a0,-2
   17318:	8082                	ret
   1731a:	5579                	li	a0,-2
   1731c:	bf51                	j	172b0 <__sjis_mbtowc+0x86>
   1731e:	08a00793          	li	a5,138
   17322:	00f82023          	sw	a5,0(a6)
   17326:	557d                	li	a0,-1
   17328:	8082                	ret
   1732a:	08a00793          	li	a5,138
   1732e:	00f82023          	sw	a5,0(a6)
   17332:	557d                	li	a0,-1
   17334:	bfb5                	j	172b0 <__sjis_mbtowc+0x86>

00017336 <__eucjp_mbtowc>:
   17336:	882a                	mv	a6,a0
   17338:	cdd9                	beqz	a1,173d6 <__eucjp_mbtowc+0xa0>
   1733a:	12060d63          	beqz	a2,17474 <__eucjp_mbtowc+0x13e>
   1733e:	14068f63          	beqz	a3,1749c <__eucjp_mbtowc+0x166>
   17342:	4308                	lw	a0,0(a4)
   17344:	00064783          	lbu	a5,0(a2)
   17348:	cd09                	beqz	a0,17362 <__eucjp_mbtowc+0x2c>
   1734a:	4885                	li	a7,1
   1734c:	03150f63          	beq	a0,a7,1738a <__eucjp_mbtowc+0x54>
   17350:	4689                	li	a3,2
   17352:	12d50a63          	beq	a0,a3,17486 <__eucjp_mbtowc+0x150>
   17356:	c19c                	sw	a5,0(a1)
   17358:	00064503          	lbu	a0,0(a2)
   1735c:	00a03533          	snez	a0,a0
   17360:	8082                	ret
   17362:	f7278513          	add	a0,a5,-142
   17366:	4885                	li	a7,1
   17368:	00a8f863          	bgeu	a7,a0,17378 <__eucjp_mbtowc+0x42>
   1736c:	f5f78513          	add	a0,a5,-161
   17370:	05d00893          	li	a7,93
   17374:	fea8e1e3          	bltu	a7,a0,17356 <__eucjp_mbtowc+0x20>
   17378:	4505                	li	a0,1
   1737a:	00f70223          	sb	a5,4(a4)
   1737e:	c308                	sw	a0,0(a4)
   17380:	10a68e63          	beq	a3,a0,1749c <__eucjp_mbtowc+0x166>
   17384:	00164783          	lbu	a5,1(a2)
   17388:	4509                	li	a0,2
   1738a:	f5f78893          	add	a7,a5,-161
   1738e:	05d00313          	li	t1,93
   17392:	11136963          	bltu	t1,a7,174a4 <__eucjp_mbtowc+0x16e>
   17396:	00474883          	lbu	a7,4(a4)
   1739a:	08f00313          	li	t1,143
   1739e:	0c689d63          	bne	a7,t1,17478 <__eucjp_mbtowc+0x142>
   173a2:	00f702a3          	sb	a5,5(a4)
   173a6:	4789                	li	a5,2
   173a8:	c31c                	sw	a5,0(a4)
   173aa:	0ed57963          	bgeu	a0,a3,1749c <__eucjp_mbtowc+0x166>
   173ae:	962a                	add	a2,a2,a0
   173b0:	00064783          	lbu	a5,0(a2)
   173b4:	0505                	add	a0,a0,1
   173b6:	f5f78693          	add	a3,a5,-161
   173ba:	05d00613          	li	a2,93
   173be:	0ed66363          	bltu	a2,a3,174a4 <__eucjp_mbtowc+0x16e>
   173c2:	00574683          	lbu	a3,5(a4)
   173c6:	07f7f793          	and	a5,a5,127
   173ca:	06a2                	sll	a3,a3,0x8
   173cc:	97b6                	add	a5,a5,a3
   173ce:	c19c                	sw	a5,0(a1)
   173d0:	00072023          	sw	zero,0(a4)
   173d4:	8082                	ret
   173d6:	1141                	add	sp,sp,-16
   173d8:	006c                	add	a1,sp,12
   173da:	ca45                	beqz	a2,1748a <__eucjp_mbtowc+0x154>
   173dc:	caf1                	beqz	a3,174b0 <__eucjp_mbtowc+0x17a>
   173de:	4308                	lw	a0,0(a4)
   173e0:	00064783          	lbu	a5,0(a2)
   173e4:	cd11                	beqz	a0,17400 <__eucjp_mbtowc+0xca>
   173e6:	4885                	li	a7,1
   173e8:	05150063          	beq	a0,a7,17428 <__eucjp_mbtowc+0xf2>
   173ec:	4689                	li	a3,2
   173ee:	0ad50963          	beq	a0,a3,174a0 <__eucjp_mbtowc+0x16a>
   173f2:	c19c                	sw	a5,0(a1)
   173f4:	00064503          	lbu	a0,0(a2)
   173f8:	00a03533          	snez	a0,a0
   173fc:	0141                	add	sp,sp,16
   173fe:	8082                	ret
   17400:	f7278513          	add	a0,a5,-142
   17404:	4885                	li	a7,1
   17406:	00a8f863          	bgeu	a7,a0,17416 <__eucjp_mbtowc+0xe0>
   1740a:	f5f78513          	add	a0,a5,-161
   1740e:	05d00893          	li	a7,93
   17412:	fea8e0e3          	bltu	a7,a0,173f2 <__eucjp_mbtowc+0xbc>
   17416:	4505                	li	a0,1
   17418:	00f70223          	sb	a5,4(a4)
   1741c:	c308                	sw	a0,0(a4)
   1741e:	08a68963          	beq	a3,a0,174b0 <__eucjp_mbtowc+0x17a>
   17422:	00164783          	lbu	a5,1(a2)
   17426:	4509                	li	a0,2
   17428:	f5f78893          	add	a7,a5,-161
   1742c:	05d00313          	li	t1,93
   17430:	09136263          	bltu	t1,a7,174b4 <__eucjp_mbtowc+0x17e>
   17434:	00474883          	lbu	a7,4(a4)
   17438:	08f00313          	li	t1,143
   1743c:	04689963          	bne	a7,t1,1748e <__eucjp_mbtowc+0x158>
   17440:	00f702a3          	sb	a5,5(a4)
   17444:	4789                	li	a5,2
   17446:	c31c                	sw	a5,0(a4)
   17448:	06d57463          	bgeu	a0,a3,174b0 <__eucjp_mbtowc+0x17a>
   1744c:	962a                	add	a2,a2,a0
   1744e:	00064783          	lbu	a5,0(a2)
   17452:	0505                	add	a0,a0,1
   17454:	f5f78693          	add	a3,a5,-161
   17458:	05d00613          	li	a2,93
   1745c:	04d66c63          	bltu	a2,a3,174b4 <__eucjp_mbtowc+0x17e>
   17460:	00574683          	lbu	a3,5(a4)
   17464:	07f7f793          	and	a5,a5,127
   17468:	06a2                	sll	a3,a3,0x8
   1746a:	97b6                	add	a5,a5,a3
   1746c:	c19c                	sw	a5,0(a1)
   1746e:	00072023          	sw	zero,0(a4)
   17472:	b769                	j	173fc <__eucjp_mbtowc+0xc6>
   17474:	4501                	li	a0,0
   17476:	8082                	ret
   17478:	08a2                	sll	a7,a7,0x8
   1747a:	98be                	add	a7,a7,a5
   1747c:	0115a023          	sw	a7,0(a1)
   17480:	00072023          	sw	zero,0(a4)
   17484:	8082                	ret
   17486:	4505                	li	a0,1
   17488:	b73d                	j	173b6 <__eucjp_mbtowc+0x80>
   1748a:	4501                	li	a0,0
   1748c:	bf85                	j	173fc <__eucjp_mbtowc+0xc6>
   1748e:	08a2                	sll	a7,a7,0x8
   17490:	98be                	add	a7,a7,a5
   17492:	0115a023          	sw	a7,0(a1)
   17496:	00072023          	sw	zero,0(a4)
   1749a:	b78d                	j	173fc <__eucjp_mbtowc+0xc6>
   1749c:	5579                	li	a0,-2
   1749e:	8082                	ret
   174a0:	4505                	li	a0,1
   174a2:	bf4d                	j	17454 <__eucjp_mbtowc+0x11e>
   174a4:	08a00793          	li	a5,138
   174a8:	00f82023          	sw	a5,0(a6)
   174ac:	557d                	li	a0,-1
   174ae:	8082                	ret
   174b0:	5579                	li	a0,-2
   174b2:	b7a9                	j	173fc <__eucjp_mbtowc+0xc6>
   174b4:	08a00793          	li	a5,138
   174b8:	00f82023          	sw	a5,0(a6)
   174bc:	557d                	li	a0,-1
   174be:	bf3d                	j	173fc <__eucjp_mbtowc+0xc6>

000174c0 <__jis_mbtowc>:
   174c0:	1101                	add	sp,sp,-32
   174c2:	cdb9                	beqz	a1,17520 <__jis_mbtowc+0x60>
   174c4:	c225                	beqz	a2,17524 <__jis_mbtowc+0x64>
   174c6:	12068d63          	beqz	a3,17600 <__jis_mbtowc+0x140>
   174ca:	ce22                	sw	s0,28(sp)
   174cc:	cc26                	sw	s1,24(sp)
   174ce:	ca4a                	sw	s2,20(sp)
   174d0:	c84e                	sw	s3,16(sp)
   174d2:	8eb2                	mv	t4,a2
   174d4:	000ec303          	lbu	t1,0(t4)
   174d8:	00074903          	lbu	s2,0(a4)
   174dc:	84b2                	mv	s1,a2
   174de:	4885                	li	a7,1
   174e0:	00005397          	auipc	t2,0x5
   174e4:	1e838393          	add	t2,t2,488 # 1c6c8 <JIS_state_table>
   174e8:	00005297          	auipc	t0,0x5
   174ec:	19828293          	add	t0,t0,408 # 1c680 <JIS_action_table>
   174f0:	02f00413          	li	s0,47
   174f4:	00005f17          	auipc	t5,0x5
   174f8:	0b4f0f13          	add	t5,t5,180 # 1c5a8 <_ctype_+0x104>
   174fc:	4f95                	li	t6,5
   174fe:	00005e17          	auipc	t3,0x5
   17502:	16ae0e13          	add	t3,t3,362 # 1c668 <_ctype_+0x1c4>
   17506:	06030b63          	beqz	t1,1757c <__jis_mbtowc+0xbc>
   1750a:	fe530793          	add	a5,t1,-27 # 3efe5 <__BSS_END__+0x2129d>
   1750e:	0ff7f793          	zext.b	a5,a5
   17512:	00f46e63          	bltu	s0,a5,1752e <__jis_mbtowc+0x6e>
   17516:	078a                	sll	a5,a5,0x2
   17518:	97fa                	add	a5,a5,t5
   1751a:	439c                	lw	a5,0(a5)
   1751c:	97fa                	add	a5,a5,t5
   1751e:	8782                	jr	a5
   17520:	006c                	add	a1,sp,12
   17522:	f255                	bnez	a2,174c6 <__jis_mbtowc+0x6>
   17524:	00072023          	sw	zero,0(a4)
   17528:	4505                	li	a0,1
   1752a:	6105                	add	sp,sp,32
   1752c:	8082                	ret
   1752e:	fdf30993          	add	s3,t1,-33
   17532:	05d00793          	li	a5,93
   17536:	0137b9b3          	sltu	s3,a5,s3
   1753a:	099d                	add	s3,s3,7
   1753c:	00391793          	sll	a5,s2,0x3
   17540:	97ca                	add	a5,a5,s2
   17542:	00f28833          	add	a6,t0,a5
   17546:	984e                	add	a6,a6,s3
   17548:	00084803          	lbu	a6,0(a6)
   1754c:	979e                	add	a5,a5,t2
   1754e:	97ce                	add	a5,a5,s3
   17550:	0007c903          	lbu	s2,0(a5)
   17554:	090fe263          	bltu	t6,a6,175d8 <__jis_mbtowc+0x118>
   17558:	080a                	sll	a6,a6,0x2
   1755a:	9872                	add	a6,a6,t3
   1755c:	00082783          	lw	a5,0(a6)
   17560:	97f2                	add	a5,a5,t3
   17562:	8782                	jr	a5
   17564:	00670223          	sb	t1,4(a4)
   17568:	0e85                	add	t4,t4,1
   1756a:	00188793          	add	a5,a7,1
   1756e:	08d8f363          	bgeu	a7,a3,175f4 <__jis_mbtowc+0x134>
   17572:	000ec303          	lbu	t1,0(t4)
   17576:	88be                	mv	a7,a5
   17578:	f80319e3          	bnez	t1,1750a <__jis_mbtowc+0x4a>
   1757c:	4999                	li	s3,6
   1757e:	bf7d                	j	1753c <__jis_mbtowc+0x7c>
   17580:	01148633          	add	a2,s1,a7
   17584:	b7d5                	j	17568 <__jis_mbtowc+0xa8>
   17586:	4685                	li	a3,1
   17588:	00474783          	lbu	a5,4(a4)
   1758c:	c314                	sw	a3,0(a4)
   1758e:	000ec703          	lbu	a4,0(t4)
   17592:	07a2                	sll	a5,a5,0x8
   17594:	8546                	mv	a0,a7
   17596:	97ba                	add	a5,a5,a4
   17598:	4472                	lw	s0,28(sp)
   1759a:	44e2                	lw	s1,24(sp)
   1759c:	4952                	lw	s2,20(sp)
   1759e:	49c2                	lw	s3,16(sp)
   175a0:	c19c                	sw	a5,0(a1)
   175a2:	6105                	add	sp,sp,32
   175a4:	8082                	ret
   175a6:	00072023          	sw	zero,0(a4)
   175aa:	00064783          	lbu	a5,0(a2)
   175ae:	8546                	mv	a0,a7
   175b0:	b7e5                	j	17598 <__jis_mbtowc+0xd8>
   175b2:	4472                	lw	s0,28(sp)
   175b4:	00072023          	sw	zero,0(a4)
   175b8:	0005a023          	sw	zero,0(a1)
   175bc:	44e2                	lw	s1,24(sp)
   175be:	4952                	lw	s2,20(sp)
   175c0:	49c2                	lw	s3,16(sp)
   175c2:	4501                	li	a0,0
   175c4:	6105                	add	sp,sp,32
   175c6:	8082                	ret
   175c8:	4989                	li	s3,2
   175ca:	bf8d                	j	1753c <__jis_mbtowc+0x7c>
   175cc:	498d                	li	s3,3
   175ce:	b7bd                	j	1753c <__jis_mbtowc+0x7c>
   175d0:	4991                	li	s3,4
   175d2:	b7ad                	j	1753c <__jis_mbtowc+0x7c>
   175d4:	4995                	li	s3,5
   175d6:	b79d                	j	1753c <__jis_mbtowc+0x7c>
   175d8:	4472                	lw	s0,28(sp)
   175da:	08a00793          	li	a5,138
   175de:	c11c                	sw	a5,0(a0)
   175e0:	44e2                	lw	s1,24(sp)
   175e2:	4952                	lw	s2,20(sp)
   175e4:	49c2                	lw	s3,16(sp)
   175e6:	557d                	li	a0,-1
   175e8:	6105                	add	sp,sp,32
   175ea:	8082                	ret
   175ec:	4985                	li	s3,1
   175ee:	b7b9                	j	1753c <__jis_mbtowc+0x7c>
   175f0:	4981                	li	s3,0
   175f2:	b7a9                	j	1753c <__jis_mbtowc+0x7c>
   175f4:	01272023          	sw	s2,0(a4)
   175f8:	4472                	lw	s0,28(sp)
   175fa:	44e2                	lw	s1,24(sp)
   175fc:	4952                	lw	s2,20(sp)
   175fe:	49c2                	lw	s3,16(sp)
   17600:	5579                	li	a0,-2
   17602:	b745                	j	175a2 <__jis_mbtowc+0xe2>

00017604 <__smakebuf_r>:
   17604:	00c59783          	lh	a5,12(a1)
   17608:	7119                	add	sp,sp,-128
   1760a:	dca2                	sw	s0,120(sp)
   1760c:	de86                	sw	ra,124(sp)
   1760e:	0027f713          	and	a4,a5,2
   17612:	842e                	mv	s0,a1
   17614:	cb19                	beqz	a4,1762a <__smakebuf_r+0x26>
   17616:	04358793          	add	a5,a1,67
   1761a:	c19c                	sw	a5,0(a1)
   1761c:	c99c                	sw	a5,16(a1)
   1761e:	4785                	li	a5,1
   17620:	c9dc                	sw	a5,20(a1)
   17622:	50f6                	lw	ra,124(sp)
   17624:	5466                	lw	s0,120(sp)
   17626:	6109                	add	sp,sp,128
   17628:	8082                	ret
   1762a:	00e59583          	lh	a1,14(a1)
   1762e:	daa6                	sw	s1,116(sp)
   17630:	d8ca                	sw	s2,112(sp)
   17632:	d6ce                	sw	s3,108(sp)
   17634:	d4d2                	sw	s4,104(sp)
   17636:	84aa                	mv	s1,a0
   17638:	0605c363          	bltz	a1,1769e <__smakebuf_r+0x9a>
   1763c:	0030                	add	a2,sp,8
   1763e:	3e5010ef          	jal	19222 <_fstat_r>
   17642:	04054c63          	bltz	a0,1769a <__smakebuf_r+0x96>
   17646:	47b2                	lw	a5,12(sp)
   17648:	693d                	lui	s2,0xf
   1764a:	6985                	lui	s3,0x1
   1764c:	00f97933          	and	s2,s2,a5
   17650:	77f9                	lui	a5,0xffffe
   17652:	993e                	add	s2,s2,a5
   17654:	00193913          	seqz	s2,s2
   17658:	40000a13          	li	s4,1024
   1765c:	80098993          	add	s3,s3,-2048 # 800 <exit-0xf894>
   17660:	85d2                	mv	a1,s4
   17662:	8526                	mv	a0,s1
   17664:	b5cff0ef          	jal	169c0 <_malloc_r>
   17668:	00c41783          	lh	a5,12(s0)
   1766c:	c539                	beqz	a0,176ba <__smakebuf_r+0xb6>
   1766e:	0807e793          	or	a5,a5,128
   17672:	c008                	sw	a0,0(s0)
   17674:	c808                	sw	a0,16(s0)
   17676:	00f41623          	sh	a5,12(s0)
   1767a:	01442a23          	sw	s4,20(s0)
   1767e:	06091563          	bnez	s2,176e8 <__smakebuf_r+0xe4>
   17682:	0137e7b3          	or	a5,a5,s3
   17686:	50f6                	lw	ra,124(sp)
   17688:	00f41623          	sh	a5,12(s0)
   1768c:	5466                	lw	s0,120(sp)
   1768e:	54d6                	lw	s1,116(sp)
   17690:	5946                	lw	s2,112(sp)
   17692:	59b6                	lw	s3,108(sp)
   17694:	5a26                	lw	s4,104(sp)
   17696:	6109                	add	sp,sp,128
   17698:	8082                	ret
   1769a:	00c41783          	lh	a5,12(s0)
   1769e:	0807f793          	and	a5,a5,128
   176a2:	4901                	li	s2,0
   176a4:	cf95                	beqz	a5,176e0 <__smakebuf_r+0xdc>
   176a6:	04000a13          	li	s4,64
   176aa:	85d2                	mv	a1,s4
   176ac:	8526                	mv	a0,s1
   176ae:	b12ff0ef          	jal	169c0 <_malloc_r>
   176b2:	00c41783          	lh	a5,12(s0)
   176b6:	4981                	li	s3,0
   176b8:	f95d                	bnez	a0,1766e <__smakebuf_r+0x6a>
   176ba:	2007f713          	and	a4,a5,512
   176be:	ef15                	bnez	a4,176fa <__smakebuf_r+0xf6>
   176c0:	9bf1                	and	a5,a5,-4
   176c2:	0027e793          	or	a5,a5,2
   176c6:	04340713          	add	a4,s0,67
   176ca:	00f41623          	sh	a5,12(s0)
   176ce:	4785                	li	a5,1
   176d0:	54d6                	lw	s1,116(sp)
   176d2:	5946                	lw	s2,112(sp)
   176d4:	59b6                	lw	s3,108(sp)
   176d6:	5a26                	lw	s4,104(sp)
   176d8:	c018                	sw	a4,0(s0)
   176da:	c818                	sw	a4,16(s0)
   176dc:	c85c                	sw	a5,20(s0)
   176de:	b791                	j	17622 <__smakebuf_r+0x1e>
   176e0:	40000a13          	li	s4,1024
   176e4:	4981                	li	s3,0
   176e6:	bfad                	j	17660 <__smakebuf_r+0x5c>
   176e8:	00e41583          	lh	a1,14(s0)
   176ec:	8526                	mv	a0,s1
   176ee:	369010ef          	jal	19256 <_isatty_r>
   176f2:	e909                	bnez	a0,17704 <__smakebuf_r+0x100>
   176f4:	00c41783          	lh	a5,12(s0)
   176f8:	b769                	j	17682 <__smakebuf_r+0x7e>
   176fa:	54d6                	lw	s1,116(sp)
   176fc:	5946                	lw	s2,112(sp)
   176fe:	59b6                	lw	s3,108(sp)
   17700:	5a26                	lw	s4,104(sp)
   17702:	b705                	j	17622 <__smakebuf_r+0x1e>
   17704:	00c45783          	lhu	a5,12(s0)
   17708:	9bf1                	and	a5,a5,-4
   1770a:	0017e793          	or	a5,a5,1
   1770e:	07c2                	sll	a5,a5,0x10
   17710:	87c1                	sra	a5,a5,0x10
   17712:	bf85                	j	17682 <__smakebuf_r+0x7e>

00017714 <__swhatbuf_r>:
   17714:	7159                	add	sp,sp,-112
   17716:	d4a2                	sw	s0,104(sp)
   17718:	842e                	mv	s0,a1
   1771a:	00e59583          	lh	a1,14(a1)
   1771e:	d2a6                	sw	s1,100(sp)
   17720:	d0ca                	sw	s2,96(sp)
   17722:	d686                	sw	ra,108(sp)
   17724:	84b2                	mv	s1,a2
   17726:	8936                	mv	s2,a3
   17728:	0205cc63          	bltz	a1,17760 <__swhatbuf_r+0x4c>
   1772c:	0030                	add	a2,sp,8
   1772e:	2f5010ef          	jal	19222 <_fstat_r>
   17732:	02054763          	bltz	a0,17760 <__swhatbuf_r+0x4c>
   17736:	4732                	lw	a4,12(sp)
   17738:	67bd                	lui	a5,0xf
   1773a:	50b6                	lw	ra,108(sp)
   1773c:	8ff9                	and	a5,a5,a4
   1773e:	7779                	lui	a4,0xffffe
   17740:	97ba                	add	a5,a5,a4
   17742:	5426                	lw	s0,104(sp)
   17744:	0017b793          	seqz	a5,a5
   17748:	00f92023          	sw	a5,0(s2) # f000 <exit-0x1094>
   1774c:	40000713          	li	a4,1024
   17750:	c098                	sw	a4,0(s1)
   17752:	6505                	lui	a0,0x1
   17754:	5496                	lw	s1,100(sp)
   17756:	5906                	lw	s2,96(sp)
   17758:	80050513          	add	a0,a0,-2048 # 800 <exit-0xf894>
   1775c:	6165                	add	sp,sp,112
   1775e:	8082                	ret
   17760:	00c45783          	lhu	a5,12(s0)
   17764:	0807f793          	and	a5,a5,128
   17768:	cf91                	beqz	a5,17784 <__swhatbuf_r+0x70>
   1776a:	50b6                	lw	ra,108(sp)
   1776c:	5426                	lw	s0,104(sp)
   1776e:	4781                	li	a5,0
   17770:	00f92023          	sw	a5,0(s2)
   17774:	04000713          	li	a4,64
   17778:	c098                	sw	a4,0(s1)
   1777a:	5906                	lw	s2,96(sp)
   1777c:	5496                	lw	s1,100(sp)
   1777e:	4501                	li	a0,0
   17780:	6165                	add	sp,sp,112
   17782:	8082                	ret
   17784:	50b6                	lw	ra,108(sp)
   17786:	5426                	lw	s0,104(sp)
   17788:	00f92023          	sw	a5,0(s2)
   1778c:	40000713          	li	a4,1024
   17790:	c098                	sw	a4,0(s1)
   17792:	5906                	lw	s2,96(sp)
   17794:	5496                	lw	s1,100(sp)
   17796:	4501                	li	a0,0
   17798:	6165                	add	sp,sp,112
   1779a:	8082                	ret

0001779c <__malloc_lock>:
   1779c:	f5c18513          	add	a0,gp,-164 # 1d76c <__lock___malloc_recursive_mutex>
   177a0:	b03fd06f          	j	152a2 <__retarget_lock_acquire_recursive>

000177a4 <__malloc_unlock>:
   177a4:	f5c18513          	add	a0,gp,-164 # 1d76c <__lock___malloc_recursive_mutex>
   177a8:	b07fd06f          	j	152ae <__retarget_lock_release_recursive>

000177ac <_Balloc>:
   177ac:	417c                	lw	a5,68(a0)
   177ae:	1141                	add	sp,sp,-16
   177b0:	c422                	sw	s0,8(sp)
   177b2:	c226                	sw	s1,4(sp)
   177b4:	c606                	sw	ra,12(sp)
   177b6:	842a                	mv	s0,a0
   177b8:	84ae                	mv	s1,a1
   177ba:	c38d                	beqz	a5,177dc <_Balloc+0x30>
   177bc:	00249713          	sll	a4,s1,0x2
   177c0:	97ba                	add	a5,a5,a4
   177c2:	4388                	lw	a0,0(a5)
   177c4:	c515                	beqz	a0,177f0 <_Balloc+0x44>
   177c6:	4118                	lw	a4,0(a0)
   177c8:	c398                	sw	a4,0(a5)
   177ca:	00052823          	sw	zero,16(a0)
   177ce:	00052623          	sw	zero,12(a0)
   177d2:	40b2                	lw	ra,12(sp)
   177d4:	4422                	lw	s0,8(sp)
   177d6:	4492                	lw	s1,4(sp)
   177d8:	0141                	add	sp,sp,16
   177da:	8082                	ret
   177dc:	02100613          	li	a2,33
   177e0:	4591                	li	a1,4
   177e2:	517010ef          	jal	194f8 <_calloc_r>
   177e6:	c068                	sw	a0,68(s0)
   177e8:	87aa                	mv	a5,a0
   177ea:	f969                	bnez	a0,177bc <_Balloc+0x10>
   177ec:	4501                	li	a0,0
   177ee:	b7d5                	j	177d2 <_Balloc+0x26>
   177f0:	c04a                	sw	s2,0(sp)
   177f2:	4905                	li	s2,1
   177f4:	00991933          	sll	s2,s2,s1
   177f8:	00590613          	add	a2,s2,5
   177fc:	060a                	sll	a2,a2,0x2
   177fe:	4585                	li	a1,1
   17800:	8522                	mv	a0,s0
   17802:	4f7010ef          	jal	194f8 <_calloc_r>
   17806:	c511                	beqz	a0,17812 <_Balloc+0x66>
   17808:	01252423          	sw	s2,8(a0)
   1780c:	c144                	sw	s1,4(a0)
   1780e:	4902                	lw	s2,0(sp)
   17810:	bf6d                	j	177ca <_Balloc+0x1e>
   17812:	4902                	lw	s2,0(sp)
   17814:	4501                	li	a0,0
   17816:	bf75                	j	177d2 <_Balloc+0x26>

00017818 <_Bfree>:
   17818:	c981                	beqz	a1,17828 <_Bfree+0x10>
   1781a:	41d8                	lw	a4,4(a1)
   1781c:	417c                	lw	a5,68(a0)
   1781e:	070a                	sll	a4,a4,0x2
   17820:	97ba                	add	a5,a5,a4
   17822:	4398                	lw	a4,0(a5)
   17824:	c198                	sw	a4,0(a1)
   17826:	c38c                	sw	a1,0(a5)
   17828:	8082                	ret

0001782a <__multadd>:
   1782a:	1101                	add	sp,sp,-32
   1782c:	ca26                	sw	s1,20(sp)
   1782e:	4984                	lw	s1,16(a1)
   17830:	6341                	lui	t1,0x10
   17832:	cc22                	sw	s0,24(sp)
   17834:	c84a                	sw	s2,16(sp)
   17836:	c64e                	sw	s3,12(sp)
   17838:	ce06                	sw	ra,28(sp)
   1783a:	892e                	mv	s2,a1
   1783c:	89aa                	mv	s3,a0
   1783e:	8436                	mv	s0,a3
   17840:	01458813          	add	a6,a1,20
   17844:	4881                	li	a7,0
   17846:	137d                	add	t1,t1,-1 # ffff <exit-0x95>
   17848:	00082783          	lw	a5,0(a6)
   1784c:	0811                	add	a6,a6,4
   1784e:	0885                	add	a7,a7,1
   17850:	0067f733          	and	a4,a5,t1
   17854:	02c70733          	mul	a4,a4,a2
   17858:	0107d693          	srl	a3,a5,0x10
   1785c:	02c686b3          	mul	a3,a3,a2
   17860:	008707b3          	add	a5,a4,s0
   17864:	0107d713          	srl	a4,a5,0x10
   17868:	0067f7b3          	and	a5,a5,t1
   1786c:	96ba                	add	a3,a3,a4
   1786e:	01069713          	sll	a4,a3,0x10
   17872:	97ba                	add	a5,a5,a4
   17874:	fef82e23          	sw	a5,-4(a6)
   17878:	0106d413          	srl	s0,a3,0x10
   1787c:	fc98c6e3          	blt	a7,s1,17848 <__multadd+0x1e>
   17880:	cc09                	beqz	s0,1789a <__multadd+0x70>
   17882:	00892783          	lw	a5,8(s2)
   17886:	02f4d263          	bge	s1,a5,178aa <__multadd+0x80>
   1788a:	00448793          	add	a5,s1,4
   1788e:	078a                	sll	a5,a5,0x2
   17890:	97ca                	add	a5,a5,s2
   17892:	c3c0                	sw	s0,4(a5)
   17894:	0485                	add	s1,s1,1
   17896:	00992823          	sw	s1,16(s2)
   1789a:	40f2                	lw	ra,28(sp)
   1789c:	4462                	lw	s0,24(sp)
   1789e:	44d2                	lw	s1,20(sp)
   178a0:	49b2                	lw	s3,12(sp)
   178a2:	854a                	mv	a0,s2
   178a4:	4942                	lw	s2,16(sp)
   178a6:	6105                	add	sp,sp,32
   178a8:	8082                	ret
   178aa:	00492583          	lw	a1,4(s2)
   178ae:	854e                	mv	a0,s3
   178b0:	c452                	sw	s4,8(sp)
   178b2:	0585                	add	a1,a1,1
   178b4:	ef9ff0ef          	jal	177ac <_Balloc>
   178b8:	8a2a                	mv	s4,a0
   178ba:	c121                	beqz	a0,178fa <__multadd+0xd0>
   178bc:	01092603          	lw	a2,16(s2)
   178c0:	00c90593          	add	a1,s2,12
   178c4:	0531                	add	a0,a0,12
   178c6:	0609                	add	a2,a2,2
   178c8:	060a                	sll	a2,a2,0x2
   178ca:	decfd0ef          	jal	14eb6 <memcpy>
   178ce:	00492703          	lw	a4,4(s2)
   178d2:	0449a783          	lw	a5,68(s3)
   178d6:	070a                	sll	a4,a4,0x2
   178d8:	97ba                	add	a5,a5,a4
   178da:	4398                	lw	a4,0(a5)
   178dc:	00e92023          	sw	a4,0(s2)
   178e0:	0127a023          	sw	s2,0(a5) # f000 <exit-0x1094>
   178e4:	00448793          	add	a5,s1,4
   178e8:	8952                	mv	s2,s4
   178ea:	078a                	sll	a5,a5,0x2
   178ec:	97ca                	add	a5,a5,s2
   178ee:	4a22                	lw	s4,8(sp)
   178f0:	0485                	add	s1,s1,1
   178f2:	c3c0                	sw	s0,4(a5)
   178f4:	00992823          	sw	s1,16(s2)
   178f8:	b74d                	j	1789a <__multadd+0x70>
   178fa:	00004697          	auipc	a3,0x4
   178fe:	3ea68693          	add	a3,a3,1002 # 1bce4 <__clzsi2+0x204>
   17902:	4601                	li	a2,0
   17904:	0ba00593          	li	a1,186
   17908:	00004517          	auipc	a0,0x4
   1790c:	4a050513          	add	a0,a0,1184 # 1bda8 <__clzsi2+0x2c8>
   17910:	3a1010ef          	jal	194b0 <__assert_func>

00017914 <__s2b>:
   17914:	1101                	add	sp,sp,-32
   17916:	cc22                	sw	s0,24(sp)
   17918:	ca26                	sw	s1,20(sp)
   1791a:	c84a                	sw	s2,16(sp)
   1791c:	c64e                	sw	s3,12(sp)
   1791e:	c452                	sw	s4,8(sp)
   17920:	89b6                	mv	s3,a3
   17922:	47a5                	li	a5,9
   17924:	06a1                	add	a3,a3,8
   17926:	ce06                	sw	ra,28(sp)
   17928:	02f6c6b3          	div	a3,a3,a5
   1792c:	892a                	mv	s2,a0
   1792e:	842e                	mv	s0,a1
   17930:	8a32                	mv	s4,a2
   17932:	84ba                	mv	s1,a4
   17934:	0937d563          	bge	a5,s3,179be <__s2b+0xaa>
   17938:	4785                	li	a5,1
   1793a:	4581                	li	a1,0
   1793c:	0786                	sll	a5,a5,0x1
   1793e:	0585                	add	a1,a1,1
   17940:	fed7cee3          	blt	a5,a3,1793c <__s2b+0x28>
   17944:	854a                	mv	a0,s2
   17946:	e67ff0ef          	jal	177ac <_Balloc>
   1794a:	85aa                	mv	a1,a0
   1794c:	c93d                	beqz	a0,179c2 <__s2b+0xae>
   1794e:	4785                	li	a5,1
   17950:	c91c                	sw	a5,16(a0)
   17952:	c944                	sw	s1,20(a0)
   17954:	47a5                	li	a5,9
   17956:	0747d163          	bge	a5,s4,179b8 <__s2b+0xa4>
   1795a:	c256                	sw	s5,4(sp)
   1795c:	00940a93          	add	s5,s0,9
   17960:	84d6                	mv	s1,s5
   17962:	9452                	add	s0,s0,s4
   17964:	0004c683          	lbu	a3,0(s1)
   17968:	4629                	li	a2,10
   1796a:	854a                	mv	a0,s2
   1796c:	fd068693          	add	a3,a3,-48
   17970:	ebbff0ef          	jal	1782a <__multadd>
   17974:	0485                	add	s1,s1,1
   17976:	85aa                	mv	a1,a0
   17978:	fe8496e3          	bne	s1,s0,17964 <__s2b+0x50>
   1797c:	ff8a0413          	add	s0,s4,-8
   17980:	9456                	add	s0,s0,s5
   17982:	4a92                	lw	s5,4(sp)
   17984:	033a5163          	bge	s4,s3,179a6 <__s2b+0x92>
   17988:	414989b3          	sub	s3,s3,s4
   1798c:	99a2                	add	s3,s3,s0
   1798e:	00044683          	lbu	a3,0(s0)
   17992:	4629                	li	a2,10
   17994:	854a                	mv	a0,s2
   17996:	fd068693          	add	a3,a3,-48
   1799a:	e91ff0ef          	jal	1782a <__multadd>
   1799e:	0405                	add	s0,s0,1
   179a0:	85aa                	mv	a1,a0
   179a2:	ff3416e3          	bne	s0,s3,1798e <__s2b+0x7a>
   179a6:	40f2                	lw	ra,28(sp)
   179a8:	4462                	lw	s0,24(sp)
   179aa:	44d2                	lw	s1,20(sp)
   179ac:	4942                	lw	s2,16(sp)
   179ae:	49b2                	lw	s3,12(sp)
   179b0:	4a22                	lw	s4,8(sp)
   179b2:	852e                	mv	a0,a1
   179b4:	6105                	add	sp,sp,32
   179b6:	8082                	ret
   179b8:	0429                	add	s0,s0,10
   179ba:	4a25                	li	s4,9
   179bc:	b7e1                	j	17984 <__s2b+0x70>
   179be:	4581                	li	a1,0
   179c0:	b751                	j	17944 <__s2b+0x30>
   179c2:	00004697          	auipc	a3,0x4
   179c6:	32268693          	add	a3,a3,802 # 1bce4 <__clzsi2+0x204>
   179ca:	4601                	li	a2,0
   179cc:	0d300593          	li	a1,211
   179d0:	00004517          	auipc	a0,0x4
   179d4:	3d850513          	add	a0,a0,984 # 1bda8 <__clzsi2+0x2c8>
   179d8:	c256                	sw	s5,4(sp)
   179da:	2d7010ef          	jal	194b0 <__assert_func>

000179de <__hi0bits>:
   179de:	87aa                	mv	a5,a0
   179e0:	6741                	lui	a4,0x10
   179e2:	4501                	li	a0,0
   179e4:	00e7f463          	bgeu	a5,a4,179ec <__hi0bits+0xe>
   179e8:	07c2                	sll	a5,a5,0x10
   179ea:	4541                	li	a0,16
   179ec:	01000737          	lui	a4,0x1000
   179f0:	00e7f463          	bgeu	a5,a4,179f8 <__hi0bits+0x1a>
   179f4:	0521                	add	a0,a0,8
   179f6:	07a2                	sll	a5,a5,0x8
   179f8:	10000737          	lui	a4,0x10000
   179fc:	00e7f463          	bgeu	a5,a4,17a04 <__hi0bits+0x26>
   17a00:	0511                	add	a0,a0,4
   17a02:	0792                	sll	a5,a5,0x4
   17a04:	40000737          	lui	a4,0x40000
   17a08:	00e7e763          	bltu	a5,a4,17a16 <__hi0bits+0x38>
   17a0c:	fff7c793          	not	a5,a5
   17a10:	83fd                	srl	a5,a5,0x1f
   17a12:	953e                	add	a0,a0,a5
   17a14:	8082                	ret
   17a16:	078a                	sll	a5,a5,0x2
   17a18:	0007c963          	bltz	a5,17a2a <__hi0bits+0x4c>
   17a1c:	00179713          	sll	a4,a5,0x1
   17a20:	00074763          	bltz	a4,17a2e <__hi0bits+0x50>
   17a24:	02000513          	li	a0,32
   17a28:	8082                	ret
   17a2a:	0509                	add	a0,a0,2
   17a2c:	8082                	ret
   17a2e:	050d                	add	a0,a0,3
   17a30:	8082                	ret

00017a32 <__lo0bits>:
   17a32:	411c                	lw	a5,0(a0)
   17a34:	872a                	mv	a4,a0
   17a36:	0077f693          	and	a3,a5,7
   17a3a:	ce81                	beqz	a3,17a52 <__lo0bits+0x20>
   17a3c:	0017f693          	and	a3,a5,1
   17a40:	4501                	li	a0,0
   17a42:	ee95                	bnez	a3,17a7e <__lo0bits+0x4c>
   17a44:	0027f693          	and	a3,a5,2
   17a48:	c6b5                	beqz	a3,17ab4 <__lo0bits+0x82>
   17a4a:	8385                	srl	a5,a5,0x1
   17a4c:	c31c                	sw	a5,0(a4)
   17a4e:	4505                	li	a0,1
   17a50:	8082                	ret
   17a52:	01079693          	sll	a3,a5,0x10
   17a56:	82c1                	srl	a3,a3,0x10
   17a58:	4501                	li	a0,0
   17a5a:	c6b9                	beqz	a3,17aa8 <__lo0bits+0x76>
   17a5c:	0ff7f693          	zext.b	a3,a5
   17a60:	ce95                	beqz	a3,17a9c <__lo0bits+0x6a>
   17a62:	00f7f693          	and	a3,a5,15
   17a66:	c68d                	beqz	a3,17a90 <__lo0bits+0x5e>
   17a68:	0037f693          	and	a3,a5,3
   17a6c:	ce81                	beqz	a3,17a84 <__lo0bits+0x52>
   17a6e:	0017f693          	and	a3,a5,1
   17a72:	e699                	bnez	a3,17a80 <__lo0bits+0x4e>
   17a74:	8385                	srl	a5,a5,0x1
   17a76:	0505                	add	a0,a0,1
   17a78:	e781                	bnez	a5,17a80 <__lo0bits+0x4e>
   17a7a:	02000513          	li	a0,32
   17a7e:	8082                	ret
   17a80:	c31c                	sw	a5,0(a4)
   17a82:	8082                	ret
   17a84:	8389                	srl	a5,a5,0x2
   17a86:	0017f693          	and	a3,a5,1
   17a8a:	0509                	add	a0,a0,2
   17a8c:	faf5                	bnez	a3,17a80 <__lo0bits+0x4e>
   17a8e:	b7dd                	j	17a74 <__lo0bits+0x42>
   17a90:	8391                	srl	a5,a5,0x4
   17a92:	0037f693          	and	a3,a5,3
   17a96:	0511                	add	a0,a0,4
   17a98:	faf9                	bnez	a3,17a6e <__lo0bits+0x3c>
   17a9a:	b7ed                	j	17a84 <__lo0bits+0x52>
   17a9c:	83a1                	srl	a5,a5,0x8
   17a9e:	00f7f693          	and	a3,a5,15
   17aa2:	0521                	add	a0,a0,8
   17aa4:	f2f1                	bnez	a3,17a68 <__lo0bits+0x36>
   17aa6:	b7ed                	j	17a90 <__lo0bits+0x5e>
   17aa8:	83c1                	srl	a5,a5,0x10
   17aaa:	0ff7f693          	zext.b	a3,a5
   17aae:	4541                	li	a0,16
   17ab0:	facd                	bnez	a3,17a62 <__lo0bits+0x30>
   17ab2:	b7ed                	j	17a9c <__lo0bits+0x6a>
   17ab4:	8389                	srl	a5,a5,0x2
   17ab6:	c31c                	sw	a5,0(a4)
   17ab8:	4509                	li	a0,2
   17aba:	8082                	ret

00017abc <__i2b>:
   17abc:	417c                	lw	a5,68(a0)
   17abe:	1141                	add	sp,sp,-16
   17ac0:	c422                	sw	s0,8(sp)
   17ac2:	c226                	sw	s1,4(sp)
   17ac4:	c606                	sw	ra,12(sp)
   17ac6:	842a                	mv	s0,a0
   17ac8:	84ae                	mv	s1,a1
   17aca:	cf99                	beqz	a5,17ae8 <__i2b+0x2c>
   17acc:	43c8                	lw	a0,4(a5)
   17ace:	c131                	beqz	a0,17b12 <__i2b+0x56>
   17ad0:	4118                	lw	a4,0(a0)
   17ad2:	c3d8                	sw	a4,4(a5)
   17ad4:	40b2                	lw	ra,12(sp)
   17ad6:	4422                	lw	s0,8(sp)
   17ad8:	4785                	li	a5,1
   17ada:	c944                	sw	s1,20(a0)
   17adc:	00052623          	sw	zero,12(a0)
   17ae0:	c91c                	sw	a5,16(a0)
   17ae2:	4492                	lw	s1,4(sp)
   17ae4:	0141                	add	sp,sp,16
   17ae6:	8082                	ret
   17ae8:	02100613          	li	a2,33
   17aec:	4591                	li	a1,4
   17aee:	20b010ef          	jal	194f8 <_calloc_r>
   17af2:	c068                	sw	a0,68(s0)
   17af4:	87aa                	mv	a5,a0
   17af6:	f979                	bnez	a0,17acc <__i2b+0x10>
   17af8:	00004697          	auipc	a3,0x4
   17afc:	1ec68693          	add	a3,a3,492 # 1bce4 <__clzsi2+0x204>
   17b00:	4601                	li	a2,0
   17b02:	14500593          	li	a1,325
   17b06:	00004517          	auipc	a0,0x4
   17b0a:	2a250513          	add	a0,a0,674 # 1bda8 <__clzsi2+0x2c8>
   17b0e:	1a3010ef          	jal	194b0 <__assert_func>
   17b12:	4671                	li	a2,28
   17b14:	4585                	li	a1,1
   17b16:	8522                	mv	a0,s0
   17b18:	1e1010ef          	jal	194f8 <_calloc_r>
   17b1c:	dd71                	beqz	a0,17af8 <__i2b+0x3c>
   17b1e:	4785                	li	a5,1
   17b20:	c15c                	sw	a5,4(a0)
   17b22:	4789                	li	a5,2
   17b24:	c51c                	sw	a5,8(a0)
   17b26:	b77d                	j	17ad4 <__i2b+0x18>

00017b28 <__multiply>:
   17b28:	1101                	add	sp,sp,-32
   17b2a:	c84a                	sw	s2,16(sp)
   17b2c:	c64e                	sw	s3,12(sp)
   17b2e:	0105a903          	lw	s2,16(a1)
   17b32:	01062983          	lw	s3,16(a2)
   17b36:	ca26                	sw	s1,20(sp)
   17b38:	c452                	sw	s4,8(sp)
   17b3a:	ce06                	sw	ra,28(sp)
   17b3c:	cc22                	sw	s0,24(sp)
   17b3e:	8a2e                	mv	s4,a1
   17b40:	84b2                	mv	s1,a2
   17b42:	01394763          	blt	s2,s3,17b50 <__multiply+0x28>
   17b46:	874e                	mv	a4,s3
   17b48:	84ae                	mv	s1,a1
   17b4a:	89ca                	mv	s3,s2
   17b4c:	8a32                	mv	s4,a2
   17b4e:	893a                	mv	s2,a4
   17b50:	449c                	lw	a5,8(s1)
   17b52:	40cc                	lw	a1,4(s1)
   17b54:	01298433          	add	s0,s3,s2
   17b58:	0087a7b3          	slt	a5,a5,s0
   17b5c:	95be                	add	a1,a1,a5
   17b5e:	c4fff0ef          	jal	177ac <_Balloc>
   17b62:	14050363          	beqz	a0,17ca8 <__multiply+0x180>
   17b66:	01450313          	add	t1,a0,20
   17b6a:	00241893          	sll	a7,s0,0x2
   17b6e:	989a                	add	a7,a7,t1
   17b70:	879a                	mv	a5,t1
   17b72:	01137763          	bgeu	t1,a7,17b80 <__multiply+0x58>
   17b76:	0007a023          	sw	zero,0(a5)
   17b7a:	0791                	add	a5,a5,4
   17b7c:	ff17ede3          	bltu	a5,a7,17b76 <__multiply+0x4e>
   17b80:	014a0813          	add	a6,s4,20
   17b84:	00291e13          	sll	t3,s2,0x2
   17b88:	01448e93          	add	t4,s1,20
   17b8c:	00299593          	sll	a1,s3,0x2
   17b90:	9e42                	add	t3,t3,a6
   17b92:	95f6                	add	a1,a1,t4
   17b94:	0fc87163          	bgeu	a6,t3,17c76 <__multiply+0x14e>
   17b98:	01548793          	add	a5,s1,21
   17b9c:	4f11                	li	t5,4
   17b9e:	0ef5fe63          	bgeu	a1,a5,17c9a <__multiply+0x172>
   17ba2:	66c1                	lui	a3,0x10
   17ba4:	16fd                	add	a3,a3,-1 # ffff <exit-0x95>
   17ba6:	a809                	j	17bb8 <__multiply+0x90>
   17ba8:	010fdf93          	srl	t6,t6,0x10
   17bac:	060f9863          	bnez	t6,17c1c <__multiply+0xf4>
   17bb0:	0811                	add	a6,a6,4
   17bb2:	0311                	add	t1,t1,4
   17bb4:	0dc87163          	bgeu	a6,t3,17c76 <__multiply+0x14e>
   17bb8:	00082f83          	lw	t6,0(a6)
   17bbc:	00dff3b3          	and	t2,t6,a3
   17bc0:	fe0384e3          	beqz	t2,17ba8 <__multiply+0x80>
   17bc4:	829a                	mv	t0,t1
   17bc6:	8ff6                	mv	t6,t4
   17bc8:	4481                	li	s1,0
   17bca:	000fa783          	lw	a5,0(t6)
   17bce:	0002a603          	lw	a2,0(t0)
   17bd2:	0291                	add	t0,t0,4
   17bd4:	00d7f733          	and	a4,a5,a3
   17bd8:	02770733          	mul	a4,a4,t2
   17bdc:	83c1                	srl	a5,a5,0x10
   17bde:	00d67933          	and	s2,a2,a3
   17be2:	8241                	srl	a2,a2,0x10
   17be4:	0f91                	add	t6,t6,4
   17be6:	027787b3          	mul	a5,a5,t2
   17bea:	974a                	add	a4,a4,s2
   17bec:	9726                	add	a4,a4,s1
   17bee:	01075493          	srl	s1,a4,0x10
   17bf2:	8f75                	and	a4,a4,a3
   17bf4:	97b2                	add	a5,a5,a2
   17bf6:	97a6                	add	a5,a5,s1
   17bf8:	01079613          	sll	a2,a5,0x10
   17bfc:	8f51                	or	a4,a4,a2
   17bfe:	fee2ae23          	sw	a4,-4(t0)
   17c02:	0107d493          	srl	s1,a5,0x10
   17c06:	fcbfe2e3          	bltu	t6,a1,17bca <__multiply+0xa2>
   17c0a:	01e307b3          	add	a5,t1,t5
   17c0e:	c384                	sw	s1,0(a5)
   17c10:	00082f83          	lw	t6,0(a6)
   17c14:	010fdf93          	srl	t6,t6,0x10
   17c18:	f80f8ce3          	beqz	t6,17bb0 <__multiply+0x88>
   17c1c:	00032703          	lw	a4,0(t1)
   17c20:	829a                	mv	t0,t1
   17c22:	8676                	mv	a2,t4
   17c24:	84ba                	mv	s1,a4
   17c26:	4381                	li	t2,0
   17c28:	421c                	lw	a5,0(a2)
   17c2a:	0104d993          	srl	s3,s1,0x10
   17c2e:	8f75                	and	a4,a4,a3
   17c30:	8ff5                	and	a5,a5,a3
   17c32:	03f787b3          	mul	a5,a5,t6
   17c36:	0042a483          	lw	s1,4(t0)
   17c3a:	0291                	add	t0,t0,4
   17c3c:	0611                	add	a2,a2,4
   17c3e:	00d4f933          	and	s2,s1,a3
   17c42:	979e                	add	a5,a5,t2
   17c44:	97ce                	add	a5,a5,s3
   17c46:	01079393          	sll	t2,a5,0x10
   17c4a:	00e3e733          	or	a4,t2,a4
   17c4e:	fee2ae23          	sw	a4,-4(t0)
   17c52:	ffe65703          	lhu	a4,-2(a2)
   17c56:	83c1                	srl	a5,a5,0x10
   17c58:	03f70733          	mul	a4,a4,t6
   17c5c:	974a                	add	a4,a4,s2
   17c5e:	973e                	add	a4,a4,a5
   17c60:	01075393          	srl	t2,a4,0x10
   17c64:	fcb662e3          	bltu	a2,a1,17c28 <__multiply+0x100>
   17c68:	01e307b3          	add	a5,t1,t5
   17c6c:	c398                	sw	a4,0(a5)
   17c6e:	0811                	add	a6,a6,4
   17c70:	0311                	add	t1,t1,4
   17c72:	f5c863e3          	bltu	a6,t3,17bb8 <__multiply+0x90>
   17c76:	00804563          	bgtz	s0,17c80 <__multiply+0x158>
   17c7a:	a039                	j	17c88 <__multiply+0x160>
   17c7c:	147d                	add	s0,s0,-1
   17c7e:	c409                	beqz	s0,17c88 <__multiply+0x160>
   17c80:	ffc8a783          	lw	a5,-4(a7)
   17c84:	18f1                	add	a7,a7,-4
   17c86:	dbfd                	beqz	a5,17c7c <__multiply+0x154>
   17c88:	40f2                	lw	ra,28(sp)
   17c8a:	c900                	sw	s0,16(a0)
   17c8c:	4462                	lw	s0,24(sp)
   17c8e:	44d2                	lw	s1,20(sp)
   17c90:	4942                	lw	s2,16(sp)
   17c92:	49b2                	lw	s3,12(sp)
   17c94:	4a22                	lw	s4,8(sp)
   17c96:	6105                	add	sp,sp,32
   17c98:	8082                	ret
   17c9a:	409587b3          	sub	a5,a1,s1
   17c9e:	17ad                	add	a5,a5,-21
   17ca0:	9bf1                	and	a5,a5,-4
   17ca2:	00478f13          	add	t5,a5,4
   17ca6:	bdf5                	j	17ba2 <__multiply+0x7a>
   17ca8:	00004697          	auipc	a3,0x4
   17cac:	03c68693          	add	a3,a3,60 # 1bce4 <__clzsi2+0x204>
   17cb0:	4601                	li	a2,0
   17cb2:	16200593          	li	a1,354
   17cb6:	00004517          	auipc	a0,0x4
   17cba:	0f250513          	add	a0,a0,242 # 1bda8 <__clzsi2+0x2c8>
   17cbe:	7f2010ef          	jal	194b0 <__assert_func>

00017cc2 <__pow5mult>:
   17cc2:	1101                	add	sp,sp,-32
   17cc4:	cc22                	sw	s0,24(sp)
   17cc6:	c84a                	sw	s2,16(sp)
   17cc8:	c64e                	sw	s3,12(sp)
   17cca:	ce06                	sw	ra,28(sp)
   17ccc:	00367793          	and	a5,a2,3
   17cd0:	8432                	mv	s0,a2
   17cd2:	89aa                	mv	s3,a0
   17cd4:	892e                	mv	s2,a1
   17cd6:	ebad                	bnez	a5,17d48 <__pow5mult+0x86>
   17cd8:	8409                	sra	s0,s0,0x2
   17cda:	c431                	beqz	s0,17d26 <__pow5mult+0x64>
   17cdc:	ca26                	sw	s1,20(sp)
   17cde:	0409a483          	lw	s1,64(s3)
   17ce2:	c0c1                	beqz	s1,17d62 <__pow5mult+0xa0>
   17ce4:	00147793          	and	a5,s0,1
   17ce8:	eb89                	bnez	a5,17cfa <__pow5mult+0x38>
   17cea:	8405                	sra	s0,s0,0x1
   17cec:	cc05                	beqz	s0,17d24 <__pow5mult+0x62>
   17cee:	4088                	lw	a0,0(s1)
   17cf0:	c131                	beqz	a0,17d34 <__pow5mult+0x72>
   17cf2:	84aa                	mv	s1,a0
   17cf4:	00147793          	and	a5,s0,1
   17cf8:	dbed                	beqz	a5,17cea <__pow5mult+0x28>
   17cfa:	8626                	mv	a2,s1
   17cfc:	85ca                	mv	a1,s2
   17cfe:	854e                	mv	a0,s3
   17d00:	e29ff0ef          	jal	17b28 <__multiply>
   17d04:	00090d63          	beqz	s2,17d1e <__pow5mult+0x5c>
   17d08:	00492703          	lw	a4,4(s2)
   17d0c:	0449a783          	lw	a5,68(s3)
   17d10:	070a                	sll	a4,a4,0x2
   17d12:	97ba                	add	a5,a5,a4
   17d14:	4398                	lw	a4,0(a5)
   17d16:	00e92023          	sw	a4,0(s2)
   17d1a:	0127a023          	sw	s2,0(a5)
   17d1e:	8405                	sra	s0,s0,0x1
   17d20:	892a                	mv	s2,a0
   17d22:	f471                	bnez	s0,17cee <__pow5mult+0x2c>
   17d24:	44d2                	lw	s1,20(sp)
   17d26:	40f2                	lw	ra,28(sp)
   17d28:	4462                	lw	s0,24(sp)
   17d2a:	49b2                	lw	s3,12(sp)
   17d2c:	854a                	mv	a0,s2
   17d2e:	4942                	lw	s2,16(sp)
   17d30:	6105                	add	sp,sp,32
   17d32:	8082                	ret
   17d34:	8626                	mv	a2,s1
   17d36:	85a6                	mv	a1,s1
   17d38:	854e                	mv	a0,s3
   17d3a:	defff0ef          	jal	17b28 <__multiply>
   17d3e:	c088                	sw	a0,0(s1)
   17d40:	00052023          	sw	zero,0(a0)
   17d44:	84aa                	mv	s1,a0
   17d46:	b77d                	j	17cf4 <__pow5mult+0x32>
   17d48:	17fd                	add	a5,a5,-1
   17d4a:	00005717          	auipc	a4,0x5
   17d4e:	9c670713          	add	a4,a4,-1594 # 1c710 <p05.0>
   17d52:	078a                	sll	a5,a5,0x2
   17d54:	97ba                	add	a5,a5,a4
   17d56:	4390                	lw	a2,0(a5)
   17d58:	4681                	li	a3,0
   17d5a:	ad1ff0ef          	jal	1782a <__multadd>
   17d5e:	892a                	mv	s2,a0
   17d60:	bfa5                	j	17cd8 <__pow5mult+0x16>
   17d62:	4585                	li	a1,1
   17d64:	854e                	mv	a0,s3
   17d66:	a47ff0ef          	jal	177ac <_Balloc>
   17d6a:	84aa                	mv	s1,a0
   17d6c:	c919                	beqz	a0,17d82 <__pow5mult+0xc0>
   17d6e:	27100793          	li	a5,625
   17d72:	c95c                	sw	a5,20(a0)
   17d74:	4785                	li	a5,1
   17d76:	c91c                	sw	a5,16(a0)
   17d78:	04a9a023          	sw	a0,64(s3)
   17d7c:	00052023          	sw	zero,0(a0)
   17d80:	b795                	j	17ce4 <__pow5mult+0x22>
   17d82:	00004697          	auipc	a3,0x4
   17d86:	f6268693          	add	a3,a3,-158 # 1bce4 <__clzsi2+0x204>
   17d8a:	4601                	li	a2,0
   17d8c:	14500593          	li	a1,325
   17d90:	00004517          	auipc	a0,0x4
   17d94:	01850513          	add	a0,a0,24 # 1bda8 <__clzsi2+0x2c8>
   17d98:	718010ef          	jal	194b0 <__assert_func>

00017d9c <__lshift>:
   17d9c:	1101                	add	sp,sp,-32
   17d9e:	c256                	sw	s5,4(sp)
   17da0:	0105aa83          	lw	s5,16(a1)
   17da4:	459c                	lw	a5,8(a1)
   17da6:	c64e                	sw	s3,12(sp)
   17da8:	40565993          	sra	s3,a2,0x5
   17dac:	9ace                	add	s5,s5,s3
   17dae:	cc22                	sw	s0,24(sp)
   17db0:	ca26                	sw	s1,20(sp)
   17db2:	c84a                	sw	s2,16(sp)
   17db4:	c452                	sw	s4,8(sp)
   17db6:	ce06                	sw	ra,28(sp)
   17db8:	001a8913          	add	s2,s5,1
   17dbc:	84ae                	mv	s1,a1
   17dbe:	8432                	mv	s0,a2
   17dc0:	41cc                	lw	a1,4(a1)
   17dc2:	8a2a                	mv	s4,a0
   17dc4:	0127d663          	bge	a5,s2,17dd0 <__lshift+0x34>
   17dc8:	0786                	sll	a5,a5,0x1
   17dca:	0585                	add	a1,a1,1
   17dcc:	ff27cee3          	blt	a5,s2,17dc8 <__lshift+0x2c>
   17dd0:	8552                	mv	a0,s4
   17dd2:	9dbff0ef          	jal	177ac <_Balloc>
   17dd6:	cd5d                	beqz	a0,17e94 <__lshift+0xf8>
   17dd8:	01450813          	add	a6,a0,20
   17ddc:	01305e63          	blez	s3,17df8 <__lshift+0x5c>
   17de0:	0995                	add	s3,s3,5
   17de2:	098a                	sll	s3,s3,0x2
   17de4:	01350733          	add	a4,a0,s3
   17de8:	87c2                	mv	a5,a6
   17dea:	0791                	add	a5,a5,4
   17dec:	fe07ae23          	sw	zero,-4(a5)
   17df0:	fee79de3          	bne	a5,a4,17dea <__lshift+0x4e>
   17df4:	19b1                	add	s3,s3,-20
   17df6:	984e                	add	a6,a6,s3
   17df8:	0104a883          	lw	a7,16(s1)
   17dfc:	01448793          	add	a5,s1,20
   17e00:	01f47613          	and	a2,s0,31
   17e04:	088a                	sll	a7,a7,0x2
   17e06:	98be                	add	a7,a7,a5
   17e08:	c63d                	beqz	a2,17e76 <__lshift+0xda>
   17e0a:	02000593          	li	a1,32
   17e0e:	8d91                	sub	a1,a1,a2
   17e10:	8342                	mv	t1,a6
   17e12:	4681                	li	a3,0
   17e14:	4398                	lw	a4,0(a5)
   17e16:	0311                	add	t1,t1,4
   17e18:	0791                	add	a5,a5,4
   17e1a:	00c71733          	sll	a4,a4,a2
   17e1e:	8f55                	or	a4,a4,a3
   17e20:	fee32e23          	sw	a4,-4(t1)
   17e24:	ffc7a683          	lw	a3,-4(a5)
   17e28:	00b6d6b3          	srl	a3,a3,a1
   17e2c:	ff17e4e3          	bltu	a5,a7,17e14 <__lshift+0x78>
   17e30:	01548793          	add	a5,s1,21
   17e34:	4711                	li	a4,4
   17e36:	00f8e863          	bltu	a7,a5,17e46 <__lshift+0xaa>
   17e3a:	409887b3          	sub	a5,a7,s1
   17e3e:	17ad                	add	a5,a5,-21
   17e40:	9bf1                	and	a5,a5,-4
   17e42:	00478713          	add	a4,a5,4
   17e46:	983a                	add	a6,a6,a4
   17e48:	00d82023          	sw	a3,0(a6)
   17e4c:	e291                	bnez	a3,17e50 <__lshift+0xb4>
   17e4e:	8956                	mv	s2,s5
   17e50:	40d8                	lw	a4,4(s1)
   17e52:	044a2783          	lw	a5,68(s4)
   17e56:	40f2                	lw	ra,28(sp)
   17e58:	070a                	sll	a4,a4,0x2
   17e5a:	97ba                	add	a5,a5,a4
   17e5c:	4398                	lw	a4,0(a5)
   17e5e:	01252823          	sw	s2,16(a0)
   17e62:	4462                	lw	s0,24(sp)
   17e64:	c098                	sw	a4,0(s1)
   17e66:	c384                	sw	s1,0(a5)
   17e68:	4942                	lw	s2,16(sp)
   17e6a:	44d2                	lw	s1,20(sp)
   17e6c:	49b2                	lw	s3,12(sp)
   17e6e:	4a22                	lw	s4,8(sp)
   17e70:	4a92                	lw	s5,4(sp)
   17e72:	6105                	add	sp,sp,32
   17e74:	8082                	ret
   17e76:	4398                	lw	a4,0(a5)
   17e78:	0791                	add	a5,a5,4
   17e7a:	0811                	add	a6,a6,4
   17e7c:	fee82e23          	sw	a4,-4(a6)
   17e80:	fd17f7e3          	bgeu	a5,a7,17e4e <__lshift+0xb2>
   17e84:	4398                	lw	a4,0(a5)
   17e86:	0791                	add	a5,a5,4
   17e88:	0811                	add	a6,a6,4
   17e8a:	fee82e23          	sw	a4,-4(a6)
   17e8e:	ff17e4e3          	bltu	a5,a7,17e76 <__lshift+0xda>
   17e92:	bf75                	j	17e4e <__lshift+0xb2>
   17e94:	00004697          	auipc	a3,0x4
   17e98:	e5068693          	add	a3,a3,-432 # 1bce4 <__clzsi2+0x204>
   17e9c:	4601                	li	a2,0
   17e9e:	1de00593          	li	a1,478
   17ea2:	00004517          	auipc	a0,0x4
   17ea6:	f0650513          	add	a0,a0,-250 # 1bda8 <__clzsi2+0x2c8>
   17eaa:	606010ef          	jal	194b0 <__assert_func>

00017eae <__mcmp>:
   17eae:	4918                	lw	a4,16(a0)
   17eb0:	499c                	lw	a5,16(a1)
   17eb2:	882a                	mv	a6,a0
   17eb4:	40f70533          	sub	a0,a4,a5
   17eb8:	02f71863          	bne	a4,a5,17ee8 <__mcmp+0x3a>
   17ebc:	078a                	sll	a5,a5,0x2
   17ebe:	0851                	add	a6,a6,20
   17ec0:	05d1                	add	a1,a1,20
   17ec2:	00f80733          	add	a4,a6,a5
   17ec6:	97ae                	add	a5,a5,a1
   17ec8:	a019                	j	17ece <__mcmp+0x20>
   17eca:	00e87f63          	bgeu	a6,a4,17ee8 <__mcmp+0x3a>
   17ece:	ffc72603          	lw	a2,-4(a4)
   17ed2:	ffc7a683          	lw	a3,-4(a5)
   17ed6:	1771                	add	a4,a4,-4
   17ed8:	17f1                	add	a5,a5,-4
   17eda:	fed608e3          	beq	a2,a3,17eca <__mcmp+0x1c>
   17ede:	4505                	li	a0,1
   17ee0:	00d67463          	bgeu	a2,a3,17ee8 <__mcmp+0x3a>
   17ee4:	557d                	li	a0,-1
   17ee6:	8082                	ret
   17ee8:	8082                	ret

00017eea <__mdiff>:
   17eea:	4998                	lw	a4,16(a1)
   17eec:	4a1c                	lw	a5,16(a2)
   17eee:	1141                	add	sp,sp,-16
   17ef0:	c422                	sw	s0,8(sp)
   17ef2:	c226                	sw	s1,4(sp)
   17ef4:	c606                	sw	ra,12(sp)
   17ef6:	c04a                	sw	s2,0(sp)
   17ef8:	842e                	mv	s0,a1
   17efa:	84b2                	mv	s1,a2
   17efc:	40f706b3          	sub	a3,a4,a5
   17f00:	12f71863          	bne	a4,a5,18030 <__mdiff+0x146>
   17f04:	00279693          	sll	a3,a5,0x2
   17f08:	01458613          	add	a2,a1,20
   17f0c:	01448713          	add	a4,s1,20
   17f10:	00d607b3          	add	a5,a2,a3
   17f14:	9736                	add	a4,a4,a3
   17f16:	a019                	j	17f1c <__mdiff+0x32>
   17f18:	12f67463          	bgeu	a2,a5,18040 <__mdiff+0x156>
   17f1c:	ffc7a583          	lw	a1,-4(a5)
   17f20:	ffc72683          	lw	a3,-4(a4)
   17f24:	17f1                	add	a5,a5,-4
   17f26:	1771                	add	a4,a4,-4
   17f28:	fed588e3          	beq	a1,a3,17f18 <__mdiff+0x2e>
   17f2c:	4905                	li	s2,1
   17f2e:	00d5e663          	bltu	a1,a3,17f3a <__mdiff+0x50>
   17f32:	87a6                	mv	a5,s1
   17f34:	4901                	li	s2,0
   17f36:	84a2                	mv	s1,s0
   17f38:	843e                	mv	s0,a5
   17f3a:	40cc                	lw	a1,4(s1)
   17f3c:	871ff0ef          	jal	177ac <_Balloc>
   17f40:	12050763          	beqz	a0,1806e <__mdiff+0x184>
   17f44:	0104a883          	lw	a7,16(s1)
   17f48:	01042283          	lw	t0,16(s0)
   17f4c:	01448f93          	add	t6,s1,20
   17f50:	00289313          	sll	t1,a7,0x2
   17f54:	01440813          	add	a6,s0,20
   17f58:	028a                	sll	t0,t0,0x2
   17f5a:	01450593          	add	a1,a0,20
   17f5e:	6e41                	lui	t3,0x10
   17f60:	01252623          	sw	s2,12(a0)
   17f64:	937e                	add	t1,t1,t6
   17f66:	92c2                	add	t0,t0,a6
   17f68:	8f2e                	mv	t5,a1
   17f6a:	8efe                	mv	t4,t6
   17f6c:	4681                	li	a3,0
   17f6e:	1e7d                	add	t3,t3,-1 # ffff <exit-0x95>
   17f70:	000ea703          	lw	a4,0(t4)
   17f74:	00082603          	lw	a2,0(a6)
   17f78:	0f11                	add	t5,t5,4
   17f7a:	01c777b3          	and	a5,a4,t3
   17f7e:	01c673b3          	and	t2,a2,t3
   17f82:	407787b3          	sub	a5,a5,t2
   17f86:	97b6                	add	a5,a5,a3
   17f88:	8341                	srl	a4,a4,0x10
   17f8a:	8241                	srl	a2,a2,0x10
   17f8c:	4107d693          	sra	a3,a5,0x10
   17f90:	8f11                	sub	a4,a4,a2
   17f92:	9736                	add	a4,a4,a3
   17f94:	01071693          	sll	a3,a4,0x10
   17f98:	01c7f7b3          	and	a5,a5,t3
   17f9c:	8fd5                	or	a5,a5,a3
   17f9e:	0811                	add	a6,a6,4
   17fa0:	feff2e23          	sw	a5,-4(t5)
   17fa4:	0e91                	add	t4,t4,4
   17fa6:	41075693          	sra	a3,a4,0x10
   17faa:	fc5863e3          	bltu	a6,t0,17f70 <__mdiff+0x86>
   17fae:	01540713          	add	a4,s0,21
   17fb2:	40828433          	sub	s0,t0,s0
   17fb6:	142d                	add	s0,s0,-21
   17fb8:	00e2b2b3          	sltu	t0,t0,a4
   17fbc:	0012cf13          	xor	t5,t0,1
   17fc0:	8009                	srl	s0,s0,0x2
   17fc2:	4711                	li	a4,4
   17fc4:	06028a63          	beqz	t0,18038 <__mdiff+0x14e>
   17fc8:	9fba                	add	t6,t6,a4
   17fca:	00e58833          	add	a6,a1,a4
   17fce:	6ec1                	lui	t4,0x10
   17fd0:	8e42                	mv	t3,a6
   17fd2:	867e                	mv	a2,t6
   17fd4:	1efd                	add	t4,t4,-1 # ffff <exit-0x95>
   17fd6:	086ff363          	bgeu	t6,t1,1805c <__mdiff+0x172>
   17fda:	421c                	lw	a5,0(a2)
   17fdc:	0e11                	add	t3,t3,4
   17fde:	0611                	add	a2,a2,4
   17fe0:	01d7f733          	and	a4,a5,t4
   17fe4:	9736                	add	a4,a4,a3
   17fe6:	0107d593          	srl	a1,a5,0x10
   17fea:	8741                	sra	a4,a4,0x10
   17fec:	972e                	add	a4,a4,a1
   17fee:	97b6                	add	a5,a5,a3
   17ff0:	01d7f7b3          	and	a5,a5,t4
   17ff4:	01071693          	sll	a3,a4,0x10
   17ff8:	8fd5                	or	a5,a5,a3
   17ffa:	fefe2e23          	sw	a5,-4(t3)
   17ffe:	41075693          	sra	a3,a4,0x10
   18002:	fc666ce3          	bltu	a2,t1,17fda <__mdiff+0xf0>
   18006:	137d                	add	t1,t1,-1
   18008:	41f30333          	sub	t1,t1,t6
   1800c:	ffc37313          	and	t1,t1,-4
   18010:	00680733          	add	a4,a6,t1
   18014:	e791                	bnez	a5,18020 <__mdiff+0x136>
   18016:	ffc72783          	lw	a5,-4(a4)
   1801a:	18fd                	add	a7,a7,-1
   1801c:	1771                	add	a4,a4,-4
   1801e:	dfe5                	beqz	a5,18016 <__mdiff+0x12c>
   18020:	40b2                	lw	ra,12(sp)
   18022:	4422                	lw	s0,8(sp)
   18024:	01152823          	sw	a7,16(a0)
   18028:	4492                	lw	s1,4(sp)
   1802a:	4902                	lw	s2,0(sp)
   1802c:	0141                	add	sp,sp,16
   1802e:	8082                	ret
   18030:	4905                	li	s2,1
   18032:	f006d0e3          	bgez	a3,17f32 <__mdiff+0x48>
   18036:	b711                	j	17f3a <__mdiff+0x50>
   18038:	00140713          	add	a4,s0,1
   1803c:	070a                	sll	a4,a4,0x2
   1803e:	b769                	j	17fc8 <__mdiff+0xde>
   18040:	4581                	li	a1,0
   18042:	f6aff0ef          	jal	177ac <_Balloc>
   18046:	c129                	beqz	a0,18088 <__mdiff+0x19e>
   18048:	40b2                	lw	ra,12(sp)
   1804a:	4422                	lw	s0,8(sp)
   1804c:	4785                	li	a5,1
   1804e:	c91c                	sw	a5,16(a0)
   18050:	00052a23          	sw	zero,20(a0)
   18054:	4492                	lw	s1,4(sp)
   18056:	4902                	lw	s2,0(sp)
   18058:	0141                	add	sp,sp,16
   1805a:	8082                	ret
   1805c:	4701                	li	a4,0
   1805e:	000f1463          	bnez	t5,18066 <__mdiff+0x17c>
   18062:	972e                	add	a4,a4,a1
   18064:	bf45                	j	18014 <__mdiff+0x12a>
   18066:	00241713          	sll	a4,s0,0x2
   1806a:	972e                	add	a4,a4,a1
   1806c:	b765                	j	18014 <__mdiff+0x12a>
   1806e:	00004697          	auipc	a3,0x4
   18072:	c7668693          	add	a3,a3,-906 # 1bce4 <__clzsi2+0x204>
   18076:	4601                	li	a2,0
   18078:	24500593          	li	a1,581
   1807c:	00004517          	auipc	a0,0x4
   18080:	d2c50513          	add	a0,a0,-724 # 1bda8 <__clzsi2+0x2c8>
   18084:	42c010ef          	jal	194b0 <__assert_func>
   18088:	00004697          	auipc	a3,0x4
   1808c:	c5c68693          	add	a3,a3,-932 # 1bce4 <__clzsi2+0x204>
   18090:	4601                	li	a2,0
   18092:	23700593          	li	a1,567
   18096:	00004517          	auipc	a0,0x4
   1809a:	d1250513          	add	a0,a0,-750 # 1bda8 <__clzsi2+0x2c8>
   1809e:	412010ef          	jal	194b0 <__assert_func>

000180a2 <__ulp>:
   180a2:	7ff007b7          	lui	a5,0x7ff00
   180a6:	8dfd                	and	a1,a1,a5
   180a8:	fcc007b7          	lui	a5,0xfcc00
   180ac:	95be                	add	a1,a1,a5
   180ae:	4781                	li	a5,0
   180b0:	00b05463          	blez	a1,180b8 <__ulp+0x16>
   180b4:	853e                	mv	a0,a5
   180b6:	8082                	ret
   180b8:	40b005b3          	neg	a1,a1
   180bc:	85d1                	sra	a1,a1,0x14
   180be:	47cd                	li	a5,19
   180c0:	00b7c963          	blt	a5,a1,180d2 <__ulp+0x30>
   180c4:	000807b7          	lui	a5,0x80
   180c8:	40b7d5b3          	sra	a1,a5,a1
   180cc:	4781                	li	a5,0
   180ce:	853e                	mv	a0,a5
   180d0:	8082                	ret
   180d2:	15b1                	add	a1,a1,-20
   180d4:	4779                	li	a4,30
   180d6:	4785                	li	a5,1
   180d8:	00b74663          	blt	a4,a1,180e4 <__ulp+0x42>
   180dc:	800007b7          	lui	a5,0x80000
   180e0:	00b7d7b3          	srl	a5,a5,a1
   180e4:	4581                	li	a1,0
   180e6:	853e                	mv	a0,a5
   180e8:	8082                	ret

000180ea <__b2d>:
   180ea:	1101                	add	sp,sp,-32
   180ec:	ca26                	sw	s1,20(sp)
   180ee:	4904                	lw	s1,16(a0)
   180f0:	cc22                	sw	s0,24(sp)
   180f2:	01450413          	add	s0,a0,20
   180f6:	048a                	sll	s1,s1,0x2
   180f8:	94a2                	add	s1,s1,s0
   180fa:	c84a                	sw	s2,16(sp)
   180fc:	ffc4a903          	lw	s2,-4(s1)
   18100:	c64e                	sw	s3,12(sp)
   18102:	c452                	sw	s4,8(sp)
   18104:	854a                	mv	a0,s2
   18106:	89ae                	mv	s3,a1
   18108:	ce06                	sw	ra,28(sp)
   1810a:	8d5ff0ef          	jal	179de <__hi0bits>
   1810e:	02000713          	li	a4,32
   18112:	40a707b3          	sub	a5,a4,a0
   18116:	00f9a023          	sw	a5,0(s3)
   1811a:	47a9                	li	a5,10
   1811c:	ffc48a13          	add	s4,s1,-4
   18120:	06a7db63          	bge	a5,a0,18196 <__b2d+0xac>
   18124:	ff550613          	add	a2,a0,-11
   18128:	03447d63          	bgeu	s0,s4,18162 <__b2d+0x78>
   1812c:	ff84a783          	lw	a5,-8(s1)
   18130:	c629                	beqz	a2,1817a <__b2d+0x90>
   18132:	40c706b3          	sub	a3,a4,a2
   18136:	00d7d733          	srl	a4,a5,a3
   1813a:	00c91933          	sll	s2,s2,a2
   1813e:	00e96933          	or	s2,s2,a4
   18142:	ff848593          	add	a1,s1,-8
   18146:	3ff00737          	lui	a4,0x3ff00
   1814a:	00e96733          	or	a4,s2,a4
   1814e:	00c797b3          	sll	a5,a5,a2
   18152:	02b47863          	bgeu	s0,a1,18182 <__b2d+0x98>
   18156:	ff44a603          	lw	a2,-12(s1)
   1815a:	00d656b3          	srl	a3,a2,a3
   1815e:	8fd5                	or	a5,a5,a3
   18160:	a00d                	j	18182 <__b2d+0x98>
   18162:	47ad                	li	a5,11
   18164:	00f50a63          	beq	a0,a5,18178 <__b2d+0x8e>
   18168:	00c91933          	sll	s2,s2,a2
   1816c:	3ff00737          	lui	a4,0x3ff00
   18170:	00e96733          	or	a4,s2,a4
   18174:	4781                	li	a5,0
   18176:	a031                	j	18182 <__b2d+0x98>
   18178:	4781                	li	a5,0
   1817a:	3ff00737          	lui	a4,0x3ff00
   1817e:	00e96733          	or	a4,s2,a4
   18182:	40f2                	lw	ra,28(sp)
   18184:	4462                	lw	s0,24(sp)
   18186:	44d2                	lw	s1,20(sp)
   18188:	4942                	lw	s2,16(sp)
   1818a:	49b2                	lw	s3,12(sp)
   1818c:	4a22                	lw	s4,8(sp)
   1818e:	853e                	mv	a0,a5
   18190:	85ba                	mv	a1,a4
   18192:	6105                	add	sp,sp,32
   18194:	8082                	ret
   18196:	46ad                	li	a3,11
   18198:	8e89                	sub	a3,a3,a0
   1819a:	3ff007b7          	lui	a5,0x3ff00
   1819e:	00d95733          	srl	a4,s2,a3
   181a2:	8f5d                	or	a4,a4,a5
   181a4:	4781                	li	a5,0
   181a6:	01447663          	bgeu	s0,s4,181b2 <__b2d+0xc8>
   181aa:	ff84a783          	lw	a5,-8(s1)
   181ae:	00d7d7b3          	srl	a5,a5,a3
   181b2:	0555                	add	a0,a0,21
   181b4:	00a91933          	sll	s2,s2,a0
   181b8:	00f967b3          	or	a5,s2,a5
   181bc:	b7d9                	j	18182 <__b2d+0x98>

000181be <__d2b>:
   181be:	7179                	add	sp,sp,-48
   181c0:	ca56                	sw	s5,20(sp)
   181c2:	8aae                	mv	s5,a1
   181c4:	4585                	li	a1,1
   181c6:	d226                	sw	s1,36(sp)
   181c8:	ce4e                	sw	s3,28(sp)
   181ca:	cc52                	sw	s4,24(sp)
   181cc:	d606                	sw	ra,44(sp)
   181ce:	d422                	sw	s0,40(sp)
   181d0:	d04a                	sw	s2,32(sp)
   181d2:	84b2                	mv	s1,a2
   181d4:	8a36                	mv	s4,a3
   181d6:	89ba                	mv	s3,a4
   181d8:	dd4ff0ef          	jal	177ac <_Balloc>
   181dc:	c955                	beqz	a0,18290 <__d2b+0xd2>
   181de:	00100737          	lui	a4,0x100
   181e2:	0144d913          	srl	s2,s1,0x14
   181e6:	fff70793          	add	a5,a4,-1 # fffff <__BSS_END__+0xe22b7>
   181ea:	7ff97913          	and	s2,s2,2047
   181ee:	842a                	mv	s0,a0
   181f0:	8fe5                	and	a5,a5,s1
   181f2:	00090363          	beqz	s2,181f8 <__d2b+0x3a>
   181f6:	8fd9                	or	a5,a5,a4
   181f8:	c63e                	sw	a5,12(sp)
   181fa:	040a9263          	bnez	s5,1823e <__d2b+0x80>
   181fe:	0068                	add	a0,sp,12
   18200:	833ff0ef          	jal	17a32 <__lo0bits>
   18204:	4732                	lw	a4,12(sp)
   18206:	4485                	li	s1,1
   18208:	c804                	sw	s1,16(s0)
   1820a:	c858                	sw	a4,20(s0)
   1820c:	02050793          	add	a5,a0,32
   18210:	06090063          	beqz	s2,18270 <__d2b+0xb2>
   18214:	bcd90913          	add	s2,s2,-1075
   18218:	993e                	add	s2,s2,a5
   1821a:	03500493          	li	s1,53
   1821e:	012a2023          	sw	s2,0(s4)
   18222:	40f48533          	sub	a0,s1,a5
   18226:	00a9a023          	sw	a0,0(s3)
   1822a:	50b2                	lw	ra,44(sp)
   1822c:	8522                	mv	a0,s0
   1822e:	5422                	lw	s0,40(sp)
   18230:	5492                	lw	s1,36(sp)
   18232:	5902                	lw	s2,32(sp)
   18234:	49f2                	lw	s3,28(sp)
   18236:	4a62                	lw	s4,24(sp)
   18238:	4ad2                	lw	s5,20(sp)
   1823a:	6145                	add	sp,sp,48
   1823c:	8082                	ret
   1823e:	0028                	add	a0,sp,8
   18240:	c456                	sw	s5,8(sp)
   18242:	ff0ff0ef          	jal	17a32 <__lo0bits>
   18246:	4732                	lw	a4,12(sp)
   18248:	87aa                	mv	a5,a0
   1824a:	c129                	beqz	a0,1828c <__d2b+0xce>
   1824c:	4622                	lw	a2,8(sp)
   1824e:	02000693          	li	a3,32
   18252:	8e89                	sub	a3,a3,a0
   18254:	00d716b3          	sll	a3,a4,a3
   18258:	00a75733          	srl	a4,a4,a0
   1825c:	8ed1                	or	a3,a3,a2
   1825e:	c63a                	sw	a4,12(sp)
   18260:	00e034b3          	snez	s1,a4
   18264:	0485                	add	s1,s1,1
   18266:	c854                	sw	a3,20(s0)
   18268:	cc18                	sw	a4,24(s0)
   1826a:	c804                	sw	s1,16(s0)
   1826c:	fa0914e3          	bnez	s2,18214 <__d2b+0x56>
   18270:	00249713          	sll	a4,s1,0x2
   18274:	9722                	add	a4,a4,s0
   18276:	4b08                	lw	a0,16(a4)
   18278:	bce78793          	add	a5,a5,-1074 # 3feffbce <__BSS_END__+0x3fee1e86>
   1827c:	00fa2023          	sw	a5,0(s4)
   18280:	f5eff0ef          	jal	179de <__hi0bits>
   18284:	0496                	sll	s1,s1,0x5
   18286:	40a48533          	sub	a0,s1,a0
   1828a:	bf71                	j	18226 <__d2b+0x68>
   1828c:	46a2                	lw	a3,8(sp)
   1828e:	bfc9                	j	18260 <__d2b+0xa2>
   18290:	00004697          	auipc	a3,0x4
   18294:	a5468693          	add	a3,a3,-1452 # 1bce4 <__clzsi2+0x204>
   18298:	4601                	li	a2,0
   1829a:	30f00593          	li	a1,783
   1829e:	00004517          	auipc	a0,0x4
   182a2:	b0a50513          	add	a0,a0,-1270 # 1bda8 <__clzsi2+0x2c8>
   182a6:	20a010ef          	jal	194b0 <__assert_func>

000182aa <__ratio>:
   182aa:	7179                	add	sp,sp,-48
   182ac:	d04a                	sw	s2,32(sp)
   182ae:	892e                	mv	s2,a1
   182b0:	002c                	add	a1,sp,8
   182b2:	d606                	sw	ra,44(sp)
   182b4:	d422                	sw	s0,40(sp)
   182b6:	d226                	sw	s1,36(sp)
   182b8:	ce4e                	sw	s3,28(sp)
   182ba:	89aa                	mv	s3,a0
   182bc:	e2fff0ef          	jal	180ea <__b2d>
   182c0:	84aa                	mv	s1,a0
   182c2:	842e                	mv	s0,a1
   182c4:	854a                	mv	a0,s2
   182c6:	006c                	add	a1,sp,12
   182c8:	e23ff0ef          	jal	180ea <__b2d>
   182cc:	01092703          	lw	a4,16(s2)
   182d0:	0109a783          	lw	a5,16(s3)
   182d4:	46b2                	lw	a3,12(sp)
   182d6:	8f99                	sub	a5,a5,a4
   182d8:	4722                	lw	a4,8(sp)
   182da:	0796                	sll	a5,a5,0x5
   182dc:	8f15                	sub	a4,a4,a3
   182de:	97ba                	add	a5,a5,a4
   182e0:	872a                	mv	a4,a0
   182e2:	02f05163          	blez	a5,18304 <__ratio+0x5a>
   182e6:	07d2                	sll	a5,a5,0x14
   182e8:	943e                	add	s0,s0,a5
   182ea:	86ae                	mv	a3,a1
   182ec:	8526                	mv	a0,s1
   182ee:	85a2                	mv	a1,s0
   182f0:	863a                	mv	a2,a4
   182f2:	7af010ef          	jal	1a2a0 <__divdf3>
   182f6:	50b2                	lw	ra,44(sp)
   182f8:	5422                	lw	s0,40(sp)
   182fa:	5492                	lw	s1,36(sp)
   182fc:	5902                	lw	s2,32(sp)
   182fe:	49f2                	lw	s3,28(sp)
   18300:	6145                	add	sp,sp,48
   18302:	8082                	ret
   18304:	07d2                	sll	a5,a5,0x14
   18306:	8d9d                	sub	a1,a1,a5
   18308:	b7cd                	j	182ea <__ratio+0x40>

0001830a <_mprec_log10>:
   1830a:	1141                	add	sp,sp,-16
   1830c:	c04a                	sw	s2,0(sp)
   1830e:	c606                	sw	ra,12(sp)
   18310:	47dd                	li	a5,23
   18312:	892a                	mv	s2,a0
   18314:	04a7d063          	bge	a5,a0,18354 <_mprec_log10+0x4a>
   18318:	00005717          	auipc	a4,0x5
   1831c:	40070713          	add	a4,a4,1024 # 1d718 <__SDATA_BEGIN__+0x48>
   18320:	431c                	lw	a5,0(a4)
   18322:	434c                	lw	a1,4(a4)
   18324:	00005717          	auipc	a4,0x5
   18328:	3fc70713          	add	a4,a4,1020 # 1d720 <__SDATA_BEGIN__+0x50>
   1832c:	c422                	sw	s0,8(sp)
   1832e:	c226                	sw	s1,4(sp)
   18330:	4300                	lw	s0,0(a4)
   18332:	4344                	lw	s1,4(a4)
   18334:	853e                	mv	a0,a5
   18336:	8622                	mv	a2,s0
   18338:	86a6                	mv	a3,s1
   1833a:	712020ef          	jal	1aa4c <__muldf3>
   1833e:	197d                	add	s2,s2,-1
   18340:	87aa                	mv	a5,a0
   18342:	fe0919e3          	bnez	s2,18334 <_mprec_log10+0x2a>
   18346:	4422                	lw	s0,8(sp)
   18348:	40b2                	lw	ra,12(sp)
   1834a:	4492                	lw	s1,4(sp)
   1834c:	4902                	lw	s2,0(sp)
   1834e:	853e                	mv	a0,a5
   18350:	0141                	add	sp,sp,16
   18352:	8082                	ret
   18354:	00351913          	sll	s2,a0,0x3
   18358:	00004717          	auipc	a4,0x4
   1835c:	41870713          	add	a4,a4,1048 # 1c770 <__mprec_tens>
   18360:	974a                	add	a4,a4,s2
   18362:	431c                	lw	a5,0(a4)
   18364:	40b2                	lw	ra,12(sp)
   18366:	434c                	lw	a1,4(a4)
   18368:	4902                	lw	s2,0(sp)
   1836a:	853e                	mv	a0,a5
   1836c:	0141                	add	sp,sp,16
   1836e:	8082                	ret

00018370 <__copybits>:
   18370:	4a14                	lw	a3,16(a2)
   18372:	15fd                	add	a1,a1,-1
   18374:	8595                	sra	a1,a1,0x5
   18376:	0585                	add	a1,a1,1
   18378:	01460793          	add	a5,a2,20
   1837c:	068a                	sll	a3,a3,0x2
   1837e:	058a                	sll	a1,a1,0x2
   18380:	96be                	add	a3,a3,a5
   18382:	95aa                	add	a1,a1,a0
   18384:	02d7f163          	bgeu	a5,a3,183a6 <__copybits+0x36>
   18388:	872a                	mv	a4,a0
   1838a:	0007a803          	lw	a6,0(a5)
   1838e:	0791                	add	a5,a5,4
   18390:	0711                	add	a4,a4,4
   18392:	ff072e23          	sw	a6,-4(a4)
   18396:	fed7eae3          	bltu	a5,a3,1838a <__copybits+0x1a>
   1839a:	40c687b3          	sub	a5,a3,a2
   1839e:	17ad                	add	a5,a5,-21
   183a0:	9bf1                	and	a5,a5,-4
   183a2:	0791                	add	a5,a5,4
   183a4:	953e                	add	a0,a0,a5
   183a6:	00b57763          	bgeu	a0,a1,183b4 <__copybits+0x44>
   183aa:	0511                	add	a0,a0,4
   183ac:	fe052e23          	sw	zero,-4(a0)
   183b0:	feb56de3          	bltu	a0,a1,183aa <__copybits+0x3a>
   183b4:	8082                	ret

000183b6 <__any_on>:
   183b6:	4918                	lw	a4,16(a0)
   183b8:	4055d613          	sra	a2,a1,0x5
   183bc:	01450693          	add	a3,a0,20
   183c0:	00c75d63          	bge	a4,a2,183da <__any_on+0x24>
   183c4:	070a                	sll	a4,a4,0x2
   183c6:	00e687b3          	add	a5,a3,a4
   183ca:	02f6f863          	bgeu	a3,a5,183fa <__any_on+0x44>
   183ce:	ffc7a703          	lw	a4,-4(a5)
   183d2:	17f1                	add	a5,a5,-4
   183d4:	db7d                	beqz	a4,183ca <__any_on+0x14>
   183d6:	4505                	li	a0,1
   183d8:	8082                	ret
   183da:	00261793          	sll	a5,a2,0x2
   183de:	97b6                	add	a5,a5,a3
   183e0:	fee655e3          	bge	a2,a4,183ca <__any_on+0x14>
   183e4:	89fd                	and	a1,a1,31
   183e6:	d1f5                	beqz	a1,183ca <__any_on+0x14>
   183e8:	4390                	lw	a2,0(a5)
   183ea:	4505                	li	a0,1
   183ec:	00b65733          	srl	a4,a2,a1
   183f0:	00b71733          	sll	a4,a4,a1
   183f4:	fce60be3          	beq	a2,a4,183ca <__any_on+0x14>
   183f8:	8082                	ret
   183fa:	4501                	li	a0,0
   183fc:	8082                	ret

000183fe <_fclose_r>:
   183fe:	1141                	add	sp,sp,-16
   18400:	c606                	sw	ra,12(sp)
   18402:	c04a                	sw	s2,0(sp)
   18404:	c9c9                	beqz	a1,18496 <_fclose_r+0x98>
   18406:	c422                	sw	s0,8(sp)
   18408:	c226                	sw	s1,4(sp)
   1840a:	842e                	mv	s0,a1
   1840c:	84aa                	mv	s1,a0
   1840e:	c119                	beqz	a0,18414 <_fclose_r+0x16>
   18410:	595c                	lw	a5,52(a0)
   18412:	c3dd                	beqz	a5,184b8 <_fclose_r+0xba>
   18414:	507c                	lw	a5,100(s0)
   18416:	00c41703          	lh	a4,12(s0)
   1841a:	8b85                	and	a5,a5,1
   1841c:	ebb5                	bnez	a5,18490 <_fclose_r+0x92>
   1841e:	20077713          	and	a4,a4,512
   18422:	cf51                	beqz	a4,184be <_fclose_r+0xc0>
   18424:	85a2                	mv	a1,s0
   18426:	8526                	mv	a0,s1
   18428:	998fb0ef          	jal	135c0 <__sflush_r>
   1842c:	545c                	lw	a5,44(s0)
   1842e:	892a                	mv	s2,a0
   18430:	c791                	beqz	a5,1843c <_fclose_r+0x3e>
   18432:	4c4c                	lw	a1,28(s0)
   18434:	8526                	mv	a0,s1
   18436:	9782                	jalr	a5
   18438:	06054563          	bltz	a0,184a2 <_fclose_r+0xa4>
   1843c:	00c45783          	lhu	a5,12(s0)
   18440:	0807f793          	and	a5,a5,128
   18444:	e7ad                	bnez	a5,184ae <_fclose_r+0xb0>
   18446:	580c                	lw	a1,48(s0)
   18448:	c991                	beqz	a1,1845c <_fclose_r+0x5e>
   1844a:	04040793          	add	a5,s0,64
   1844e:	00f58563          	beq	a1,a5,18458 <_fclose_r+0x5a>
   18452:	8526                	mv	a0,s1
   18454:	a72fe0ef          	jal	166c6 <_free_r>
   18458:	02042823          	sw	zero,48(s0)
   1845c:	406c                	lw	a1,68(s0)
   1845e:	c591                	beqz	a1,1846a <_fclose_r+0x6c>
   18460:	8526                	mv	a0,s1
   18462:	a64fe0ef          	jal	166c6 <_free_r>
   18466:	04042223          	sw	zero,68(s0)
   1846a:	ef2fb0ef          	jal	13b5c <__sfp_lock_acquire>
   1846e:	507c                	lw	a5,100(s0)
   18470:	00041623          	sh	zero,12(s0)
   18474:	8b85                	and	a5,a5,1
   18476:	c7a5                	beqz	a5,184de <_fclose_r+0xe0>
   18478:	4c28                	lw	a0,88(s0)
   1847a:	e25fc0ef          	jal	1529e <__retarget_lock_close_recursive>
   1847e:	ee6fb0ef          	jal	13b64 <__sfp_lock_release>
   18482:	40b2                	lw	ra,12(sp)
   18484:	4422                	lw	s0,8(sp)
   18486:	4492                	lw	s1,4(sp)
   18488:	854a                	mv	a0,s2
   1848a:	4902                	lw	s2,0(sp)
   1848c:	0141                	add	sp,sp,16
   1848e:	8082                	ret
   18490:	fb51                	bnez	a4,18424 <_fclose_r+0x26>
   18492:	4422                	lw	s0,8(sp)
   18494:	4492                	lw	s1,4(sp)
   18496:	4901                	li	s2,0
   18498:	40b2                	lw	ra,12(sp)
   1849a:	854a                	mv	a0,s2
   1849c:	4902                	lw	s2,0(sp)
   1849e:	0141                	add	sp,sp,16
   184a0:	8082                	ret
   184a2:	00c45783          	lhu	a5,12(s0)
   184a6:	597d                	li	s2,-1
   184a8:	0807f793          	and	a5,a5,128
   184ac:	dfc9                	beqz	a5,18446 <_fclose_r+0x48>
   184ae:	480c                	lw	a1,16(s0)
   184b0:	8526                	mv	a0,s1
   184b2:	a14fe0ef          	jal	166c6 <_free_r>
   184b6:	bf41                	j	18446 <_fclose_r+0x48>
   184b8:	e62fb0ef          	jal	13b1a <__sinit>
   184bc:	bfa1                	j	18414 <_fclose_r+0x16>
   184be:	4c28                	lw	a0,88(s0)
   184c0:	de3fc0ef          	jal	152a2 <__retarget_lock_acquire_recursive>
   184c4:	00c41783          	lh	a5,12(s0)
   184c8:	ffb1                	bnez	a5,18424 <_fclose_r+0x26>
   184ca:	507c                	lw	a5,100(s0)
   184cc:	8b85                	and	a5,a5,1
   184ce:	f3f1                	bnez	a5,18492 <_fclose_r+0x94>
   184d0:	4c28                	lw	a0,88(s0)
   184d2:	4901                	li	s2,0
   184d4:	ddbfc0ef          	jal	152ae <__retarget_lock_release_recursive>
   184d8:	4422                	lw	s0,8(sp)
   184da:	4492                	lw	s1,4(sp)
   184dc:	bf75                	j	18498 <_fclose_r+0x9a>
   184de:	4c28                	lw	a0,88(s0)
   184e0:	dcffc0ef          	jal	152ae <__retarget_lock_release_recursive>
   184e4:	bf51                	j	18478 <_fclose_r+0x7a>

000184e6 <fclose>:
   184e6:	85aa                	mv	a1,a0
   184e8:	f2c1a503          	lw	a0,-212(gp) # 1d73c <_impure_ptr>
   184ec:	f13ff06f          	j	183fe <_fclose_r>

000184f0 <_realloc_r>:
   184f0:	7179                	add	sp,sp,-48
   184f2:	d226                	sw	s1,36(sp)
   184f4:	d606                	sw	ra,44(sp)
   184f6:	84b2                	mv	s1,a2
   184f8:	14058e63          	beqz	a1,18654 <_realloc_r+0x164>
   184fc:	d422                	sw	s0,40(sp)
   184fe:	d04a                	sw	s2,32(sp)
   18500:	842e                	mv	s0,a1
   18502:	ce4e                	sw	s3,28(sp)
   18504:	ca56                	sw	s5,20(sp)
   18506:	cc52                	sw	s4,24(sp)
   18508:	892a                	mv	s2,a0
   1850a:	a92ff0ef          	jal	1779c <__malloc_lock>
   1850e:	ffc42703          	lw	a4,-4(s0)
   18512:	00b48793          	add	a5,s1,11
   18516:	46d9                	li	a3,22
   18518:	ff840a93          	add	s5,s0,-8
   1851c:	ffc77993          	and	s3,a4,-4
   18520:	0cf6f063          	bgeu	a3,a5,185e0 <_realloc_r+0xf0>
   18524:	ff87fa13          	and	s4,a5,-8
   18528:	0a07cf63          	bltz	a5,185e6 <_realloc_r+0xf6>
   1852c:	0a9a6d63          	bltu	s4,s1,185e6 <_realloc_r+0xf6>
   18530:	0d49d663          	bge	s3,s4,185fc <_realloc_r+0x10c>
   18534:	c462                	sw	s8,8(sp)
   18536:	00005c17          	auipc	s8,0x5
   1853a:	d92c0c13          	add	s8,s8,-622 # 1d2c8 <__malloc_av_>
   1853e:	008c2603          	lw	a2,8(s8)
   18542:	013a86b3          	add	a3,s5,s3
   18546:	42dc                	lw	a5,4(a3)
   18548:	12d60e63          	beq	a2,a3,18684 <_realloc_r+0x194>
   1854c:	ffe7f613          	and	a2,a5,-2
   18550:	9636                	add	a2,a2,a3
   18552:	4250                	lw	a2,4(a2)
   18554:	8a05                	and	a2,a2,1
   18556:	e27d                	bnez	a2,1863c <_realloc_r+0x14c>
   18558:	9bf1                	and	a5,a5,-4
   1855a:	00f98633          	add	a2,s3,a5
   1855e:	09465963          	bge	a2,s4,185f0 <_realloc_r+0x100>
   18562:	8b05                	and	a4,a4,1
   18564:	e70d                	bnez	a4,1858e <_realloc_r+0x9e>
   18566:	c65e                	sw	s7,12(sp)
   18568:	ff842b83          	lw	s7,-8(s0)
   1856c:	c85a                	sw	s6,16(sp)
   1856e:	417a8bb3          	sub	s7,s5,s7
   18572:	004ba703          	lw	a4,4(s7)
   18576:	9b71                	and	a4,a4,-4
   18578:	97ba                	add	a5,a5,a4
   1857a:	01378b33          	add	s6,a5,s3
   1857e:	234b5f63          	bge	s6,s4,187bc <_realloc_r+0x2cc>
   18582:	00e98b33          	add	s6,s3,a4
   18586:	1d4b5463          	bge	s6,s4,1874e <_realloc_r+0x25e>
   1858a:	4b42                	lw	s6,16(sp)
   1858c:	4bb2                	lw	s7,12(sp)
   1858e:	85a6                	mv	a1,s1
   18590:	854a                	mv	a0,s2
   18592:	c2efe0ef          	jal	169c0 <_malloc_r>
   18596:	84aa                	mv	s1,a0
   18598:	2e050063          	beqz	a0,18878 <_realloc_r+0x388>
   1859c:	ffc42783          	lw	a5,-4(s0)
   185a0:	ff850713          	add	a4,a0,-8
   185a4:	9bf9                	and	a5,a5,-2
   185a6:	97d6                	add	a5,a5,s5
   185a8:	18e78d63          	beq	a5,a4,18742 <_realloc_r+0x252>
   185ac:	ffc98613          	add	a2,s3,-4
   185b0:	02400793          	li	a5,36
   185b4:	20c7e063          	bltu	a5,a2,187b4 <_realloc_r+0x2c4>
   185b8:	474d                	li	a4,19
   185ba:	16c76863          	bltu	a4,a2,1872a <_realloc_r+0x23a>
   185be:	87aa                	mv	a5,a0
   185c0:	8722                	mv	a4,s0
   185c2:	4314                	lw	a3,0(a4)
   185c4:	c394                	sw	a3,0(a5)
   185c6:	4354                	lw	a3,4(a4)
   185c8:	c3d4                	sw	a3,4(a5)
   185ca:	4718                	lw	a4,8(a4)
   185cc:	c798                	sw	a4,8(a5)
   185ce:	85a2                	mv	a1,s0
   185d0:	854a                	mv	a0,s2
   185d2:	8f4fe0ef          	jal	166c6 <_free_r>
   185d6:	854a                	mv	a0,s2
   185d8:	9ccff0ef          	jal	177a4 <__malloc_unlock>
   185dc:	4c22                	lw	s8,8(sp)
   185de:	a0a9                	j	18628 <_realloc_r+0x138>
   185e0:	4a41                	li	s4,16
   185e2:	f49a77e3          	bgeu	s4,s1,18530 <_realloc_r+0x40>
   185e6:	47b1                	li	a5,12
   185e8:	00f92023          	sw	a5,0(s2)
   185ec:	4481                	li	s1,0
   185ee:	a82d                	j	18628 <_realloc_r+0x138>
   185f0:	46dc                	lw	a5,12(a3)
   185f2:	4698                	lw	a4,8(a3)
   185f4:	4c22                	lw	s8,8(sp)
   185f6:	89b2                	mv	s3,a2
   185f8:	c75c                	sw	a5,12(a4)
   185fa:	c798                	sw	a4,8(a5)
   185fc:	004aa783          	lw	a5,4(s5)
   18600:	414986b3          	sub	a3,s3,s4
   18604:	463d                	li	a2,15
   18606:	8b85                	and	a5,a5,1
   18608:	013a8733          	add	a4,s5,s3
   1860c:	04d66a63          	bltu	a2,a3,18660 <_realloc_r+0x170>
   18610:	0137e7b3          	or	a5,a5,s3
   18614:	00faa223          	sw	a5,4(s5)
   18618:	435c                	lw	a5,4(a4)
   1861a:	0017e793          	or	a5,a5,1
   1861e:	c35c                	sw	a5,4(a4)
   18620:	854a                	mv	a0,s2
   18622:	982ff0ef          	jal	177a4 <__malloc_unlock>
   18626:	84a2                	mv	s1,s0
   18628:	5422                	lw	s0,40(sp)
   1862a:	50b2                	lw	ra,44(sp)
   1862c:	5902                	lw	s2,32(sp)
   1862e:	49f2                	lw	s3,28(sp)
   18630:	4a62                	lw	s4,24(sp)
   18632:	4ad2                	lw	s5,20(sp)
   18634:	8526                	mv	a0,s1
   18636:	5492                	lw	s1,36(sp)
   18638:	6145                	add	sp,sp,48
   1863a:	8082                	ret
   1863c:	8b05                	and	a4,a4,1
   1863e:	fb21                	bnez	a4,1858e <_realloc_r+0x9e>
   18640:	c65e                	sw	s7,12(sp)
   18642:	ff842b83          	lw	s7,-8(s0)
   18646:	c85a                	sw	s6,16(sp)
   18648:	417a8bb3          	sub	s7,s5,s7
   1864c:	004ba703          	lw	a4,4(s7)
   18650:	9b71                	and	a4,a4,-4
   18652:	bf05                	j	18582 <_realloc_r+0x92>
   18654:	50b2                	lw	ra,44(sp)
   18656:	5492                	lw	s1,36(sp)
   18658:	85b2                	mv	a1,a2
   1865a:	6145                	add	sp,sp,48
   1865c:	b64fe06f          	j	169c0 <_malloc_r>
   18660:	0147e7b3          	or	a5,a5,s4
   18664:	00faa223          	sw	a5,4(s5)
   18668:	014a85b3          	add	a1,s5,s4
   1866c:	0016e693          	or	a3,a3,1
   18670:	c1d4                	sw	a3,4(a1)
   18672:	435c                	lw	a5,4(a4)
   18674:	05a1                	add	a1,a1,8
   18676:	854a                	mv	a0,s2
   18678:	0017e793          	or	a5,a5,1
   1867c:	c35c                	sw	a5,4(a4)
   1867e:	848fe0ef          	jal	166c6 <_free_r>
   18682:	bf79                	j	18620 <_realloc_r+0x130>
   18684:	9bf1                	and	a5,a5,-4
   18686:	013786b3          	add	a3,a5,s3
   1868a:	010a0613          	add	a2,s4,16
   1868e:	1ac6db63          	bge	a3,a2,18844 <_realloc_r+0x354>
   18692:	8b05                	and	a4,a4,1
   18694:	ee071de3          	bnez	a4,1858e <_realloc_r+0x9e>
   18698:	c65e                	sw	s7,12(sp)
   1869a:	ff842b83          	lw	s7,-8(s0)
   1869e:	c85a                	sw	s6,16(sp)
   186a0:	417a8bb3          	sub	s7,s5,s7
   186a4:	004ba703          	lw	a4,4(s7)
   186a8:	9b71                	and	a4,a4,-4
   186aa:	97ba                	add	a5,a5,a4
   186ac:	01378b33          	add	s6,a5,s3
   186b0:	eccb49e3          	blt	s6,a2,18582 <_realloc_r+0x92>
   186b4:	00cba783          	lw	a5,12(s7)
   186b8:	008ba703          	lw	a4,8(s7)
   186bc:	ffc98613          	add	a2,s3,-4
   186c0:	02400693          	li	a3,36
   186c4:	c75c                	sw	a5,12(a4)
   186c6:	c798                	sw	a4,8(a5)
   186c8:	008b8493          	add	s1,s7,8
   186cc:	1cc6e563          	bltu	a3,a2,18896 <_realloc_r+0x3a6>
   186d0:	474d                	li	a4,19
   186d2:	87a6                	mv	a5,s1
   186d4:	00c77e63          	bgeu	a4,a2,186f0 <_realloc_r+0x200>
   186d8:	4018                	lw	a4,0(s0)
   186da:	47ed                	li	a5,27
   186dc:	00eba423          	sw	a4,8(s7)
   186e0:	4058                	lw	a4,4(s0)
   186e2:	00eba623          	sw	a4,12(s7)
   186e6:	1ac7ed63          	bltu	a5,a2,188a0 <_realloc_r+0x3b0>
   186ea:	0421                	add	s0,s0,8
   186ec:	010b8793          	add	a5,s7,16
   186f0:	4018                	lw	a4,0(s0)
   186f2:	c398                	sw	a4,0(a5)
   186f4:	4058                	lw	a4,4(s0)
   186f6:	c3d8                	sw	a4,4(a5)
   186f8:	4418                	lw	a4,8(s0)
   186fa:	c798                	sw	a4,8(a5)
   186fc:	014b8733          	add	a4,s7,s4
   18700:	414b07b3          	sub	a5,s6,s4
   18704:	00ec2423          	sw	a4,8(s8)
   18708:	0017e793          	or	a5,a5,1
   1870c:	c35c                	sw	a5,4(a4)
   1870e:	004ba783          	lw	a5,4(s7)
   18712:	854a                	mv	a0,s2
   18714:	8b85                	and	a5,a5,1
   18716:	0147e7b3          	or	a5,a5,s4
   1871a:	00fba223          	sw	a5,4(s7)
   1871e:	886ff0ef          	jal	177a4 <__malloc_unlock>
   18722:	4b42                	lw	s6,16(sp)
   18724:	4bb2                	lw	s7,12(sp)
   18726:	4c22                	lw	s8,8(sp)
   18728:	b701                	j	18628 <_realloc_r+0x138>
   1872a:	4014                	lw	a3,0(s0)
   1872c:	476d                	li	a4,27
   1872e:	c114                	sw	a3,0(a0)
   18730:	4054                	lw	a3,4(s0)
   18732:	c154                	sw	a3,4(a0)
   18734:	0ec76d63          	bltu	a4,a2,1882e <_realloc_r+0x33e>
   18738:	00840713          	add	a4,s0,8
   1873c:	00850793          	add	a5,a0,8
   18740:	b549                	j	185c2 <_realloc_r+0xd2>
   18742:	ffc52783          	lw	a5,-4(a0)
   18746:	4c22                	lw	s8,8(sp)
   18748:	9bf1                	and	a5,a5,-4
   1874a:	99be                	add	s3,s3,a5
   1874c:	bd45                	j	185fc <_realloc_r+0x10c>
   1874e:	00cba783          	lw	a5,12(s7)
   18752:	008ba703          	lw	a4,8(s7)
   18756:	ffc98613          	add	a2,s3,-4
   1875a:	02400693          	li	a3,36
   1875e:	c75c                	sw	a5,12(a4)
   18760:	c798                	sw	a4,8(a5)
   18762:	008b8493          	add	s1,s7,8
   18766:	0ac6ef63          	bltu	a3,a2,18824 <_realloc_r+0x334>
   1876a:	474d                	li	a4,19
   1876c:	87a6                	mv	a5,s1
   1876e:	02c77663          	bgeu	a4,a2,1879a <_realloc_r+0x2aa>
   18772:	4018                	lw	a4,0(s0)
   18774:	47ed                	li	a5,27
   18776:	00eba423          	sw	a4,8(s7)
   1877a:	4058                	lw	a4,4(s0)
   1877c:	00eba623          	sw	a4,12(s7)
   18780:	0ec7f863          	bgeu	a5,a2,18870 <_realloc_r+0x380>
   18784:	441c                	lw	a5,8(s0)
   18786:	00fba823          	sw	a5,16(s7)
   1878a:	445c                	lw	a5,12(s0)
   1878c:	00fbaa23          	sw	a5,20(s7)
   18790:	06d60f63          	beq	a2,a3,1880e <_realloc_r+0x31e>
   18794:	0441                	add	s0,s0,16
   18796:	018b8793          	add	a5,s7,24
   1879a:	4018                	lw	a4,0(s0)
   1879c:	c398                	sw	a4,0(a5)
   1879e:	4058                	lw	a4,4(s0)
   187a0:	c3d8                	sw	a4,4(a5)
   187a2:	4418                	lw	a4,8(s0)
   187a4:	c798                	sw	a4,8(a5)
   187a6:	89da                	mv	s3,s6
   187a8:	8ade                	mv	s5,s7
   187aa:	4b42                	lw	s6,16(sp)
   187ac:	4bb2                	lw	s7,12(sp)
   187ae:	4c22                	lw	s8,8(sp)
   187b0:	8426                	mv	s0,s1
   187b2:	b5a9                	j	185fc <_realloc_r+0x10c>
   187b4:	85a2                	mv	a1,s0
   187b6:	d8cfc0ef          	jal	14d42 <memmove>
   187ba:	bd11                	j	185ce <_realloc_r+0xde>
   187bc:	46dc                	lw	a5,12(a3)
   187be:	4698                	lw	a4,8(a3)
   187c0:	ffc98613          	add	a2,s3,-4
   187c4:	02400693          	li	a3,36
   187c8:	c75c                	sw	a5,12(a4)
   187ca:	c798                	sw	a4,8(a5)
   187cc:	008ba703          	lw	a4,8(s7)
   187d0:	00cba783          	lw	a5,12(s7)
   187d4:	008b8493          	add	s1,s7,8
   187d8:	c75c                	sw	a5,12(a4)
   187da:	c798                	sw	a4,8(a5)
   187dc:	04c6e463          	bltu	a3,a2,18824 <_realloc_r+0x334>
   187e0:	474d                	li	a4,19
   187e2:	87a6                	mv	a5,s1
   187e4:	fac77be3          	bgeu	a4,a2,1879a <_realloc_r+0x2aa>
   187e8:	4018                	lw	a4,0(s0)
   187ea:	47ed                	li	a5,27
   187ec:	00eba423          	sw	a4,8(s7)
   187f0:	4058                	lw	a4,4(s0)
   187f2:	00eba623          	sw	a4,12(s7)
   187f6:	06c7fd63          	bgeu	a5,a2,18870 <_realloc_r+0x380>
   187fa:	4418                	lw	a4,8(s0)
   187fc:	02400793          	li	a5,36
   18800:	00eba823          	sw	a4,16(s7)
   18804:	4458                	lw	a4,12(s0)
   18806:	00ebaa23          	sw	a4,20(s7)
   1880a:	f8f615e3          	bne	a2,a5,18794 <_realloc_r+0x2a4>
   1880e:	4818                	lw	a4,16(s0)
   18810:	020b8793          	add	a5,s7,32
   18814:	0461                	add	s0,s0,24
   18816:	00ebac23          	sw	a4,24(s7)
   1881a:	ffc42703          	lw	a4,-4(s0)
   1881e:	00ebae23          	sw	a4,28(s7)
   18822:	bfa5                	j	1879a <_realloc_r+0x2aa>
   18824:	85a2                	mv	a1,s0
   18826:	8526                	mv	a0,s1
   18828:	d1afc0ef          	jal	14d42 <memmove>
   1882c:	bfad                	j	187a6 <_realloc_r+0x2b6>
   1882e:	4418                	lw	a4,8(s0)
   18830:	c518                	sw	a4,8(a0)
   18832:	4458                	lw	a4,12(s0)
   18834:	c558                	sw	a4,12(a0)
   18836:	04f60763          	beq	a2,a5,18884 <_realloc_r+0x394>
   1883a:	01040713          	add	a4,s0,16
   1883e:	01050793          	add	a5,a0,16
   18842:	b341                	j	185c2 <_realloc_r+0xd2>
   18844:	9ad2                	add	s5,s5,s4
   18846:	414687b3          	sub	a5,a3,s4
   1884a:	015c2423          	sw	s5,8(s8)
   1884e:	0017e793          	or	a5,a5,1
   18852:	00faa223          	sw	a5,4(s5)
   18856:	ffc42783          	lw	a5,-4(s0)
   1885a:	854a                	mv	a0,s2
   1885c:	84a2                	mv	s1,s0
   1885e:	8b85                	and	a5,a5,1
   18860:	0147e7b3          	or	a5,a5,s4
   18864:	fef42e23          	sw	a5,-4(s0)
   18868:	f3dfe0ef          	jal	177a4 <__malloc_unlock>
   1886c:	4c22                	lw	s8,8(sp)
   1886e:	bb6d                	j	18628 <_realloc_r+0x138>
   18870:	0421                	add	s0,s0,8
   18872:	010b8793          	add	a5,s7,16
   18876:	b715                	j	1879a <_realloc_r+0x2aa>
   18878:	854a                	mv	a0,s2
   1887a:	f2bfe0ef          	jal	177a4 <__malloc_unlock>
   1887e:	4481                	li	s1,0
   18880:	4c22                	lw	s8,8(sp)
   18882:	b35d                	j	18628 <_realloc_r+0x138>
   18884:	4814                	lw	a3,16(s0)
   18886:	01840713          	add	a4,s0,24
   1888a:	01850793          	add	a5,a0,24
   1888e:	c914                	sw	a3,16(a0)
   18890:	4854                	lw	a3,20(s0)
   18892:	c954                	sw	a3,20(a0)
   18894:	b33d                	j	185c2 <_realloc_r+0xd2>
   18896:	85a2                	mv	a1,s0
   18898:	8526                	mv	a0,s1
   1889a:	ca8fc0ef          	jal	14d42 <memmove>
   1889e:	bdb9                	j	186fc <_realloc_r+0x20c>
   188a0:	441c                	lw	a5,8(s0)
   188a2:	00fba823          	sw	a5,16(s7)
   188a6:	445c                	lw	a5,12(s0)
   188a8:	00fbaa23          	sw	a5,20(s7)
   188ac:	00d60663          	beq	a2,a3,188b8 <_realloc_r+0x3c8>
   188b0:	0441                	add	s0,s0,16
   188b2:	018b8793          	add	a5,s7,24
   188b6:	bd2d                	j	186f0 <_realloc_r+0x200>
   188b8:	4818                	lw	a4,16(s0)
   188ba:	020b8793          	add	a5,s7,32
   188be:	00ebac23          	sw	a4,24(s7)
   188c2:	4858                	lw	a4,20(s0)
   188c4:	0461                	add	s0,s0,24
   188c6:	00ebae23          	sw	a4,28(s7)
   188ca:	b51d                	j	186f0 <_realloc_r+0x200>

000188cc <_strtol_l.isra.0>:
   188cc:	1141                	add	sp,sp,-16
   188ce:	c606                	sw	ra,12(sp)
   188d0:	02400793          	li	a5,36
   188d4:	08d7ee63          	bltu	a5,a3,18970 <_strtol_l.isra.0+0xa4>
   188d8:	4705                	li	a4,1
   188da:	82b6                	mv	t0,a3
   188dc:	87ae                	mv	a5,a1
   188de:	00004897          	auipc	a7,0x4
   188e2:	bc788893          	add	a7,a7,-1081 # 1c4a5 <_ctype_+0x1>
   188e6:	08e68563          	beq	a3,a4,18970 <_strtol_l.isra.0+0xa4>
   188ea:	c422                	sw	s0,8(sp)
   188ec:	c226                	sw	s1,4(sp)
   188ee:	0007c803          	lbu	a6,0(a5)
   188f2:	833e                	mv	t1,a5
   188f4:	0785                	add	a5,a5,1
   188f6:	01088733          	add	a4,a7,a6
   188fa:	00074703          	lbu	a4,0(a4)
   188fe:	8b21                	and	a4,a4,8
   18900:	f77d                	bnez	a4,188ee <_strtol_l.isra.0+0x22>
   18902:	02d00713          	li	a4,45
   18906:	10e80063          	beq	a6,a4,18a06 <_strtol_l.isra.0+0x13a>
   1890a:	02b00713          	li	a4,43
   1890e:	06e80963          	beq	a6,a4,18980 <_strtol_l.isra.0+0xb4>
   18912:	800003b7          	lui	t2,0x80000
   18916:	13fd                	add	t2,t2,-1 # 7fffffff <__BSS_END__+0x7ffe22b7>
   18918:	4481                	li	s1,0
   1891a:	eea5                	bnez	a3,18992 <_strtol_l.isra.0+0xc6>
   1891c:	03000713          	li	a4,48
   18920:	0ee80b63          	beq	a6,a4,18a16 <_strtol_l.isra.0+0x14a>
   18924:	42a9                	li	t0,10
   18926:	46a9                	li	a3,10
   18928:	0253f433          	remu	s0,t2,t0
   1892c:	4301                	li	t1,0
   1892e:	4881                	li	a7,0
   18930:	4e25                	li	t3,9
   18932:	4fe5                	li	t6,25
   18934:	5efd                	li	t4,-1
   18936:	0253df33          	divu	t5,t2,t0
   1893a:	fd080713          	add	a4,a6,-48
   1893e:	00ee7863          	bgeu	t3,a4,1894e <_strtol_l.isra.0+0x82>
   18942:	fbf80713          	add	a4,a6,-65
   18946:	06efec63          	bltu	t6,a4,189be <_strtol_l.isra.0+0xf2>
   1894a:	fc980713          	add	a4,a6,-55
   1894e:	08d75063          	bge	a4,a3,189ce <_strtol_l.isra.0+0x102>
   18952:	01d30b63          	beq	t1,t4,18968 <_strtol_l.isra.0+0x9c>
   18956:	537d                	li	t1,-1
   18958:	011f6863          	bltu	t5,a7,18968 <_strtol_l.isra.0+0x9c>
   1895c:	091f0963          	beq	t5,a7,189ee <_strtol_l.isra.0+0x122>
   18960:	4305                	li	t1,1
   18962:	025888b3          	mul	a7,a7,t0
   18966:	98ba                	add	a7,a7,a4
   18968:	0785                	add	a5,a5,1
   1896a:	fff7c803          	lbu	a6,-1(a5)
   1896e:	b7f1                	j	1893a <_strtol_l.isra.0+0x6e>
   18970:	1e9000ef          	jal	19358 <__errno>
   18974:	40b2                	lw	ra,12(sp)
   18976:	47d9                	li	a5,22
   18978:	c11c                	sw	a5,0(a0)
   1897a:	4501                	li	a0,0
   1897c:	0141                	add	sp,sp,16
   1897e:	8082                	ret
   18980:	800003b7          	lui	t2,0x80000
   18984:	0007c803          	lbu	a6,0(a5)
   18988:	13fd                	add	t2,t2,-1 # 7fffffff <__BSS_END__+0x7ffe22b7>
   1898a:	00230793          	add	a5,t1,2
   1898e:	4481                	li	s1,0
   18990:	d6d1                	beqz	a3,1891c <_strtol_l.isra.0+0x50>
   18992:	4741                	li	a4,16
   18994:	f8e69ae3          	bne	a3,a4,18928 <_strtol_l.isra.0+0x5c>
   18998:	03000713          	li	a4,48
   1899c:	42c1                	li	t0,16
   1899e:	f8e815e3          	bne	a6,a4,18928 <_strtol_l.isra.0+0x5c>
   189a2:	0007c703          	lbu	a4,0(a5)
   189a6:	05800893          	li	a7,88
   189aa:	0df77713          	and	a4,a4,223
   189ae:	f7171de3          	bne	a4,a7,18928 <_strtol_l.isra.0+0x5c>
   189b2:	0017c803          	lbu	a6,1(a5)
   189b6:	42c1                	li	t0,16
   189b8:	0789                	add	a5,a5,2
   189ba:	46c1                	li	a3,16
   189bc:	b7b5                	j	18928 <_strtol_l.isra.0+0x5c>
   189be:	f9f80713          	add	a4,a6,-97
   189c2:	00efe663          	bltu	t6,a4,189ce <_strtol_l.isra.0+0x102>
   189c6:	fa980713          	add	a4,a6,-87
   189ca:	f8d744e3          	blt	a4,a3,18952 <_strtol_l.isra.0+0x86>
   189ce:	577d                	li	a4,-1
   189d0:	02e30263          	beq	t1,a4,189f4 <_strtol_l.isra.0+0x128>
   189d4:	c099                	beqz	s1,189da <_strtol_l.isra.0+0x10e>
   189d6:	411008b3          	neg	a7,a7
   189da:	c601                	beqz	a2,189e2 <_strtol_l.isra.0+0x116>
   189dc:	04031863          	bnez	t1,18a2c <_strtol_l.isra.0+0x160>
   189e0:	c20c                	sw	a1,0(a2)
   189e2:	4422                	lw	s0,8(sp)
   189e4:	40b2                	lw	ra,12(sp)
   189e6:	4492                	lw	s1,4(sp)
   189e8:	8546                	mv	a0,a7
   189ea:	0141                	add	sp,sp,16
   189ec:	8082                	ret
   189ee:	f6e44de3          	blt	s0,a4,18968 <_strtol_l.isra.0+0x9c>
   189f2:	b7bd                	j	18960 <_strtol_l.isra.0+0x94>
   189f4:	02200713          	li	a4,34
   189f8:	c118                	sw	a4,0(a0)
   189fa:	889e                	mv	a7,t2
   189fc:	d27d                	beqz	a2,189e2 <_strtol_l.isra.0+0x116>
   189fe:	fff78593          	add	a1,a5,-1
   18a02:	889e                	mv	a7,t2
   18a04:	bff1                	j	189e0 <_strtol_l.isra.0+0x114>
   18a06:	0007c803          	lbu	a6,0(a5)
   18a0a:	800003b7          	lui	t2,0x80000
   18a0e:	00230793          	add	a5,t1,2
   18a12:	4485                	li	s1,1
   18a14:	b719                	j	1891a <_strtol_l.isra.0+0x4e>
   18a16:	0007c703          	lbu	a4,0(a5)
   18a1a:	05800893          	li	a7,88
   18a1e:	42a1                	li	t0,8
   18a20:	0df77713          	and	a4,a4,223
   18a24:	46a1                	li	a3,8
   18a26:	f11711e3          	bne	a4,a7,18928 <_strtol_l.isra.0+0x5c>
   18a2a:	b761                	j	189b2 <_strtol_l.isra.0+0xe6>
   18a2c:	83c6                	mv	t2,a7
   18a2e:	bfc1                	j	189fe <_strtol_l.isra.0+0x132>

00018a30 <_strtol_r>:
   18a30:	e9dff06f          	j	188cc <_strtol_l.isra.0>

00018a34 <strtol_l>:
   18a34:	86b2                	mv	a3,a2
   18a36:	862e                	mv	a2,a1
   18a38:	85aa                	mv	a1,a0
   18a3a:	f2c1a503          	lw	a0,-212(gp) # 1d73c <_impure_ptr>
   18a3e:	e8fff06f          	j	188cc <_strtol_l.isra.0>

00018a42 <strtol>:
   18a42:	86b2                	mv	a3,a2
   18a44:	862e                	mv	a2,a1
   18a46:	85aa                	mv	a1,a0
   18a48:	f2c1a503          	lw	a0,-212(gp) # 1d73c <_impure_ptr>
   18a4c:	e81ff06f          	j	188cc <_strtol_l.isra.0>

00018a50 <__sread>:
   18a50:	1141                	add	sp,sp,-16
   18a52:	c422                	sw	s0,8(sp)
   18a54:	842e                	mv	s0,a1
   18a56:	00e59583          	lh	a1,14(a1)
   18a5a:	c606                	sw	ra,12(sp)
   18a5c:	061000ef          	jal	192bc <_read_r>
   18a60:	00054963          	bltz	a0,18a72 <__sread+0x22>
   18a64:	483c                	lw	a5,80(s0)
   18a66:	40b2                	lw	ra,12(sp)
   18a68:	97aa                	add	a5,a5,a0
   18a6a:	c83c                	sw	a5,80(s0)
   18a6c:	4422                	lw	s0,8(sp)
   18a6e:	0141                	add	sp,sp,16
   18a70:	8082                	ret
   18a72:	00c45783          	lhu	a5,12(s0)
   18a76:	777d                	lui	a4,0xfffff
   18a78:	177d                	add	a4,a4,-1 # ffffefff <__BSS_END__+0xfffe12b7>
   18a7a:	8ff9                	and	a5,a5,a4
   18a7c:	40b2                	lw	ra,12(sp)
   18a7e:	00f41623          	sh	a5,12(s0)
   18a82:	4422                	lw	s0,8(sp)
   18a84:	0141                	add	sp,sp,16
   18a86:	8082                	ret

00018a88 <__seofread>:
   18a88:	4501                	li	a0,0
   18a8a:	8082                	ret

00018a8c <__swrite>:
   18a8c:	00c59783          	lh	a5,12(a1)
   18a90:	1101                	add	sp,sp,-32
   18a92:	cc22                	sw	s0,24(sp)
   18a94:	ca26                	sw	s1,20(sp)
   18a96:	c84a                	sw	s2,16(sp)
   18a98:	c64e                	sw	s3,12(sp)
   18a9a:	ce06                	sw	ra,28(sp)
   18a9c:	1007f713          	and	a4,a5,256
   18aa0:	842e                	mv	s0,a1
   18aa2:	84aa                	mv	s1,a0
   18aa4:	8932                	mv	s2,a2
   18aa6:	89b6                	mv	s3,a3
   18aa8:	e31d                	bnez	a4,18ace <__swrite+0x42>
   18aaa:	777d                	lui	a4,0xfffff
   18aac:	177d                	add	a4,a4,-1 # ffffefff <__BSS_END__+0xfffe12b7>
   18aae:	8ff9                	and	a5,a5,a4
   18ab0:	00e41583          	lh	a1,14(s0)
   18ab4:	00f41623          	sh	a5,12(s0)
   18ab8:	4462                	lw	s0,24(sp)
   18aba:	40f2                	lw	ra,28(sp)
   18abc:	86ce                	mv	a3,s3
   18abe:	864a                	mv	a2,s2
   18ac0:	49b2                	lw	s3,12(sp)
   18ac2:	4942                	lw	s2,16(sp)
   18ac4:	8526                	mv	a0,s1
   18ac6:	44d2                	lw	s1,20(sp)
   18ac8:	6105                	add	sp,sp,32
   18aca:	0590006f          	j	19322 <_write_r>
   18ace:	00e59583          	lh	a1,14(a1)
   18ad2:	4689                	li	a3,2
   18ad4:	4601                	li	a2,0
   18ad6:	7b0000ef          	jal	19286 <_lseek_r>
   18ada:	00c41783          	lh	a5,12(s0)
   18ade:	b7f1                	j	18aaa <__swrite+0x1e>

00018ae0 <__sseek>:
   18ae0:	1141                	add	sp,sp,-16
   18ae2:	c422                	sw	s0,8(sp)
   18ae4:	842e                	mv	s0,a1
   18ae6:	00e59583          	lh	a1,14(a1)
   18aea:	c606                	sw	ra,12(sp)
   18aec:	79a000ef          	jal	19286 <_lseek_r>
   18af0:	57fd                	li	a5,-1
   18af2:	00f50f63          	beq	a0,a5,18b10 <__sseek+0x30>
   18af6:	00c45783          	lhu	a5,12(s0)
   18afa:	6705                	lui	a4,0x1
   18afc:	40b2                	lw	ra,12(sp)
   18afe:	8fd9                	or	a5,a5,a4
   18b00:	07c2                	sll	a5,a5,0x10
   18b02:	87c1                	sra	a5,a5,0x10
   18b04:	c828                	sw	a0,80(s0)
   18b06:	00f41623          	sh	a5,12(s0)
   18b0a:	4422                	lw	s0,8(sp)
   18b0c:	0141                	add	sp,sp,16
   18b0e:	8082                	ret
   18b10:	00c45783          	lhu	a5,12(s0)
   18b14:	777d                	lui	a4,0xfffff
   18b16:	177d                	add	a4,a4,-1 # ffffefff <__BSS_END__+0xfffe12b7>
   18b18:	8ff9                	and	a5,a5,a4
   18b1a:	07c2                	sll	a5,a5,0x10
   18b1c:	87c1                	sra	a5,a5,0x10
   18b1e:	40b2                	lw	ra,12(sp)
   18b20:	00f41623          	sh	a5,12(s0)
   18b24:	4422                	lw	s0,8(sp)
   18b26:	0141                	add	sp,sp,16
   18b28:	8082                	ret

00018b2a <__sclose>:
   18b2a:	00e59583          	lh	a1,14(a1)
   18b2e:	ad81                	j	1917e <_close_r>

00018b30 <_wctomb_r>:
   18b30:	8ec1a783          	lw	a5,-1812(gp) # 1d0fc <__global_locale+0xe0>
   18b34:	8782                	jr	a5

00018b36 <__ascii_wctomb>:
   18b36:	cd91                	beqz	a1,18b52 <__ascii_wctomb+0x1c>
   18b38:	0ff00793          	li	a5,255
   18b3c:	00c7e663          	bltu	a5,a2,18b48 <__ascii_wctomb+0x12>
   18b40:	00c58023          	sb	a2,0(a1)
   18b44:	4505                	li	a0,1
   18b46:	8082                	ret
   18b48:	08a00793          	li	a5,138
   18b4c:	c11c                	sw	a5,0(a0)
   18b4e:	557d                	li	a0,-1
   18b50:	8082                	ret
   18b52:	4501                	li	a0,0
   18b54:	8082                	ret

00018b56 <__utf8_wctomb>:
   18b56:	c9c1                	beqz	a1,18be6 <__utf8_wctomb+0x90>
   18b58:	07f00793          	li	a5,127
   18b5c:	06c7f363          	bgeu	a5,a2,18bc2 <__utf8_wctomb+0x6c>
   18b60:	f8060793          	add	a5,a2,-128
   18b64:	77f00713          	li	a4,1919
   18b68:	06f77163          	bgeu	a4,a5,18bca <__utf8_wctomb+0x74>
   18b6c:	67bd                	lui	a5,0xf
   18b6e:	80060713          	add	a4,a2,-2048
   18b72:	7ff78793          	add	a5,a5,2047 # f7ff <exit-0x895>
   18b76:	06e7fa63          	bgeu	a5,a4,18bea <__utf8_wctomb+0x94>
   18b7a:	77c1                	lui	a5,0xffff0
   18b7c:	97b2                	add	a5,a5,a2
   18b7e:	00100737          	lui	a4,0x100
   18b82:	08e7fa63          	bgeu	a5,a4,18c16 <__utf8_wctomb+0xc0>
   18b86:	00c65713          	srl	a4,a2,0xc
   18b8a:	00665793          	srl	a5,a2,0x6
   18b8e:	01265693          	srl	a3,a2,0x12
   18b92:	03f77713          	and	a4,a4,63
   18b96:	03f7f793          	and	a5,a5,63
   18b9a:	03f67613          	and	a2,a2,63
   18b9e:	ff06e693          	or	a3,a3,-16
   18ba2:	f8076713          	or	a4,a4,-128
   18ba6:	f807e793          	or	a5,a5,-128
   18baa:	f8066613          	or	a2,a2,-128
   18bae:	00d58023          	sb	a3,0(a1)
   18bb2:	00e580a3          	sb	a4,1(a1)
   18bb6:	00f58123          	sb	a5,2(a1)
   18bba:	00c581a3          	sb	a2,3(a1)
   18bbe:	4511                	li	a0,4
   18bc0:	8082                	ret
   18bc2:	00c58023          	sb	a2,0(a1)
   18bc6:	4505                	li	a0,1
   18bc8:	8082                	ret
   18bca:	00665793          	srl	a5,a2,0x6
   18bce:	03f67613          	and	a2,a2,63
   18bd2:	fc07e793          	or	a5,a5,-64
   18bd6:	f8066613          	or	a2,a2,-128
   18bda:	00f58023          	sb	a5,0(a1)
   18bde:	00c580a3          	sb	a2,1(a1)
   18be2:	4509                	li	a0,2
   18be4:	8082                	ret
   18be6:	4501                	li	a0,0
   18be8:	8082                	ret
   18bea:	00665793          	srl	a5,a2,0x6
   18bee:	00c65713          	srl	a4,a2,0xc
   18bf2:	03f7f793          	and	a5,a5,63
   18bf6:	03f67613          	and	a2,a2,63
   18bfa:	fe076713          	or	a4,a4,-32
   18bfe:	f807e793          	or	a5,a5,-128
   18c02:	f8066613          	or	a2,a2,-128
   18c06:	00e58023          	sb	a4,0(a1)
   18c0a:	00f580a3          	sb	a5,1(a1)
   18c0e:	00c58123          	sb	a2,2(a1)
   18c12:	450d                	li	a0,3
   18c14:	8082                	ret
   18c16:	08a00793          	li	a5,138
   18c1a:	c11c                	sw	a5,0(a0)
   18c1c:	557d                	li	a0,-1
   18c1e:	8082                	ret

00018c20 <__sjis_wctomb>:
   18c20:	00865793          	srl	a5,a2,0x8
   18c24:	0ff7f793          	zext.b	a5,a5
   18c28:	0ff67613          	zext.b	a2,a2
   18c2c:	c9a1                	beqz	a1,18c7c <__sjis_wctomb+0x5c>
   18c2e:	c3b9                	beqz	a5,18c74 <__sjis_wctomb+0x54>
   18c30:	07f78713          	add	a4,a5,127 # ffff007f <__BSS_END__+0xfffd2337>
   18c34:	0ff77713          	zext.b	a4,a4
   18c38:	46f9                	li	a3,30
   18c3a:	00e6f963          	bgeu	a3,a4,18c4c <__sjis_wctomb+0x2c>
   18c3e:	02078713          	add	a4,a5,32
   18c42:	0ff77713          	zext.b	a4,a4
   18c46:	46bd                	li	a3,15
   18c48:	02e6ec63          	bltu	a3,a4,18c80 <__sjis_wctomb+0x60>
   18c4c:	fc060713          	add	a4,a2,-64
   18c50:	0ff77713          	zext.b	a4,a4
   18c54:	03e00693          	li	a3,62
   18c58:	00e6f863          	bgeu	a3,a4,18c68 <__sjis_wctomb+0x48>
   18c5c:	08064713          	xor	a4,a2,128
   18c60:	07c00693          	li	a3,124
   18c64:	00e6ee63          	bltu	a3,a4,18c80 <__sjis_wctomb+0x60>
   18c68:	00f58023          	sb	a5,0(a1)
   18c6c:	00c580a3          	sb	a2,1(a1)
   18c70:	4509                	li	a0,2
   18c72:	8082                	ret
   18c74:	00c58023          	sb	a2,0(a1)
   18c78:	4505                	li	a0,1
   18c7a:	8082                	ret
   18c7c:	4501                	li	a0,0
   18c7e:	8082                	ret
   18c80:	08a00793          	li	a5,138
   18c84:	c11c                	sw	a5,0(a0)
   18c86:	557d                	li	a0,-1
   18c88:	8082                	ret

00018c8a <__eucjp_wctomb>:
   18c8a:	00865793          	srl	a5,a2,0x8
   18c8e:	0ff7f793          	zext.b	a5,a5
   18c92:	0ff67613          	zext.b	a2,a2
   18c96:	c1bd                	beqz	a1,18cfc <__eucjp_wctomb+0x72>
   18c98:	cba1                	beqz	a5,18ce8 <__eucjp_wctomb+0x5e>
   18c9a:	07278713          	add	a4,a5,114
   18c9e:	0ff77713          	zext.b	a4,a4
   18ca2:	4685                	li	a3,1
   18ca4:	04e6fe63          	bgeu	a3,a4,18d00 <__eucjp_wctomb+0x76>
   18ca8:	05f78713          	add	a4,a5,95
   18cac:	0ff77713          	zext.b	a4,a4
   18cb0:	05d00693          	li	a3,93
   18cb4:	04e6ee63          	bltu	a3,a4,18d10 <__eucjp_wctomb+0x86>
   18cb8:	05f60713          	add	a4,a2,95
   18cbc:	0ff77713          	zext.b	a4,a4
   18cc0:	02e6f863          	bgeu	a3,a4,18cf0 <__eucjp_wctomb+0x66>
   18cc4:	08066613          	or	a2,a2,128
   18cc8:	05f60713          	add	a4,a2,95
   18ccc:	0ff77713          	zext.b	a4,a4
   18cd0:	04e6e063          	bltu	a3,a4,18d10 <__eucjp_wctomb+0x86>
   18cd4:	f8f00713          	li	a4,-113
   18cd8:	00e58023          	sb	a4,0(a1)
   18cdc:	00f580a3          	sb	a5,1(a1)
   18ce0:	00c58123          	sb	a2,2(a1)
   18ce4:	450d                	li	a0,3
   18ce6:	8082                	ret
   18ce8:	00c58023          	sb	a2,0(a1)
   18cec:	4505                	li	a0,1
   18cee:	8082                	ret
   18cf0:	00f58023          	sb	a5,0(a1)
   18cf4:	00c580a3          	sb	a2,1(a1)
   18cf8:	4509                	li	a0,2
   18cfa:	8082                	ret
   18cfc:	4501                	li	a0,0
   18cfe:	8082                	ret
   18d00:	05f60713          	add	a4,a2,95
   18d04:	0ff77713          	zext.b	a4,a4
   18d08:	05d00693          	li	a3,93
   18d0c:	fee6f2e3          	bgeu	a3,a4,18cf0 <__eucjp_wctomb+0x66>
   18d10:	08a00793          	li	a5,138
   18d14:	c11c                	sw	a5,0(a0)
   18d16:	557d                	li	a0,-1
   18d18:	8082                	ret

00018d1a <__jis_wctomb>:
   18d1a:	00865793          	srl	a5,a2,0x8
   18d1e:	0ff7f793          	zext.b	a5,a5
   18d22:	0ff67613          	zext.b	a2,a2
   18d26:	cda5                	beqz	a1,18d9e <__jis_wctomb+0x84>
   18d28:	c7b1                	beqz	a5,18d74 <__jis_wctomb+0x5a>
   18d2a:	fdf78713          	add	a4,a5,-33
   18d2e:	0ff77713          	zext.b	a4,a4
   18d32:	05d00813          	li	a6,93
   18d36:	06e86663          	bltu	a6,a4,18da2 <__jis_wctomb+0x88>
   18d3a:	fdf60713          	add	a4,a2,-33
   18d3e:	0ff77713          	zext.b	a4,a4
   18d42:	06e86063          	bltu	a6,a4,18da2 <__jis_wctomb+0x88>
   18d46:	4298                	lw	a4,0(a3)
   18d48:	4509                	li	a0,2
   18d4a:	e305                	bnez	a4,18d6a <__jis_wctomb+0x50>
   18d4c:	4705                	li	a4,1
   18d4e:	c298                	sw	a4,0(a3)
   18d50:	476d                	li	a4,27
   18d52:	00e58023          	sb	a4,0(a1)
   18d56:	02400713          	li	a4,36
   18d5a:	00e580a3          	sb	a4,1(a1)
   18d5e:	04200713          	li	a4,66
   18d62:	00e58123          	sb	a4,2(a1)
   18d66:	4515                	li	a0,5
   18d68:	058d                	add	a1,a1,3
   18d6a:	00f58023          	sb	a5,0(a1)
   18d6e:	00c580a3          	sb	a2,1(a1)
   18d72:	8082                	ret
   18d74:	429c                	lw	a5,0(a3)
   18d76:	4505                	li	a0,1
   18d78:	c385                	beqz	a5,18d98 <__jis_wctomb+0x7e>
   18d7a:	0006a023          	sw	zero,0(a3)
   18d7e:	47ed                	li	a5,27
   18d80:	00f58023          	sb	a5,0(a1)
   18d84:	02800793          	li	a5,40
   18d88:	00f580a3          	sb	a5,1(a1)
   18d8c:	04200793          	li	a5,66
   18d90:	00f58123          	sb	a5,2(a1)
   18d94:	4511                	li	a0,4
   18d96:	058d                	add	a1,a1,3
   18d98:	00c58023          	sb	a2,0(a1)
   18d9c:	8082                	ret
   18d9e:	4505                	li	a0,1
   18da0:	8082                	ret
   18da2:	08a00793          	li	a5,138
   18da6:	c11c                	sw	a5,0(a0)
   18da8:	557d                	li	a0,-1
   18daa:	8082                	ret

00018dac <__swbuf_r>:
   18dac:	1101                	add	sp,sp,-32
   18dae:	cc22                	sw	s0,24(sp)
   18db0:	ca26                	sw	s1,20(sp)
   18db2:	c84a                	sw	s2,16(sp)
   18db4:	ce06                	sw	ra,28(sp)
   18db6:	892a                	mv	s2,a0
   18db8:	84ae                	mv	s1,a1
   18dba:	8432                	mv	s0,a2
   18dbc:	c119                	beqz	a0,18dc2 <__swbuf_r+0x16>
   18dbe:	595c                	lw	a5,52(a0)
   18dc0:	c7e5                	beqz	a5,18ea8 <__swbuf_r+0xfc>
   18dc2:	4c1c                	lw	a5,24(s0)
   18dc4:	00c41703          	lh	a4,12(s0)
   18dc8:	c41c                	sw	a5,8(s0)
   18dca:	00877793          	and	a5,a4,8
   18dce:	cbb1                	beqz	a5,18e22 <__swbuf_r+0x76>
   18dd0:	481c                	lw	a5,16(s0)
   18dd2:	cba1                	beqz	a5,18e22 <__swbuf_r+0x76>
   18dd4:	c64e                	sw	s3,12(sp)
   18dd6:	01271693          	sll	a3,a4,0x12
   18dda:	0ff4f993          	zext.b	s3,s1
   18dde:	0ff4f493          	zext.b	s1,s1
   18de2:	0606d163          	bgez	a3,18e44 <__swbuf_r+0x98>
   18de6:	4018                	lw	a4,0(s0)
   18de8:	4854                	lw	a3,20(s0)
   18dea:	40f707b3          	sub	a5,a4,a5
   18dee:	06d7da63          	bge	a5,a3,18e62 <__swbuf_r+0xb6>
   18df2:	4414                	lw	a3,8(s0)
   18df4:	00170613          	add	a2,a4,1 # 100001 <__BSS_END__+0xe22b9>
   18df8:	c010                	sw	a2,0(s0)
   18dfa:	16fd                	add	a3,a3,-1
   18dfc:	c414                	sw	a3,8(s0)
   18dfe:	01370023          	sb	s3,0(a4)
   18e02:	4858                	lw	a4,20(s0)
   18e04:	0785                	add	a5,a5,1
   18e06:	08f70063          	beq	a4,a5,18e86 <__swbuf_r+0xda>
   18e0a:	00c45783          	lhu	a5,12(s0)
   18e0e:	8b85                	and	a5,a5,1
   18e10:	e3d9                	bnez	a5,18e96 <__swbuf_r+0xea>
   18e12:	49b2                	lw	s3,12(sp)
   18e14:	40f2                	lw	ra,28(sp)
   18e16:	4462                	lw	s0,24(sp)
   18e18:	4942                	lw	s2,16(sp)
   18e1a:	8526                	mv	a0,s1
   18e1c:	44d2                	lw	s1,20(sp)
   18e1e:	6105                	add	sp,sp,32
   18e20:	8082                	ret
   18e22:	85a2                	mv	a1,s0
   18e24:	854a                	mv	a0,s2
   18e26:	958fb0ef          	jal	13f7e <__swsetup_r>
   18e2a:	e525                	bnez	a0,18e92 <__swbuf_r+0xe6>
   18e2c:	00c41703          	lh	a4,12(s0)
   18e30:	c64e                	sw	s3,12(sp)
   18e32:	481c                	lw	a5,16(s0)
   18e34:	01271693          	sll	a3,a4,0x12
   18e38:	0ff4f993          	zext.b	s3,s1
   18e3c:	0ff4f493          	zext.b	s1,s1
   18e40:	fa06c3e3          	bltz	a3,18de6 <__swbuf_r+0x3a>
   18e44:	5074                	lw	a3,100(s0)
   18e46:	7679                	lui	a2,0xffffe
   18e48:	6589                	lui	a1,0x2
   18e4a:	8f4d                	or	a4,a4,a1
   18e4c:	167d                	add	a2,a2,-1 # ffffdfff <__BSS_END__+0xfffe02b7>
   18e4e:	8ef1                	and	a3,a3,a2
   18e50:	00e41623          	sh	a4,12(s0)
   18e54:	4018                	lw	a4,0(s0)
   18e56:	d074                	sw	a3,100(s0)
   18e58:	4854                	lw	a3,20(s0)
   18e5a:	40f707b3          	sub	a5,a4,a5
   18e5e:	f8d7cae3          	blt	a5,a3,18df2 <__swbuf_r+0x46>
   18e62:	85a2                	mv	a1,s0
   18e64:	854a                	mv	a0,s2
   18e66:	8effa0ef          	jal	13754 <_fflush_r>
   18e6a:	e11d                	bnez	a0,18e90 <__swbuf_r+0xe4>
   18e6c:	4018                	lw	a4,0(s0)
   18e6e:	4414                	lw	a3,8(s0)
   18e70:	4785                	li	a5,1
   18e72:	00170613          	add	a2,a4,1
   18e76:	16fd                	add	a3,a3,-1
   18e78:	c010                	sw	a2,0(s0)
   18e7a:	c414                	sw	a3,8(s0)
   18e7c:	01370023          	sb	s3,0(a4)
   18e80:	4858                	lw	a4,20(s0)
   18e82:	f8f714e3          	bne	a4,a5,18e0a <__swbuf_r+0x5e>
   18e86:	85a2                	mv	a1,s0
   18e88:	854a                	mv	a0,s2
   18e8a:	8cbfa0ef          	jal	13754 <_fflush_r>
   18e8e:	d151                	beqz	a0,18e12 <__swbuf_r+0x66>
   18e90:	49b2                	lw	s3,12(sp)
   18e92:	54fd                	li	s1,-1
   18e94:	b741                	j	18e14 <__swbuf_r+0x68>
   18e96:	47a9                	li	a5,10
   18e98:	f6f49de3          	bne	s1,a5,18e12 <__swbuf_r+0x66>
   18e9c:	85a2                	mv	a1,s0
   18e9e:	854a                	mv	a0,s2
   18ea0:	8b5fa0ef          	jal	13754 <_fflush_r>
   18ea4:	d53d                	beqz	a0,18e12 <__swbuf_r+0x66>
   18ea6:	b7ed                	j	18e90 <__swbuf_r+0xe4>
   18ea8:	c73fa0ef          	jal	13b1a <__sinit>
   18eac:	bf19                	j	18dc2 <__swbuf_r+0x16>

00018eae <__swbuf>:
   18eae:	862e                	mv	a2,a1
   18eb0:	85aa                	mv	a1,a0
   18eb2:	f2c1a503          	lw	a0,-212(gp) # 1d73c <_impure_ptr>
   18eb6:	ef7ff06f          	j	18dac <__swbuf_r>

00018eba <strcasecmp>:
   18eba:	86aa                	mv	a3,a0
   18ebc:	00003817          	auipc	a6,0x3
   18ec0:	5e980813          	add	a6,a6,1513 # 1c4a5 <_ctype_+0x1>
   18ec4:	4605                	li	a2,1
   18ec6:	0006c783          	lbu	a5,0(a3)
   18eca:	0585                	add	a1,a1,1 # 2001 <exit-0xe093>
   18ecc:	0685                	add	a3,a3,1
   18ece:	00f80733          	add	a4,a6,a5
   18ed2:	00074703          	lbu	a4,0(a4)
   18ed6:	8b0d                	and	a4,a4,3
   18ed8:	00c71463          	bne	a4,a2,18ee0 <strcasecmp+0x26>
   18edc:	02078793          	add	a5,a5,32
   18ee0:	fff5c503          	lbu	a0,-1(a1)
   18ee4:	00a80733          	add	a4,a6,a0
   18ee8:	00074703          	lbu	a4,0(a4)
   18eec:	40a788b3          	sub	a7,a5,a0
   18ef0:	8b0d                	and	a4,a4,3
   18ef2:	00c70663          	beq	a4,a2,18efe <strcasecmp+0x44>
   18ef6:	00a79b63          	bne	a5,a0,18f0c <strcasecmp+0x52>
   18efa:	f571                	bnez	a0,18ec6 <strcasecmp+0xc>
   18efc:	8082                	ret
   18efe:	02050713          	add	a4,a0,32
   18f02:	40e78533          	sub	a0,a5,a4
   18f06:	fce780e3          	beq	a5,a4,18ec6 <strcasecmp+0xc>
   18f0a:	8082                	ret
   18f0c:	8546                	mv	a0,a7
   18f0e:	8082                	ret

00018f10 <strcat>:
   18f10:	1141                	add	sp,sp,-16
   18f12:	c422                	sw	s0,8(sp)
   18f14:	c606                	sw	ra,12(sp)
   18f16:	00357793          	and	a5,a0,3
   18f1a:	842a                	mv	s0,a0
   18f1c:	eb95                	bnez	a5,18f50 <strcat+0x40>
   18f1e:	4118                	lw	a4,0(a0)
   18f20:	feff0637          	lui	a2,0xfeff0
   18f24:	eff60613          	add	a2,a2,-257 # fefefeff <__BSS_END__+0xfefd21b7>
   18f28:	00c707b3          	add	a5,a4,a2
   18f2c:	808086b7          	lui	a3,0x80808
   18f30:	fff74713          	not	a4,a4
   18f34:	8ff9                	and	a5,a5,a4
   18f36:	08068693          	add	a3,a3,128 # 80808080 <__BSS_END__+0x807ea338>
   18f3a:	8ff5                	and	a5,a5,a3
   18f3c:	eb91                	bnez	a5,18f50 <strcat+0x40>
   18f3e:	4158                	lw	a4,4(a0)
   18f40:	0511                	add	a0,a0,4
   18f42:	00c707b3          	add	a5,a4,a2
   18f46:	fff74713          	not	a4,a4
   18f4a:	8ff9                	and	a5,a5,a4
   18f4c:	8ff5                	and	a5,a5,a3
   18f4e:	dbe5                	beqz	a5,18f3e <strcat+0x2e>
   18f50:	00054783          	lbu	a5,0(a0)
   18f54:	c789                	beqz	a5,18f5e <strcat+0x4e>
   18f56:	00154783          	lbu	a5,1(a0)
   18f5a:	0505                	add	a0,a0,1
   18f5c:	ffed                	bnez	a5,18f56 <strcat+0x46>
   18f5e:	902fc0ef          	jal	15060 <strcpy>
   18f62:	40b2                	lw	ra,12(sp)
   18f64:	8522                	mv	a0,s0
   18f66:	4422                	lw	s0,8(sp)
   18f68:	0141                	add	sp,sp,16
   18f6a:	8082                	ret

00018f6c <strchr>:
   18f6c:	0ff5f693          	zext.b	a3,a1
   18f70:	00357793          	and	a5,a0,3
   18f74:	cad9                	beqz	a3,1900a <strchr+0x9e>
   18f76:	cb91                	beqz	a5,18f8a <strchr+0x1e>
   18f78:	00054783          	lbu	a5,0(a0)
   18f7c:	c7c9                	beqz	a5,19006 <strchr+0x9a>
   18f7e:	08d78563          	beq	a5,a3,19008 <strchr+0x9c>
   18f82:	0505                	add	a0,a0,1
   18f84:	00357793          	and	a5,a0,3
   18f88:	fbe5                	bnez	a5,18f78 <strchr+0xc>
   18f8a:	0ff5f593          	zext.b	a1,a1
   18f8e:	00859893          	sll	a7,a1,0x8
   18f92:	4118                	lw	a4,0(a0)
   18f94:	98ae                	add	a7,a7,a1
   18f96:	01089793          	sll	a5,a7,0x10
   18f9a:	98be                	add	a7,a7,a5
   18f9c:	feff0837          	lui	a6,0xfeff0
   18fa0:	00e8c633          	xor	a2,a7,a4
   18fa4:	eff80813          	add	a6,a6,-257 # fefefeff <__BSS_END__+0xfefd21b7>
   18fa8:	010707b3          	add	a5,a4,a6
   18fac:	010605b3          	add	a1,a2,a6
   18fb0:	fff74713          	not	a4,a4
   18fb4:	fff64613          	not	a2,a2
   18fb8:	8ff9                	and	a5,a5,a4
   18fba:	80808337          	lui	t1,0x80808
   18fbe:	00c5f733          	and	a4,a1,a2
   18fc2:	8fd9                	or	a5,a5,a4
   18fc4:	08030313          	add	t1,t1,128 # 80808080 <__BSS_END__+0x807ea338>
   18fc8:	0067f7b3          	and	a5,a5,t1
   18fcc:	e785                	bnez	a5,18ff4 <strchr+0x88>
   18fce:	4158                	lw	a4,4(a0)
   18fd0:	0511                	add	a0,a0,4
   18fd2:	01174633          	xor	a2,a4,a7
   18fd6:	010707b3          	add	a5,a4,a6
   18fda:	010605b3          	add	a1,a2,a6
   18fde:	fff74713          	not	a4,a4
   18fe2:	fff64613          	not	a2,a2
   18fe6:	8ff9                	and	a5,a5,a4
   18fe8:	00c5f733          	and	a4,a1,a2
   18fec:	8fd9                	or	a5,a5,a4
   18fee:	0067f7b3          	and	a5,a5,t1
   18ff2:	dff1                	beqz	a5,18fce <strchr+0x62>
   18ff4:	00054783          	lbu	a5,0(a0)
   18ff8:	c799                	beqz	a5,19006 <strchr+0x9a>
   18ffa:	06f68163          	beq	a3,a5,1905c <strchr+0xf0>
   18ffe:	00154783          	lbu	a5,1(a0)
   19002:	0505                	add	a0,a0,1
   19004:	fbfd                	bnez	a5,18ffa <strchr+0x8e>
   19006:	4501                	li	a0,0
   19008:	8082                	ret
   1900a:	cb81                	beqz	a5,1901a <strchr+0xae>
   1900c:	00054783          	lbu	a5,0(a0)
   19010:	dfe5                	beqz	a5,19008 <strchr+0x9c>
   19012:	0505                	add	a0,a0,1
   19014:	00357793          	and	a5,a0,3
   19018:	fbf5                	bnez	a5,1900c <strchr+0xa0>
   1901a:	4118                	lw	a4,0(a0)
   1901c:	feff0637          	lui	a2,0xfeff0
   19020:	eff60613          	add	a2,a2,-257 # fefefeff <__BSS_END__+0xfefd21b7>
   19024:	00c707b3          	add	a5,a4,a2
   19028:	808086b7          	lui	a3,0x80808
   1902c:	fff74713          	not	a4,a4
   19030:	8ff9                	and	a5,a5,a4
   19032:	08068693          	add	a3,a3,128 # 80808080 <__BSS_END__+0x807ea338>
   19036:	8ff5                	and	a5,a5,a3
   19038:	eb91                	bnez	a5,1904c <strchr+0xe0>
   1903a:	4158                	lw	a4,4(a0)
   1903c:	0511                	add	a0,a0,4
   1903e:	00c707b3          	add	a5,a4,a2
   19042:	fff74713          	not	a4,a4
   19046:	8ff9                	and	a5,a5,a4
   19048:	8ff5                	and	a5,a5,a3
   1904a:	dbe5                	beqz	a5,1903a <strchr+0xce>
   1904c:	00054783          	lbu	a5,0(a0)
   19050:	dfc5                	beqz	a5,19008 <strchr+0x9c>
   19052:	00154783          	lbu	a5,1(a0)
   19056:	0505                	add	a0,a0,1
   19058:	ffed                	bnez	a5,19052 <strchr+0xe6>
   1905a:	8082                	ret
   1905c:	8082                	ret

0001905e <strlcpy>:
   1905e:	87ae                	mv	a5,a1
   19060:	ea09                	bnez	a2,19072 <strlcpy+0x14>
   19062:	a821                	j	1907a <strlcpy+0x1c>
   19064:	0007c703          	lbu	a4,0(a5)
   19068:	0505                	add	a0,a0,1
   1906a:	0785                	add	a5,a5,1
   1906c:	fee50fa3          	sb	a4,-1(a0)
   19070:	cb09                	beqz	a4,19082 <strlcpy+0x24>
   19072:	167d                	add	a2,a2,-1
   19074:	fa65                	bnez	a2,19064 <strlcpy+0x6>
   19076:	00050023          	sb	zero,0(a0)
   1907a:	0007c703          	lbu	a4,0(a5)
   1907e:	0785                	add	a5,a5,1
   19080:	ff6d                	bnez	a4,1907a <strlcpy+0x1c>
   19082:	40b78533          	sub	a0,a5,a1
   19086:	157d                	add	a0,a0,-1
   19088:	8082                	ret

0001908a <strncasecmp>:
   1908a:	86aa                	mv	a3,a0
   1908c:	c621                	beqz	a2,190d4 <strncasecmp+0x4a>
   1908e:	962e                	add	a2,a2,a1
   19090:	00003897          	auipc	a7,0x3
   19094:	41588893          	add	a7,a7,1045 # 1c4a5 <_ctype_+0x1>
   19098:	4805                	li	a6,1
   1909a:	0006c783          	lbu	a5,0(a3)
   1909e:	0585                	add	a1,a1,1
   190a0:	0685                	add	a3,a3,1
   190a2:	00f88733          	add	a4,a7,a5
   190a6:	00074703          	lbu	a4,0(a4)
   190aa:	8b0d                	and	a4,a4,3
   190ac:	01071463          	bne	a4,a6,190b4 <strncasecmp+0x2a>
   190b0:	02078793          	add	a5,a5,32
   190b4:	fff5c503          	lbu	a0,-1(a1)
   190b8:	00a88733          	add	a4,a7,a0
   190bc:	00074703          	lbu	a4,0(a4)
   190c0:	40a78333          	sub	t1,a5,a0
   190c4:	8b0d                	and	a4,a4,3
   190c6:	01070b63          	beq	a4,a6,190dc <strncasecmp+0x52>
   190ca:	00a79763          	bne	a5,a0,190d8 <strncasecmp+0x4e>
   190ce:	c511                	beqz	a0,190da <strncasecmp+0x50>
   190d0:	fcc595e3          	bne	a1,a2,1909a <strncasecmp+0x10>
   190d4:	4501                	li	a0,0
   190d6:	8082                	ret
   190d8:	851a                	mv	a0,t1
   190da:	8082                	ret
   190dc:	02050713          	add	a4,a0,32
   190e0:	40e78533          	sub	a0,a5,a4
   190e4:	fee786e3          	beq	a5,a4,190d0 <strncasecmp+0x46>
   190e8:	8082                	ret

000190ea <strncmp>:
   190ea:	ce15                	beqz	a2,19126 <strncmp+0x3c>
   190ec:	00b567b3          	or	a5,a0,a1
   190f0:	8b8d                	and	a5,a5,3
   190f2:	cf85                	beqz	a5,1912a <strncmp+0x40>
   190f4:	00054703          	lbu	a4,0(a0)
   190f8:	0005c683          	lbu	a3,0(a1)
   190fc:	06d71e63          	bne	a4,a3,19178 <strncmp+0x8e>
   19100:	4785                	li	a5,1
   19102:	02f60263          	beq	a2,a5,19126 <strncmp+0x3c>
   19106:	882a                	mv	a6,a0
   19108:	a801                	j	19118 <strncmp+0x2e>
   1910a:	00054703          	lbu	a4,0(a0)
   1910e:	0005c683          	lbu	a3,0(a1)
   19112:	06d71363          	bne	a4,a3,19178 <strncmp+0x8e>
   19116:	cb81                	beqz	a5,19126 <strncmp+0x3c>
   19118:	0505                	add	a0,a0,1
   1911a:	40a607b3          	sub	a5,a2,a0
   1911e:	17fd                	add	a5,a5,-1
   19120:	0585                	add	a1,a1,1
   19122:	97c2                	add	a5,a5,a6
   19124:	f37d                	bnez	a4,1910a <strncmp+0x20>
   19126:	4501                	li	a0,0
   19128:	8082                	ret
   1912a:	feff0337          	lui	t1,0xfeff0
   1912e:	808088b7          	lui	a7,0x80808
   19132:	478d                	li	a5,3
   19134:	eff30313          	add	t1,t1,-257 # fefefeff <__BSS_END__+0xfefd21b7>
   19138:	08088893          	add	a7,a7,128 # 80808080 <__BSS_END__+0x807ea338>
   1913c:	4e0d                	li	t3,3
   1913e:	00c7ea63          	bltu	a5,a2,19152 <strncmp+0x68>
   19142:	bf4d                	j	190f4 <strncmp+0xa>
   19144:	1671                	add	a2,a2,-4
   19146:	d265                	beqz	a2,19126 <strncmp+0x3c>
   19148:	fff9                	bnez	a5,19126 <strncmp+0x3c>
   1914a:	0511                	add	a0,a0,4
   1914c:	0591                	add	a1,a1,4
   1914e:	face73e3          	bgeu	t3,a2,190f4 <strncmp+0xa>
   19152:	4118                	lw	a4,0(a0)
   19154:	4194                	lw	a3,0(a1)
   19156:	006707b3          	add	a5,a4,t1
   1915a:	fff74813          	not	a6,a4
   1915e:	0107f7b3          	and	a5,a5,a6
   19162:	0117f7b3          	and	a5,a5,a7
   19166:	fcd70fe3          	beq	a4,a3,19144 <strncmp+0x5a>
   1916a:	00054703          	lbu	a4,0(a0)
   1916e:	0005c683          	lbu	a3,0(a1)
   19172:	882a                	mv	a6,a0
   19174:	fad702e3          	beq	a4,a3,19118 <strncmp+0x2e>
   19178:	40d70533          	sub	a0,a4,a3
   1917c:	8082                	ret

0001917e <_close_r>:
   1917e:	1141                	add	sp,sp,-16
   19180:	c422                	sw	s0,8(sp)
   19182:	842a                	mv	s0,a0
   19184:	852e                	mv	a0,a1
   19186:	f601ae23          	sw	zero,-132(gp) # 1d78c <errno>
   1918a:	c606                	sw	ra,12(sp)
   1918c:	7de000ef          	jal	1996a <_close>
   19190:	57fd                	li	a5,-1
   19192:	00f50663          	beq	a0,a5,1919e <_close_r+0x20>
   19196:	40b2                	lw	ra,12(sp)
   19198:	4422                	lw	s0,8(sp)
   1919a:	0141                	add	sp,sp,16
   1919c:	8082                	ret
   1919e:	f7c1a783          	lw	a5,-132(gp) # 1d78c <errno>
   191a2:	dbf5                	beqz	a5,19196 <_close_r+0x18>
   191a4:	40b2                	lw	ra,12(sp)
   191a6:	c01c                	sw	a5,0(s0)
   191a8:	4422                	lw	s0,8(sp)
   191aa:	0141                	add	sp,sp,16
   191ac:	8082                	ret

000191ae <_reclaim_reent>:
   191ae:	f2c1a783          	lw	a5,-212(gp) # 1d73c <_impure_ptr>
   191b2:	06a78763          	beq	a5,a0,19220 <_reclaim_reent+0x72>
   191b6:	416c                	lw	a1,68(a0)
   191b8:	1101                	add	sp,sp,-32
   191ba:	ca26                	sw	s1,20(sp)
   191bc:	ce06                	sw	ra,28(sp)
   191be:	84aa                	mv	s1,a0
   191c0:	c99d                	beqz	a1,191f6 <_reclaim_reent+0x48>
   191c2:	c84a                	sw	s2,16(sp)
   191c4:	c64e                	sw	s3,12(sp)
   191c6:	cc22                	sw	s0,24(sp)
   191c8:	4901                	li	s2,0
   191ca:	08000993          	li	s3,128
   191ce:	012587b3          	add	a5,a1,s2
   191d2:	4380                	lw	s0,0(a5)
   191d4:	c801                	beqz	s0,191e4 <_reclaim_reent+0x36>
   191d6:	85a2                	mv	a1,s0
   191d8:	4000                	lw	s0,0(s0)
   191da:	8526                	mv	a0,s1
   191dc:	ceafd0ef          	jal	166c6 <_free_r>
   191e0:	f87d                	bnez	s0,191d6 <_reclaim_reent+0x28>
   191e2:	40ec                	lw	a1,68(s1)
   191e4:	0911                	add	s2,s2,4
   191e6:	ff3914e3          	bne	s2,s3,191ce <_reclaim_reent+0x20>
   191ea:	8526                	mv	a0,s1
   191ec:	cdafd0ef          	jal	166c6 <_free_r>
   191f0:	4462                	lw	s0,24(sp)
   191f2:	4942                	lw	s2,16(sp)
   191f4:	49b2                	lw	s3,12(sp)
   191f6:	5c8c                	lw	a1,56(s1)
   191f8:	c581                	beqz	a1,19200 <_reclaim_reent+0x52>
   191fa:	8526                	mv	a0,s1
   191fc:	ccafd0ef          	jal	166c6 <_free_r>
   19200:	44ec                	lw	a1,76(s1)
   19202:	c581                	beqz	a1,1920a <_reclaim_reent+0x5c>
   19204:	8526                	mv	a0,s1
   19206:	cc0fd0ef          	jal	166c6 <_free_r>
   1920a:	58dc                	lw	a5,52(s1)
   1920c:	c791                	beqz	a5,19218 <_reclaim_reent+0x6a>
   1920e:	40f2                	lw	ra,28(sp)
   19210:	8526                	mv	a0,s1
   19212:	44d2                	lw	s1,20(sp)
   19214:	6105                	add	sp,sp,32
   19216:	8782                	jr	a5
   19218:	40f2                	lw	ra,28(sp)
   1921a:	44d2                	lw	s1,20(sp)
   1921c:	6105                	add	sp,sp,32
   1921e:	8082                	ret
   19220:	8082                	ret

00019222 <_fstat_r>:
   19222:	1141                	add	sp,sp,-16
   19224:	872e                	mv	a4,a1
   19226:	c422                	sw	s0,8(sp)
   19228:	85b2                	mv	a1,a2
   1922a:	842a                	mv	s0,a0
   1922c:	853a                	mv	a0,a4
   1922e:	f601ae23          	sw	zero,-132(gp) # 1d78c <errno>
   19232:	c606                	sw	ra,12(sp)
   19234:	784000ef          	jal	199b8 <_fstat>
   19238:	57fd                	li	a5,-1
   1923a:	00f50663          	beq	a0,a5,19246 <_fstat_r+0x24>
   1923e:	40b2                	lw	ra,12(sp)
   19240:	4422                	lw	s0,8(sp)
   19242:	0141                	add	sp,sp,16
   19244:	8082                	ret
   19246:	f7c1a783          	lw	a5,-132(gp) # 1d78c <errno>
   1924a:	dbf5                	beqz	a5,1923e <_fstat_r+0x1c>
   1924c:	40b2                	lw	ra,12(sp)
   1924e:	c01c                	sw	a5,0(s0)
   19250:	4422                	lw	s0,8(sp)
   19252:	0141                	add	sp,sp,16
   19254:	8082                	ret

00019256 <_isatty_r>:
   19256:	1141                	add	sp,sp,-16
   19258:	c422                	sw	s0,8(sp)
   1925a:	842a                	mv	s0,a0
   1925c:	852e                	mv	a0,a1
   1925e:	f601ae23          	sw	zero,-132(gp) # 1d78c <errno>
   19262:	c606                	sw	ra,12(sp)
   19264:	792000ef          	jal	199f6 <_isatty>
   19268:	57fd                	li	a5,-1
   1926a:	00f50663          	beq	a0,a5,19276 <_isatty_r+0x20>
   1926e:	40b2                	lw	ra,12(sp)
   19270:	4422                	lw	s0,8(sp)
   19272:	0141                	add	sp,sp,16
   19274:	8082                	ret
   19276:	f7c1a783          	lw	a5,-132(gp) # 1d78c <errno>
   1927a:	dbf5                	beqz	a5,1926e <_isatty_r+0x18>
   1927c:	40b2                	lw	ra,12(sp)
   1927e:	c01c                	sw	a5,0(s0)
   19280:	4422                	lw	s0,8(sp)
   19282:	0141                	add	sp,sp,16
   19284:	8082                	ret

00019286 <_lseek_r>:
   19286:	1141                	add	sp,sp,-16
   19288:	872e                	mv	a4,a1
   1928a:	c422                	sw	s0,8(sp)
   1928c:	85b2                	mv	a1,a2
   1928e:	842a                	mv	s0,a0
   19290:	8636                	mv	a2,a3
   19292:	853a                	mv	a0,a4
   19294:	f601ae23          	sw	zero,-132(gp) # 1d78c <errno>
   19298:	c606                	sw	ra,12(sp)
   1929a:	794000ef          	jal	19a2e <_lseek>
   1929e:	57fd                	li	a5,-1
   192a0:	00f50663          	beq	a0,a5,192ac <_lseek_r+0x26>
   192a4:	40b2                	lw	ra,12(sp)
   192a6:	4422                	lw	s0,8(sp)
   192a8:	0141                	add	sp,sp,16
   192aa:	8082                	ret
   192ac:	f7c1a783          	lw	a5,-132(gp) # 1d78c <errno>
   192b0:	dbf5                	beqz	a5,192a4 <_lseek_r+0x1e>
   192b2:	40b2                	lw	ra,12(sp)
   192b4:	c01c                	sw	a5,0(s0)
   192b6:	4422                	lw	s0,8(sp)
   192b8:	0141                	add	sp,sp,16
   192ba:	8082                	ret

000192bc <_read_r>:
   192bc:	1141                	add	sp,sp,-16
   192be:	872e                	mv	a4,a1
   192c0:	c422                	sw	s0,8(sp)
   192c2:	85b2                	mv	a1,a2
   192c4:	842a                	mv	s0,a0
   192c6:	8636                	mv	a2,a3
   192c8:	853a                	mv	a0,a4
   192ca:	f601ae23          	sw	zero,-132(gp) # 1d78c <errno>
   192ce:	c606                	sw	ra,12(sp)
   192d0:	78a000ef          	jal	19a5a <_read>
   192d4:	57fd                	li	a5,-1
   192d6:	00f50663          	beq	a0,a5,192e2 <_read_r+0x26>
   192da:	40b2                	lw	ra,12(sp)
   192dc:	4422                	lw	s0,8(sp)
   192de:	0141                	add	sp,sp,16
   192e0:	8082                	ret
   192e2:	f7c1a783          	lw	a5,-132(gp) # 1d78c <errno>
   192e6:	dbf5                	beqz	a5,192da <_read_r+0x1e>
   192e8:	40b2                	lw	ra,12(sp)
   192ea:	c01c                	sw	a5,0(s0)
   192ec:	4422                	lw	s0,8(sp)
   192ee:	0141                	add	sp,sp,16
   192f0:	8082                	ret

000192f2 <_sbrk_r>:
   192f2:	1141                	add	sp,sp,-16
   192f4:	c422                	sw	s0,8(sp)
   192f6:	842a                	mv	s0,a0
   192f8:	852e                	mv	a0,a1
   192fa:	f601ae23          	sw	zero,-132(gp) # 1d78c <errno>
   192fe:	c606                	sw	ra,12(sp)
   19300:	786000ef          	jal	19a86 <_sbrk>
   19304:	57fd                	li	a5,-1
   19306:	00f50663          	beq	a0,a5,19312 <_sbrk_r+0x20>
   1930a:	40b2                	lw	ra,12(sp)
   1930c:	4422                	lw	s0,8(sp)
   1930e:	0141                	add	sp,sp,16
   19310:	8082                	ret
   19312:	f7c1a783          	lw	a5,-132(gp) # 1d78c <errno>
   19316:	dbf5                	beqz	a5,1930a <_sbrk_r+0x18>
   19318:	40b2                	lw	ra,12(sp)
   1931a:	c01c                	sw	a5,0(s0)
   1931c:	4422                	lw	s0,8(sp)
   1931e:	0141                	add	sp,sp,16
   19320:	8082                	ret

00019322 <_write_r>:
   19322:	1141                	add	sp,sp,-16
   19324:	872e                	mv	a4,a1
   19326:	c422                	sw	s0,8(sp)
   19328:	85b2                	mv	a1,a2
   1932a:	842a                	mv	s0,a0
   1932c:	8636                	mv	a2,a3
   1932e:	853a                	mv	a0,a4
   19330:	f601ae23          	sw	zero,-132(gp) # 1d78c <errno>
   19334:	c606                	sw	ra,12(sp)
   19336:	7a0000ef          	jal	19ad6 <_write>
   1933a:	57fd                	li	a5,-1
   1933c:	00f50663          	beq	a0,a5,19348 <_write_r+0x26>
   19340:	40b2                	lw	ra,12(sp)
   19342:	4422                	lw	s0,8(sp)
   19344:	0141                	add	sp,sp,16
   19346:	8082                	ret
   19348:	f7c1a783          	lw	a5,-132(gp) # 1d78c <errno>
   1934c:	dbf5                	beqz	a5,19340 <_write_r+0x1e>
   1934e:	40b2                	lw	ra,12(sp)
   19350:	c01c                	sw	a5,0(s0)
   19352:	4422                	lw	s0,8(sp)
   19354:	0141                	add	sp,sp,16
   19356:	8082                	ret

00019358 <__errno>:
   19358:	f2c1a503          	lw	a0,-212(gp) # 1d73c <_impure_ptr>
   1935c:	8082                	ret

0001935e <_wcsnrtombs_l>:
   1935e:	711d                	add	sp,sp,-96
   19360:	caa6                	sw	s1,84(sp)
   19362:	c8ca                	sw	s2,80(sp)
   19364:	c6ce                	sw	s3,76(sp)
   19366:	c4d2                	sw	s4,72(sp)
   19368:	c2d6                	sw	s5,68(sp)
   1936a:	ce86                	sw	ra,92(sp)
   1936c:	da66                	sw	s9,52(sp)
   1936e:	d86a                	sw	s10,48(sp)
   19370:	c62a                	sw	a0,12(sp)
   19372:	8a2e                	mv	s4,a1
   19374:	8ab2                	mv	s5,a2
   19376:	893a                	mv	s2,a4
   19378:	89c2                	mv	s3,a6
   1937a:	84be                	mv	s1,a5
   1937c:	c7e9                	beqz	a5,19446 <_wcsnrtombs_l+0xe8>
   1937e:	000aac83          	lw	s9,0(s5)
   19382:	0c0a0863          	beqz	s4,19452 <_wcsnrtombs_l+0xf4>
   19386:	0e090963          	beqz	s2,19478 <_wcsnrtombs_l+0x11a>
   1938a:	c0da                	sw	s6,64(sp)
   1938c:	fff68b13          	add	s6,a3,-1
   19390:	cae5                	beqz	a3,19480 <_wcsnrtombs_l+0x122>
   19392:	cca2                	sw	s0,88(sp)
   19394:	d66e                	sw	s11,44(sp)
   19396:	de5e                	sw	s7,60(sp)
   19398:	dc62                	sw	s8,56(sp)
   1939a:	8452                	mv	s0,s4
   1939c:	4d01                	li	s10,0
   1939e:	5dfd                	li	s11,-1
   193a0:	a829                	j	193ba <_wcsnrtombs_l+0x5c>
   193a2:	060a1263          	bnez	s4,19406 <_wcsnrtombs_l+0xa8>
   193a6:	000ca783          	lw	a5,0(s9)
   193aa:	0c91                	add	s9,s9,4
   193ac:	c7c1                	beqz	a5,19434 <_wcsnrtombs_l+0xd6>
   193ae:	0d26f763          	bgeu	a3,s2,1947c <_wcsnrtombs_l+0x11e>
   193b2:	1b7d                	add	s6,s6,-1
   193b4:	8d36                	mv	s10,a3
   193b6:	03bb0863          	beq	s6,s11,193e6 <_wcsnrtombs_l+0x88>
   193ba:	0e09a783          	lw	a5,224(s3)
   193be:	000ca603          	lw	a2,0(s9)
   193c2:	4532                	lw	a0,12(sp)
   193c4:	86a6                	mv	a3,s1
   193c6:	084c                	add	a1,sp,20
   193c8:	0004ac03          	lw	s8,0(s1)
   193cc:	0044ab83          	lw	s7,4(s1)
   193d0:	9782                	jalr	a5
   193d2:	09b50363          	beq	a0,s11,19458 <_wcsnrtombs_l+0xfa>
   193d6:	01a506b3          	add	a3,a0,s10
   193da:	fcd974e3          	bgeu	s2,a3,193a2 <_wcsnrtombs_l+0x44>
   193de:	0184a023          	sw	s8,0(s1)
   193e2:	0174a223          	sw	s7,4(s1)
   193e6:	4466                	lw	s0,88(sp)
   193e8:	4b06                	lw	s6,64(sp)
   193ea:	5bf2                	lw	s7,60(sp)
   193ec:	5c62                	lw	s8,56(sp)
   193ee:	5db2                	lw	s11,44(sp)
   193f0:	40f6                	lw	ra,92(sp)
   193f2:	44d6                	lw	s1,84(sp)
   193f4:	4946                	lw	s2,80(sp)
   193f6:	49b6                	lw	s3,76(sp)
   193f8:	4a26                	lw	s4,72(sp)
   193fa:	4a96                	lw	s5,68(sp)
   193fc:	5cd2                	lw	s9,52(sp)
   193fe:	856a                	mv	a0,s10
   19400:	5d42                	lw	s10,48(sp)
   19402:	6125                	add	sp,sp,96
   19404:	8082                	ret
   19406:	06a05163          	blez	a0,19468 <_wcsnrtombs_l+0x10a>
   1940a:	01410893          	add	a7,sp,20
   1940e:	9522                	add	a0,a0,s0
   19410:	0008c783          	lbu	a5,0(a7)
   19414:	0405                	add	s0,s0,1
   19416:	0885                	add	a7,a7,1
   19418:	fef40fa3          	sb	a5,-1(s0)
   1941c:	fe851ae3          	bne	a0,s0,19410 <_wcsnrtombs_l+0xb2>
   19420:	000aa783          	lw	a5,0(s5)
   19424:	842a                	mv	s0,a0
   19426:	0791                	add	a5,a5,4
   19428:	00faa023          	sw	a5,0(s5)
   1942c:	000ca783          	lw	a5,0(s9)
   19430:	0c91                	add	s9,s9,4
   19432:	ffb5                	bnez	a5,193ae <_wcsnrtombs_l+0x50>
   19434:	000a0463          	beqz	s4,1943c <_wcsnrtombs_l+0xde>
   19438:	000aa023          	sw	zero,0(s5)
   1943c:	0004a023          	sw	zero,0(s1)
   19440:	fff68d13          	add	s10,a3,-1
   19444:	b74d                	j	193e6 <_wcsnrtombs_l+0x88>
   19446:	000aac83          	lw	s9,0(s5)
   1944a:	10c50493          	add	s1,a0,268
   1944e:	f20a1ce3          	bnez	s4,19386 <_wcsnrtombs_l+0x28>
   19452:	c0da                	sw	s6,64(sp)
   19454:	597d                	li	s2,-1
   19456:	bf1d                	j	1938c <_wcsnrtombs_l+0x2e>
   19458:	4732                	lw	a4,12(sp)
   1945a:	08a00793          	li	a5,138
   1945e:	5d7d                	li	s10,-1
   19460:	c31c                	sw	a5,0(a4)
   19462:	0004a023          	sw	zero,0(s1)
   19466:	b741                	j	193e6 <_wcsnrtombs_l+0x88>
   19468:	000aa783          	lw	a5,0(s5)
   1946c:	8522                	mv	a0,s0
   1946e:	842a                	mv	s0,a0
   19470:	0791                	add	a5,a5,4
   19472:	00faa023          	sw	a5,0(s5)
   19476:	bf5d                	j	1942c <_wcsnrtombs_l+0xce>
   19478:	4d01                	li	s10,0
   1947a:	bf9d                	j	193f0 <_wcsnrtombs_l+0x92>
   1947c:	8d36                	mv	s10,a3
   1947e:	b7a5                	j	193e6 <_wcsnrtombs_l+0x88>
   19480:	4b06                	lw	s6,64(sp)
   19482:	4d01                	li	s10,0
   19484:	b7b5                	j	193f0 <_wcsnrtombs_l+0x92>

00019486 <_wcsnrtombs_r>:
   19486:	00004817          	auipc	a6,0x4
   1948a:	b9680813          	add	a6,a6,-1130 # 1d01c <__global_locale>
   1948e:	f2c1a503          	lw	a0,-212(gp) # 1d73c <_impure_ptr>
   19492:	ecdff06f          	j	1935e <_wcsnrtombs_l>

00019496 <wcsnrtombs>:
   19496:	87ba                	mv	a5,a4
   19498:	00004817          	auipc	a6,0x4
   1949c:	b8480813          	add	a6,a6,-1148 # 1d01c <__global_locale>
   194a0:	8736                	mv	a4,a3
   194a2:	86b2                	mv	a3,a2
   194a4:	862e                	mv	a2,a1
   194a6:	85aa                	mv	a1,a0
   194a8:	f2c1a503          	lw	a0,-212(gp) # 1d73c <_impure_ptr>
   194ac:	eb3ff06f          	j	1935e <_wcsnrtombs_l>

000194b0 <__assert_func>:
   194b0:	1141                	add	sp,sp,-16
   194b2:	87b6                	mv	a5,a3
   194b4:	f2c1a703          	lw	a4,-212(gp) # 1d73c <_impure_ptr>
   194b8:	8832                	mv	a6,a2
   194ba:	c606                	sw	ra,12(sp)
   194bc:	00c72883          	lw	a7,12(a4)
   194c0:	863e                	mv	a2,a5
   194c2:	86aa                	mv	a3,a0
   194c4:	872e                	mv	a4,a1
   194c6:	00003797          	auipc	a5,0x3
   194ca:	99278793          	add	a5,a5,-1646 # 1be58 <__clzsi2+0x378>
   194ce:	00080963          	beqz	a6,194e0 <__assert_func+0x30>
   194d2:	00003597          	auipc	a1,0x3
   194d6:	99658593          	add	a1,a1,-1642 # 1be68 <__clzsi2+0x388>
   194da:	8546                	mv	a0,a7
   194dc:	28d5                	jal	195d0 <fiprintf>
   194de:	2a31                	jal	195fa <abort>
   194e0:	00003797          	auipc	a5,0x3
   194e4:	98478793          	add	a5,a5,-1660 # 1be64 <__clzsi2+0x384>
   194e8:	883e                	mv	a6,a5
   194ea:	b7e5                	j	194d2 <__assert_func+0x22>

000194ec <__assert>:
   194ec:	1141                	add	sp,sp,-16
   194ee:	86b2                	mv	a3,a2
   194f0:	4601                	li	a2,0
   194f2:	c606                	sw	ra,12(sp)
   194f4:	fbdff0ef          	jal	194b0 <__assert_func>

000194f8 <_calloc_r>:
   194f8:	02c5b7b3          	mulhu	a5,a1,a2
   194fc:	1141                	add	sp,sp,-16
   194fe:	c606                	sw	ra,12(sp)
   19500:	c422                	sw	s0,8(sp)
   19502:	02c585b3          	mul	a1,a1,a2
   19506:	efa5                	bnez	a5,1957e <_calloc_r+0x86>
   19508:	cb8fd0ef          	jal	169c0 <_malloc_r>
   1950c:	842a                	mv	s0,a0
   1950e:	cd25                	beqz	a0,19586 <_calloc_r+0x8e>
   19510:	ffc52603          	lw	a2,-4(a0)
   19514:	02400713          	li	a4,36
   19518:	9a71                	and	a2,a2,-4
   1951a:	1671                	add	a2,a2,-4
   1951c:	04c76063          	bltu	a4,a2,1955c <_calloc_r+0x64>
   19520:	46cd                	li	a3,19
   19522:	87aa                	mv	a5,a0
   19524:	02c6f163          	bgeu	a3,a2,19546 <_calloc_r+0x4e>
   19528:	00052023          	sw	zero,0(a0)
   1952c:	00052223          	sw	zero,4(a0)
   19530:	47ed                	li	a5,27
   19532:	02c7fd63          	bgeu	a5,a2,1956c <_calloc_r+0x74>
   19536:	00052423          	sw	zero,8(a0)
   1953a:	00052623          	sw	zero,12(a0)
   1953e:	01050793          	add	a5,a0,16
   19542:	04e60863          	beq	a2,a4,19592 <_calloc_r+0x9a>
   19546:	0007a023          	sw	zero,0(a5)
   1954a:	0007a223          	sw	zero,4(a5)
   1954e:	0007a423          	sw	zero,8(a5)
   19552:	40b2                	lw	ra,12(sp)
   19554:	8522                	mv	a0,s0
   19556:	4422                	lw	s0,8(sp)
   19558:	0141                	add	sp,sp,16
   1955a:	8082                	ret
   1955c:	4581                	li	a1,0
   1955e:	8b1fb0ef          	jal	14e0e <memset>
   19562:	40b2                	lw	ra,12(sp)
   19564:	8522                	mv	a0,s0
   19566:	4422                	lw	s0,8(sp)
   19568:	0141                	add	sp,sp,16
   1956a:	8082                	ret
   1956c:	00850793          	add	a5,a0,8
   19570:	0007a023          	sw	zero,0(a5)
   19574:	0007a223          	sw	zero,4(a5)
   19578:	0007a423          	sw	zero,8(a5)
   1957c:	bfd9                	j	19552 <_calloc_r+0x5a>
   1957e:	ddbff0ef          	jal	19358 <__errno>
   19582:	47b1                	li	a5,12
   19584:	c11c                	sw	a5,0(a0)
   19586:	4401                	li	s0,0
   19588:	40b2                	lw	ra,12(sp)
   1958a:	8522                	mv	a0,s0
   1958c:	4422                	lw	s0,8(sp)
   1958e:	0141                	add	sp,sp,16
   19590:	8082                	ret
   19592:	00052823          	sw	zero,16(a0)
   19596:	01850793          	add	a5,a0,24
   1959a:	00052a23          	sw	zero,20(a0)
   1959e:	b765                	j	19546 <_calloc_r+0x4e>

000195a0 <__env_lock>:
   195a0:	f5818513          	add	a0,gp,-168 # 1d768 <__lock___env_recursive_mutex>
   195a4:	cfffb06f          	j	152a2 <__retarget_lock_acquire_recursive>

000195a8 <__env_unlock>:
   195a8:	f5818513          	add	a0,gp,-168 # 1d768 <__lock___env_recursive_mutex>
   195ac:	d03fb06f          	j	152ae <__retarget_lock_release_recursive>

000195b0 <_fiprintf_r>:
   195b0:	7139                	add	sp,sp,-64
   195b2:	02c10313          	add	t1,sp,44
   195b6:	d636                	sw	a3,44(sp)
   195b8:	869a                	mv	a3,t1
   195ba:	ce06                	sw	ra,28(sp)
   195bc:	d83a                	sw	a4,48(sp)
   195be:	da3e                	sw	a5,52(sp)
   195c0:	dc42                	sw	a6,56(sp)
   195c2:	de46                	sw	a7,60(sp)
   195c4:	c61a                	sw	t1,12(sp)
   195c6:	e5bf80ef          	jal	12420 <_vfiprintf_r>
   195ca:	40f2                	lw	ra,28(sp)
   195cc:	6121                	add	sp,sp,64
   195ce:	8082                	ret

000195d0 <fiprintf>:
   195d0:	7139                	add	sp,sp,-64
   195d2:	02810313          	add	t1,sp,40
   195d6:	d432                	sw	a2,40(sp)
   195d8:	d636                	sw	a3,44(sp)
   195da:	862e                	mv	a2,a1
   195dc:	869a                	mv	a3,t1
   195de:	85aa                	mv	a1,a0
   195e0:	f2c1a503          	lw	a0,-212(gp) # 1d73c <_impure_ptr>
   195e4:	ce06                	sw	ra,28(sp)
   195e6:	d83a                	sw	a4,48(sp)
   195e8:	da3e                	sw	a5,52(sp)
   195ea:	dc42                	sw	a6,56(sp)
   195ec:	de46                	sw	a7,60(sp)
   195ee:	c61a                	sw	t1,12(sp)
   195f0:	e31f80ef          	jal	12420 <_vfiprintf_r>
   195f4:	40f2                	lw	ra,28(sp)
   195f6:	6121                	add	sp,sp,64
   195f8:	8082                	ret

000195fa <abort>:
   195fa:	1141                	add	sp,sp,-16
   195fc:	4519                	li	a0,6
   195fe:	c606                	sw	ra,12(sp)
   19600:	2a59                	jal	19796 <raise>
   19602:	4505                	li	a0,1
   19604:	2e49                	jal	19996 <_exit>

00019606 <_init_signal_r>:
   19606:	11852783          	lw	a5,280(a0)
   1960a:	c399                	beqz	a5,19610 <_init_signal_r+0xa>
   1960c:	4501                	li	a0,0
   1960e:	8082                	ret
   19610:	1141                	add	sp,sp,-16
   19612:	08000593          	li	a1,128
   19616:	c422                	sw	s0,8(sp)
   19618:	c606                	sw	ra,12(sp)
   1961a:	842a                	mv	s0,a0
   1961c:	ba4fd0ef          	jal	169c0 <_malloc_r>
   19620:	10a42c23          	sw	a0,280(s0)
   19624:	cd09                	beqz	a0,1963e <_init_signal_r+0x38>
   19626:	08050793          	add	a5,a0,128
   1962a:	00052023          	sw	zero,0(a0)
   1962e:	0511                	add	a0,a0,4
   19630:	fef51de3          	bne	a0,a5,1962a <_init_signal_r+0x24>
   19634:	4501                	li	a0,0
   19636:	40b2                	lw	ra,12(sp)
   19638:	4422                	lw	s0,8(sp)
   1963a:	0141                	add	sp,sp,16
   1963c:	8082                	ret
   1963e:	557d                	li	a0,-1
   19640:	bfdd                	j	19636 <_init_signal_r+0x30>

00019642 <_signal_r>:
   19642:	1101                	add	sp,sp,-32
   19644:	ca26                	sw	s1,20(sp)
   19646:	ce06                	sw	ra,28(sp)
   19648:	47fd                	li	a5,31
   1964a:	84aa                	mv	s1,a0
   1964c:	02b7e063          	bltu	a5,a1,1966c <_signal_r+0x2a>
   19650:	11852783          	lw	a5,280(a0)
   19654:	cc22                	sw	s0,24(sp)
   19656:	842e                	mv	s0,a1
   19658:	cf91                	beqz	a5,19674 <_signal_r+0x32>
   1965a:	040a                	sll	s0,s0,0x2
   1965c:	97a2                	add	a5,a5,s0
   1965e:	4462                	lw	s0,24(sp)
   19660:	4388                	lw	a0,0(a5)
   19662:	c390                	sw	a2,0(a5)
   19664:	40f2                	lw	ra,28(sp)
   19666:	44d2                	lw	s1,20(sp)
   19668:	6105                	add	sp,sp,32
   1966a:	8082                	ret
   1966c:	47d9                	li	a5,22
   1966e:	c11c                	sw	a5,0(a0)
   19670:	557d                	li	a0,-1
   19672:	bfcd                	j	19664 <_signal_r+0x22>
   19674:	08000593          	li	a1,128
   19678:	c632                	sw	a2,12(sp)
   1967a:	b46fd0ef          	jal	169c0 <_malloc_r>
   1967e:	10a4ac23          	sw	a0,280(s1)
   19682:	4632                	lw	a2,12(sp)
   19684:	87aa                	mv	a5,a0
   19686:	872a                	mv	a4,a0
   19688:	08050693          	add	a3,a0,128
   1968c:	c519                	beqz	a0,1969a <_signal_r+0x58>
   1968e:	00072023          	sw	zero,0(a4)
   19692:	0711                	add	a4,a4,4
   19694:	fed71de3          	bne	a4,a3,1968e <_signal_r+0x4c>
   19698:	b7c9                	j	1965a <_signal_r+0x18>
   1969a:	4462                	lw	s0,24(sp)
   1969c:	557d                	li	a0,-1
   1969e:	b7d9                	j	19664 <_signal_r+0x22>

000196a0 <_raise_r>:
   196a0:	1141                	add	sp,sp,-16
   196a2:	c226                	sw	s1,4(sp)
   196a4:	c606                	sw	ra,12(sp)
   196a6:	47fd                	li	a5,31
   196a8:	84aa                	mv	s1,a0
   196aa:	04b7ee63          	bltu	a5,a1,19706 <_raise_r+0x66>
   196ae:	11852783          	lw	a5,280(a0)
   196b2:	c422                	sw	s0,8(sp)
   196b4:	842e                	mv	s0,a1
   196b6:	c795                	beqz	a5,196e2 <_raise_r+0x42>
   196b8:	00259713          	sll	a4,a1,0x2
   196bc:	97ba                	add	a5,a5,a4
   196be:	4398                	lw	a4,0(a5)
   196c0:	c30d                	beqz	a4,196e2 <_raise_r+0x42>
   196c2:	4685                	li	a3,1
   196c4:	00d70963          	beq	a4,a3,196d6 <_raise_r+0x36>
   196c8:	56fd                	li	a3,-1
   196ca:	02d70663          	beq	a4,a3,196f6 <_raise_r+0x56>
   196ce:	0007a023          	sw	zero,0(a5)
   196d2:	852e                	mv	a0,a1
   196d4:	9702                	jalr	a4
   196d6:	4422                	lw	s0,8(sp)
   196d8:	4501                	li	a0,0
   196da:	40b2                	lw	ra,12(sp)
   196dc:	4492                	lw	s1,4(sp)
   196de:	0141                	add	sp,sp,16
   196e0:	8082                	ret
   196e2:	8526                	mv	a0,s1
   196e4:	2451                	jal	19968 <_getpid_r>
   196e6:	8622                	mv	a2,s0
   196e8:	4422                	lw	s0,8(sp)
   196ea:	40b2                	lw	ra,12(sp)
   196ec:	85aa                	mv	a1,a0
   196ee:	8526                	mv	a0,s1
   196f0:	4492                	lw	s1,4(sp)
   196f2:	0141                	add	sp,sp,16
   196f4:	a489                	j	19936 <_kill_r>
   196f6:	4422                	lw	s0,8(sp)
   196f8:	40b2                	lw	ra,12(sp)
   196fa:	47d9                	li	a5,22
   196fc:	c11c                	sw	a5,0(a0)
   196fe:	4492                	lw	s1,4(sp)
   19700:	4505                	li	a0,1
   19702:	0141                	add	sp,sp,16
   19704:	8082                	ret
   19706:	47d9                	li	a5,22
   19708:	c11c                	sw	a5,0(a0)
   1970a:	557d                	li	a0,-1
   1970c:	b7f9                	j	196da <_raise_r+0x3a>

0001970e <__sigtramp_r>:
   1970e:	47fd                	li	a5,31
   19710:	08b7e163          	bltu	a5,a1,19792 <__sigtramp_r+0x84>
   19714:	11852783          	lw	a5,280(a0)
   19718:	1141                	add	sp,sp,-16
   1971a:	c422                	sw	s0,8(sp)
   1971c:	c226                	sw	s1,4(sp)
   1971e:	c606                	sw	ra,12(sp)
   19720:	842e                	mv	s0,a1
   19722:	84aa                	mv	s1,a0
   19724:	c7a1                	beqz	a5,1976c <__sigtramp_r+0x5e>
   19726:	00241713          	sll	a4,s0,0x2
   1972a:	97ba                	add	a5,a5,a4
   1972c:	4398                	lw	a4,0(a5)
   1972e:	c30d                	beqz	a4,19750 <__sigtramp_r+0x42>
   19730:	56fd                	li	a3,-1
   19732:	02d70b63          	beq	a4,a3,19768 <__sigtramp_r+0x5a>
   19736:	4685                	li	a3,1
   19738:	02d70263          	beq	a4,a3,1975c <__sigtramp_r+0x4e>
   1973c:	8522                	mv	a0,s0
   1973e:	0007a023          	sw	zero,0(a5)
   19742:	9702                	jalr	a4
   19744:	4501                	li	a0,0
   19746:	40b2                	lw	ra,12(sp)
   19748:	4422                	lw	s0,8(sp)
   1974a:	4492                	lw	s1,4(sp)
   1974c:	0141                	add	sp,sp,16
   1974e:	8082                	ret
   19750:	40b2                	lw	ra,12(sp)
   19752:	4422                	lw	s0,8(sp)
   19754:	4492                	lw	s1,4(sp)
   19756:	4505                	li	a0,1
   19758:	0141                	add	sp,sp,16
   1975a:	8082                	ret
   1975c:	40b2                	lw	ra,12(sp)
   1975e:	4422                	lw	s0,8(sp)
   19760:	4492                	lw	s1,4(sp)
   19762:	450d                	li	a0,3
   19764:	0141                	add	sp,sp,16
   19766:	8082                	ret
   19768:	4509                	li	a0,2
   1976a:	bff1                	j	19746 <__sigtramp_r+0x38>
   1976c:	08000593          	li	a1,128
   19770:	a50fd0ef          	jal	169c0 <_malloc_r>
   19774:	10a4ac23          	sw	a0,280(s1)
   19778:	87aa                	mv	a5,a0
   1977a:	c911                	beqz	a0,1978e <__sigtramp_r+0x80>
   1977c:	872a                	mv	a4,a0
   1977e:	08050693          	add	a3,a0,128
   19782:	00072023          	sw	zero,0(a4)
   19786:	0711                	add	a4,a4,4
   19788:	fed71de3          	bne	a4,a3,19782 <__sigtramp_r+0x74>
   1978c:	bf69                	j	19726 <__sigtramp_r+0x18>
   1978e:	557d                	li	a0,-1
   19790:	bf5d                	j	19746 <__sigtramp_r+0x38>
   19792:	557d                	li	a0,-1
   19794:	8082                	ret

00019796 <raise>:
   19796:	1141                	add	sp,sp,-16
   19798:	c226                	sw	s1,4(sp)
   1979a:	c606                	sw	ra,12(sp)
   1979c:	47fd                	li	a5,31
   1979e:	f2c1a483          	lw	s1,-212(gp) # 1d73c <_impure_ptr>
   197a2:	04a7ed63          	bltu	a5,a0,197fc <raise+0x66>
   197a6:	1184a783          	lw	a5,280(s1)
   197aa:	c422                	sw	s0,8(sp)
   197ac:	842a                	mv	s0,a0
   197ae:	c78d                	beqz	a5,197d8 <raise+0x42>
   197b0:	00251713          	sll	a4,a0,0x2
   197b4:	97ba                	add	a5,a5,a4
   197b6:	4398                	lw	a4,0(a5)
   197b8:	c305                	beqz	a4,197d8 <raise+0x42>
   197ba:	4685                	li	a3,1
   197bc:	00d70863          	beq	a4,a3,197cc <raise+0x36>
   197c0:	56fd                	li	a3,-1
   197c2:	02d70563          	beq	a4,a3,197ec <raise+0x56>
   197c6:	0007a023          	sw	zero,0(a5)
   197ca:	9702                	jalr	a4
   197cc:	4422                	lw	s0,8(sp)
   197ce:	4501                	li	a0,0
   197d0:	40b2                	lw	ra,12(sp)
   197d2:	4492                	lw	s1,4(sp)
   197d4:	0141                	add	sp,sp,16
   197d6:	8082                	ret
   197d8:	8526                	mv	a0,s1
   197da:	2279                	jal	19968 <_getpid_r>
   197dc:	8622                	mv	a2,s0
   197de:	4422                	lw	s0,8(sp)
   197e0:	40b2                	lw	ra,12(sp)
   197e2:	85aa                	mv	a1,a0
   197e4:	8526                	mv	a0,s1
   197e6:	4492                	lw	s1,4(sp)
   197e8:	0141                	add	sp,sp,16
   197ea:	a2b1                	j	19936 <_kill_r>
   197ec:	4422                	lw	s0,8(sp)
   197ee:	40b2                	lw	ra,12(sp)
   197f0:	47d9                	li	a5,22
   197f2:	c09c                	sw	a5,0(s1)
   197f4:	4505                	li	a0,1
   197f6:	4492                	lw	s1,4(sp)
   197f8:	0141                	add	sp,sp,16
   197fa:	8082                	ret
   197fc:	47d9                	li	a5,22
   197fe:	c09c                	sw	a5,0(s1)
   19800:	557d                	li	a0,-1
   19802:	b7f9                	j	197d0 <raise+0x3a>

00019804 <signal>:
   19804:	1141                	add	sp,sp,-16
   19806:	c04a                	sw	s2,0(sp)
   19808:	c606                	sw	ra,12(sp)
   1980a:	47fd                	li	a5,31
   1980c:	f2c1a903          	lw	s2,-212(gp) # 1d73c <_impure_ptr>
   19810:	02a7e463          	bltu	a5,a0,19838 <signal+0x34>
   19814:	c422                	sw	s0,8(sp)
   19816:	842a                	mv	s0,a0
   19818:	11892503          	lw	a0,280(s2)
   1981c:	c226                	sw	s1,4(sp)
   1981e:	84ae                	mv	s1,a1
   19820:	c10d                	beqz	a0,19842 <signal+0x3e>
   19822:	040a                	sll	s0,s0,0x2
   19824:	008507b3          	add	a5,a0,s0
   19828:	4388                	lw	a0,0(a5)
   1982a:	4422                	lw	s0,8(sp)
   1982c:	c384                	sw	s1,0(a5)
   1982e:	4492                	lw	s1,4(sp)
   19830:	40b2                	lw	ra,12(sp)
   19832:	4902                	lw	s2,0(sp)
   19834:	0141                	add	sp,sp,16
   19836:	8082                	ret
   19838:	47d9                	li	a5,22
   1983a:	00f92023          	sw	a5,0(s2)
   1983e:	557d                	li	a0,-1
   19840:	bfc5                	j	19830 <signal+0x2c>
   19842:	08000593          	li	a1,128
   19846:	854a                	mv	a0,s2
   19848:	978fd0ef          	jal	169c0 <_malloc_r>
   1984c:	10a92c23          	sw	a0,280(s2)
   19850:	87aa                	mv	a5,a0
   19852:	08050713          	add	a4,a0,128
   19856:	c519                	beqz	a0,19864 <signal+0x60>
   19858:	0007a023          	sw	zero,0(a5)
   1985c:	0791                	add	a5,a5,4
   1985e:	fef71de3          	bne	a4,a5,19858 <signal+0x54>
   19862:	b7c1                	j	19822 <signal+0x1e>
   19864:	4422                	lw	s0,8(sp)
   19866:	4492                	lw	s1,4(sp)
   19868:	557d                	li	a0,-1
   1986a:	b7d9                	j	19830 <signal+0x2c>

0001986c <_init_signal>:
   1986c:	1141                	add	sp,sp,-16
   1986e:	c422                	sw	s0,8(sp)
   19870:	f2c1a403          	lw	s0,-212(gp) # 1d73c <_impure_ptr>
   19874:	11842783          	lw	a5,280(s0)
   19878:	c606                	sw	ra,12(sp)
   1987a:	c791                	beqz	a5,19886 <_init_signal+0x1a>
   1987c:	4501                	li	a0,0
   1987e:	40b2                	lw	ra,12(sp)
   19880:	4422                	lw	s0,8(sp)
   19882:	0141                	add	sp,sp,16
   19884:	8082                	ret
   19886:	08000593          	li	a1,128
   1988a:	8522                	mv	a0,s0
   1988c:	934fd0ef          	jal	169c0 <_malloc_r>
   19890:	10a42c23          	sw	a0,280(s0)
   19894:	c909                	beqz	a0,198a6 <_init_signal+0x3a>
   19896:	08050793          	add	a5,a0,128
   1989a:	00052023          	sw	zero,0(a0)
   1989e:	0511                	add	a0,a0,4
   198a0:	fef51de3          	bne	a0,a5,1989a <_init_signal+0x2e>
   198a4:	bfe1                	j	1987c <_init_signal+0x10>
   198a6:	557d                	li	a0,-1
   198a8:	bfd9                	j	1987e <_init_signal+0x12>

000198aa <__sigtramp>:
   198aa:	1141                	add	sp,sp,-16
   198ac:	c226                	sw	s1,4(sp)
   198ae:	c606                	sw	ra,12(sp)
   198b0:	47fd                	li	a5,31
   198b2:	f2c1a483          	lw	s1,-212(gp) # 1d73c <_impure_ptr>
   198b6:	06a7ee63          	bltu	a5,a0,19932 <__sigtramp+0x88>
   198ba:	1184a783          	lw	a5,280(s1)
   198be:	c422                	sw	s0,8(sp)
   198c0:	842a                	mv	s0,a0
   198c2:	c7a9                	beqz	a5,1990c <__sigtramp+0x62>
   198c4:	00241713          	sll	a4,s0,0x2
   198c8:	97ba                	add	a5,a5,a4
   198ca:	4398                	lw	a4,0(a5)
   198cc:	c30d                	beqz	a4,198ee <__sigtramp+0x44>
   198ce:	56fd                	li	a3,-1
   198d0:	02d70b63          	beq	a4,a3,19906 <__sigtramp+0x5c>
   198d4:	4685                	li	a3,1
   198d6:	02d70263          	beq	a4,a3,198fa <__sigtramp+0x50>
   198da:	8522                	mv	a0,s0
   198dc:	0007a023          	sw	zero,0(a5)
   198e0:	9702                	jalr	a4
   198e2:	4422                	lw	s0,8(sp)
   198e4:	4501                	li	a0,0
   198e6:	40b2                	lw	ra,12(sp)
   198e8:	4492                	lw	s1,4(sp)
   198ea:	0141                	add	sp,sp,16
   198ec:	8082                	ret
   198ee:	4422                	lw	s0,8(sp)
   198f0:	40b2                	lw	ra,12(sp)
   198f2:	4492                	lw	s1,4(sp)
   198f4:	4505                	li	a0,1
   198f6:	0141                	add	sp,sp,16
   198f8:	8082                	ret
   198fa:	4422                	lw	s0,8(sp)
   198fc:	40b2                	lw	ra,12(sp)
   198fe:	4492                	lw	s1,4(sp)
   19900:	450d                	li	a0,3
   19902:	0141                	add	sp,sp,16
   19904:	8082                	ret
   19906:	4422                	lw	s0,8(sp)
   19908:	4509                	li	a0,2
   1990a:	bff1                	j	198e6 <__sigtramp+0x3c>
   1990c:	08000593          	li	a1,128
   19910:	8526                	mv	a0,s1
   19912:	8aefd0ef          	jal	169c0 <_malloc_r>
   19916:	10a4ac23          	sw	a0,280(s1)
   1991a:	87aa                	mv	a5,a0
   1991c:	c911                	beqz	a0,19930 <__sigtramp+0x86>
   1991e:	872a                	mv	a4,a0
   19920:	08050693          	add	a3,a0,128
   19924:	00072023          	sw	zero,0(a4)
   19928:	0711                	add	a4,a4,4
   1992a:	fee69de3          	bne	a3,a4,19924 <__sigtramp+0x7a>
   1992e:	bf59                	j	198c4 <__sigtramp+0x1a>
   19930:	4422                	lw	s0,8(sp)
   19932:	557d                	li	a0,-1
   19934:	bf4d                	j	198e6 <__sigtramp+0x3c>

00019936 <_kill_r>:
   19936:	1141                	add	sp,sp,-16
   19938:	872e                	mv	a4,a1
   1993a:	c422                	sw	s0,8(sp)
   1993c:	85b2                	mv	a1,a2
   1993e:	842a                	mv	s0,a0
   19940:	853a                	mv	a0,a4
   19942:	f601ae23          	sw	zero,-132(gp) # 1d78c <errno>
   19946:	c606                	sw	ra,12(sp)
   19948:	28c9                	jal	19a1a <_kill>
   1994a:	57fd                	li	a5,-1
   1994c:	00f50663          	beq	a0,a5,19958 <_kill_r+0x22>
   19950:	40b2                	lw	ra,12(sp)
   19952:	4422                	lw	s0,8(sp)
   19954:	0141                	add	sp,sp,16
   19956:	8082                	ret
   19958:	f7c1a783          	lw	a5,-132(gp) # 1d78c <errno>
   1995c:	dbf5                	beqz	a5,19950 <_kill_r+0x1a>
   1995e:	40b2                	lw	ra,12(sp)
   19960:	c01c                	sw	a5,0(s0)
   19962:	4422                	lw	s0,8(sp)
   19964:	0141                	add	sp,sp,16
   19966:	8082                	ret

00019968 <_getpid_r>:
   19968:	a069                	j	199f2 <_getpid>

0001996a <_close>:
   1996a:	1141                	add	sp,sp,-16
   1996c:	c606                	sw	ra,12(sp)
   1996e:	c422                	sw	s0,8(sp)
   19970:	03900893          	li	a7,57
   19974:	00000073          	ecall
   19978:	842a                	mv	s0,a0
   1997a:	00054763          	bltz	a0,19988 <_close+0x1e>
   1997e:	40b2                	lw	ra,12(sp)
   19980:	8522                	mv	a0,s0
   19982:	4422                	lw	s0,8(sp)
   19984:	0141                	add	sp,sp,16
   19986:	8082                	ret
   19988:	40800433          	neg	s0,s0
   1998c:	9cdff0ef          	jal	19358 <__errno>
   19990:	c100                	sw	s0,0(a0)
   19992:	547d                	li	s0,-1
   19994:	b7ed                	j	1997e <_close+0x14>

00019996 <_exit>:
   19996:	05d00893          	li	a7,93
   1999a:	00000073          	ecall
   1999e:	00054363          	bltz	a0,199a4 <_exit+0xe>
   199a2:	a001                	j	199a2 <_exit+0xc>
   199a4:	1141                	add	sp,sp,-16
   199a6:	c422                	sw	s0,8(sp)
   199a8:	842a                	mv	s0,a0
   199aa:	c606                	sw	ra,12(sp)
   199ac:	40800433          	neg	s0,s0
   199b0:	9a9ff0ef          	jal	19358 <__errno>
   199b4:	c100                	sw	s0,0(a0)
   199b6:	a001                	j	199b6 <_exit+0x20>

000199b8 <_fstat>:
   199b8:	7175                	add	sp,sp,-144
   199ba:	c326                	sw	s1,132(sp)
   199bc:	c706                	sw	ra,140(sp)
   199be:	84ae                	mv	s1,a1
   199c0:	c522                	sw	s0,136(sp)
   199c2:	05000893          	li	a7,80
   199c6:	858a                	mv	a1,sp
   199c8:	00000073          	ecall
   199cc:	842a                	mv	s0,a0
   199ce:	00054b63          	bltz	a0,199e4 <_fstat+0x2c>
   199d2:	8526                	mv	a0,s1
   199d4:	858a                	mv	a1,sp
   199d6:	2235                	jal	19b02 <_conv_stat>
   199d8:	40ba                	lw	ra,140(sp)
   199da:	8522                	mv	a0,s0
   199dc:	442a                	lw	s0,136(sp)
   199de:	449a                	lw	s1,132(sp)
   199e0:	6149                	add	sp,sp,144
   199e2:	8082                	ret
   199e4:	40800433          	neg	s0,s0
   199e8:	971ff0ef          	jal	19358 <__errno>
   199ec:	c100                	sw	s0,0(a0)
   199ee:	547d                	li	s0,-1
   199f0:	b7cd                	j	199d2 <_fstat+0x1a>

000199f2 <_getpid>:
   199f2:	4505                	li	a0,1
   199f4:	8082                	ret

000199f6 <_isatty>:
   199f6:	7159                	add	sp,sp,-112
   199f8:	002c                	add	a1,sp,8
   199fa:	d686                	sw	ra,108(sp)
   199fc:	fbdff0ef          	jal	199b8 <_fstat>
   19a00:	57fd                	li	a5,-1
   19a02:	00f50863          	beq	a0,a5,19a12 <_isatty+0x1c>
   19a06:	4532                	lw	a0,12(sp)
   19a08:	50b6                	lw	ra,108(sp)
   19a0a:	8135                	srl	a0,a0,0xd
   19a0c:	8905                	and	a0,a0,1
   19a0e:	6165                	add	sp,sp,112
   19a10:	8082                	ret
   19a12:	50b6                	lw	ra,108(sp)
   19a14:	4501                	li	a0,0
   19a16:	6165                	add	sp,sp,112
   19a18:	8082                	ret

00019a1a <_kill>:
   19a1a:	1141                	add	sp,sp,-16
   19a1c:	c606                	sw	ra,12(sp)
   19a1e:	93bff0ef          	jal	19358 <__errno>
   19a22:	40b2                	lw	ra,12(sp)
   19a24:	47d9                	li	a5,22
   19a26:	c11c                	sw	a5,0(a0)
   19a28:	557d                	li	a0,-1
   19a2a:	0141                	add	sp,sp,16
   19a2c:	8082                	ret

00019a2e <_lseek>:
   19a2e:	1141                	add	sp,sp,-16
   19a30:	c606                	sw	ra,12(sp)
   19a32:	c422                	sw	s0,8(sp)
   19a34:	03e00893          	li	a7,62
   19a38:	00000073          	ecall
   19a3c:	842a                	mv	s0,a0
   19a3e:	00054763          	bltz	a0,19a4c <_lseek+0x1e>
   19a42:	40b2                	lw	ra,12(sp)
   19a44:	8522                	mv	a0,s0
   19a46:	4422                	lw	s0,8(sp)
   19a48:	0141                	add	sp,sp,16
   19a4a:	8082                	ret
   19a4c:	40800433          	neg	s0,s0
   19a50:	909ff0ef          	jal	19358 <__errno>
   19a54:	c100                	sw	s0,0(a0)
   19a56:	547d                	li	s0,-1
   19a58:	b7ed                	j	19a42 <_lseek+0x14>

00019a5a <_read>:
   19a5a:	1141                	add	sp,sp,-16
   19a5c:	c606                	sw	ra,12(sp)
   19a5e:	c422                	sw	s0,8(sp)
   19a60:	03f00893          	li	a7,63
   19a64:	00000073          	ecall
   19a68:	842a                	mv	s0,a0
   19a6a:	00054763          	bltz	a0,19a78 <_read+0x1e>
   19a6e:	40b2                	lw	ra,12(sp)
   19a70:	8522                	mv	a0,s0
   19a72:	4422                	lw	s0,8(sp)
   19a74:	0141                	add	sp,sp,16
   19a76:	8082                	ret
   19a78:	40800433          	neg	s0,s0
   19a7c:	8ddff0ef          	jal	19358 <__errno>
   19a80:	c100                	sw	s0,0(a0)
   19a82:	547d                	li	s0,-1
   19a84:	b7ed                	j	19a6e <_read+0x14>

00019a86 <_sbrk>:
   19a86:	f8418693          	add	a3,gp,-124 # 1d794 <heap_end.0>
   19a8a:	4298                	lw	a4,0(a3)
   19a8c:	1141                	add	sp,sp,-16
   19a8e:	c606                	sw	ra,12(sp)
   19a90:	87aa                	mv	a5,a0
   19a92:	eb19                	bnez	a4,19aa8 <_sbrk+0x22>
   19a94:	0d600893          	li	a7,214
   19a98:	4501                	li	a0,0
   19a9a:	00000073          	ecall
   19a9e:	567d                	li	a2,-1
   19aa0:	872a                	mv	a4,a0
   19aa2:	02c50263          	beq	a0,a2,19ac6 <_sbrk+0x40>
   19aa6:	c288                	sw	a0,0(a3)
   19aa8:	0d600893          	li	a7,214
   19aac:	00e78533          	add	a0,a5,a4
   19ab0:	00000073          	ecall
   19ab4:	4298                	lw	a4,0(a3)
   19ab6:	97ba                	add	a5,a5,a4
   19ab8:	00f51763          	bne	a0,a5,19ac6 <_sbrk+0x40>
   19abc:	40b2                	lw	ra,12(sp)
   19abe:	c288                	sw	a0,0(a3)
   19ac0:	853a                	mv	a0,a4
   19ac2:	0141                	add	sp,sp,16
   19ac4:	8082                	ret
   19ac6:	893ff0ef          	jal	19358 <__errno>
   19aca:	40b2                	lw	ra,12(sp)
   19acc:	47b1                	li	a5,12
   19ace:	c11c                	sw	a5,0(a0)
   19ad0:	557d                	li	a0,-1
   19ad2:	0141                	add	sp,sp,16
   19ad4:	8082                	ret

00019ad6 <_write>:
   19ad6:	1141                	add	sp,sp,-16
   19ad8:	c606                	sw	ra,12(sp)
   19ada:	c422                	sw	s0,8(sp)
   19adc:	04000893          	li	a7,64
   19ae0:	00000073          	ecall
   19ae4:	842a                	mv	s0,a0
   19ae6:	00054763          	bltz	a0,19af4 <_write+0x1e>
   19aea:	40b2                	lw	ra,12(sp)
   19aec:	8522                	mv	a0,s0
   19aee:	4422                	lw	s0,8(sp)
   19af0:	0141                	add	sp,sp,16
   19af2:	8082                	ret
   19af4:	40800433          	neg	s0,s0
   19af8:	861ff0ef          	jal	19358 <__errno>
   19afc:	c100                	sw	s0,0(a0)
   19afe:	547d                	li	s0,-1
   19b00:	b7ed                	j	19aea <_write+0x14>

00019b02 <_conv_stat>:
   19b02:	0185d703          	lhu	a4,24(a1)
   19b06:	0145d783          	lhu	a5,20(a1)
   19b0a:	1141                	add	sp,sp,-16
   19b0c:	01c5a283          	lw	t0,28(a1)
   19b10:	0205af83          	lw	t6,32(a1)
   19b14:	0305af03          	lw	t5,48(a1)
   19b18:	0405ae83          	lw	t4,64(a1)
   19b1c:	0385ae03          	lw	t3,56(a1)
   19b20:	0485a303          	lw	t1,72(a1)
   19b24:	04c5a383          	lw	t2,76(a1)
   19b28:	0585a803          	lw	a6,88(a1)
   19b2c:	05c5a883          	lw	a7,92(a1)
   19b30:	c622                	sw	s0,12(sp)
   19b32:	c426                	sw	s1,8(sp)
   19b34:	4980                	lw	s0,16(a1)
   19b36:	4584                	lw	s1,8(a1)
   19b38:	c24a                	sw	s2,4(sp)
   19b3a:	0005a903          	lw	s2,0(a1)
   19b3e:	55b0                	lw	a2,104(a1)
   19b40:	0742                	sll	a4,a4,0x10
   19b42:	8fd9                	or	a5,a5,a4
   19b44:	55f4                	lw	a3,108(a1)
   19b46:	01251023          	sh	s2,0(a0)
   19b4a:	00951123          	sh	s1,2(a0)
   19b4e:	c140                	sw	s0,4(a0)
   19b50:	c51c                	sw	a5,8(a0)
   19b52:	00551623          	sh	t0,12(a0)
   19b56:	01f51723          	sh	t6,14(a0)
   19b5a:	01e52823          	sw	t5,16(a0)
   19b5e:	05d52623          	sw	t4,76(a0)
   19b62:	05c52423          	sw	t3,72(a0)
   19b66:	00652c23          	sw	t1,24(a0)
   19b6a:	00752e23          	sw	t2,28(a0)
   19b6e:	03052423          	sw	a6,40(a0)
   19b72:	03152623          	sw	a7,44(a0)
   19b76:	dd10                	sw	a2,56(a0)
   19b78:	4432                	lw	s0,12(sp)
   19b7a:	dd54                	sw	a3,60(a0)
   19b7c:	44a2                	lw	s1,8(sp)
   19b7e:	4912                	lw	s2,4(sp)
   19b80:	0141                	add	sp,sp,16
   19b82:	8082                	ret

00019b84 <__adddf3>:
   19b84:	001007b7          	lui	a5,0x100
   19b88:	1101                	add	sp,sp,-32
   19b8a:	fff78e93          	add	t4,a5,-1 # fffff <__BSS_END__+0xe22b7>
   19b8e:	00bef833          	and	a6,t4,a1
   19b92:	00def7b3          	and	a5,t4,a3
   19b96:	0146d313          	srl	t1,a3,0x14
   19b9a:	c84a                	sw	s2,16(sp)
   19b9c:	0145d913          	srl	s2,a1,0x14
   19ba0:	078e                	sll	a5,a5,0x3
   19ba2:	cc22                	sw	s0,24(sp)
   19ba4:	080e                	sll	a6,a6,0x3
   19ba6:	01f5d413          	srl	s0,a1,0x1f
   19baa:	01d55713          	srl	a4,a0,0x1d
   19bae:	01d65893          	srl	a7,a2,0x1d
   19bb2:	7ff97913          	and	s2,s2,2047
   19bb6:	7ff37313          	and	t1,t1,2047
   19bba:	ce06                	sw	ra,28(sp)
   19bbc:	ca26                	sw	s1,20(sp)
   19bbe:	c64e                	sw	s3,12(sp)
   19bc0:	82fd                	srl	a3,a3,0x1f
   19bc2:	00f8e8b3          	or	a7,a7,a5
   19bc6:	01076733          	or	a4,a4,a6
   19bca:	00351593          	sll	a1,a0,0x3
   19bce:	00361f13          	sll	t5,a2,0x3
   19bd2:	406907b3          	sub	a5,s2,t1
   19bd6:	18d40c63          	beq	s0,a3,19d6e <__adddf3+0x1ea>
   19bda:	12f05363          	blez	a5,19d00 <__adddf3+0x17c>
   19bde:	22030263          	beqz	t1,19e02 <__adddf3+0x27e>
   19be2:	7ff00693          	li	a3,2047
   19be6:	38d90163          	beq	s2,a3,19f68 <__adddf3+0x3e4>
   19bea:	03800693          	li	a3,56
   19bee:	4605                	li	a2,1
   19bf0:	02f6ca63          	blt	a3,a5,19c24 <__adddf3+0xa0>
   19bf4:	008006b7          	lui	a3,0x800
   19bf8:	00d8e8b3          	or	a7,a7,a3
   19bfc:	46fd                	li	a3,31
   19bfe:	44f6ce63          	blt	a3,a5,1a05a <__adddf3+0x4d6>
   19c02:	02000693          	li	a3,32
   19c06:	8e9d                	sub	a3,a3,a5
   19c08:	00d89633          	sll	a2,a7,a3
   19c0c:	00ff5533          	srl	a0,t5,a5
   19c10:	00df16b3          	sll	a3,t5,a3
   19c14:	8e49                	or	a2,a2,a0
   19c16:	00d036b3          	snez	a3,a3
   19c1a:	00f8d8b3          	srl	a7,a7,a5
   19c1e:	8e55                	or	a2,a2,a3
   19c20:	41170733          	sub	a4,a4,a7
   19c24:	40c58633          	sub	a2,a1,a2
   19c28:	00c5b5b3          	sltu	a1,a1,a2
   19c2c:	84b2                	mv	s1,a2
   19c2e:	40b709b3          	sub	s3,a4,a1
   19c32:	00899793          	sll	a5,s3,0x8
   19c36:	2a07db63          	bgez	a5,19eec <__adddf3+0x368>
   19c3a:	008007b7          	lui	a5,0x800
   19c3e:	17fd                	add	a5,a5,-1 # 7fffff <__BSS_END__+0x7e22b7>
   19c40:	00f9f9b3          	and	s3,s3,a5
   19c44:	24098f63          	beqz	s3,19ea2 <__adddf3+0x31e>
   19c48:	854e                	mv	a0,s3
   19c4a:	697010ef          	jal	1bae0 <__clzsi2>
   19c4e:	ff850793          	add	a5,a0,-8
   19c52:	02000693          	li	a3,32
   19c56:	40f68733          	sub	a4,a3,a5
   19c5a:	00e4d733          	srl	a4,s1,a4
   19c5e:	00f999b3          	sll	s3,s3,a5
   19c62:	01376733          	or	a4,a4,s3
   19c66:	00f494b3          	sll	s1,s1,a5
   19c6a:	3f27c063          	blt	a5,s2,1a04a <__adddf3+0x4c6>
   19c6e:	412787b3          	sub	a5,a5,s2
   19c72:	0785                	add	a5,a5,1
   19c74:	8e9d                	sub	a3,a3,a5
   19c76:	00d49633          	sll	a2,s1,a3
   19c7a:	00f4d9b3          	srl	s3,s1,a5
   19c7e:	00c03633          	snez	a2,a2
   19c82:	01366633          	or	a2,a2,s3
   19c86:	00d716b3          	sll	a3,a4,a3
   19c8a:	00c6e4b3          	or	s1,a3,a2
   19c8e:	00f759b3          	srl	s3,a4,a5
   19c92:	4901                	li	s2,0
   19c94:	0074f793          	and	a5,s1,7
   19c98:	cf81                	beqz	a5,19cb0 <__adddf3+0x12c>
   19c9a:	00f4f793          	and	a5,s1,15
   19c9e:	4711                	li	a4,4
   19ca0:	00e78863          	beq	a5,a4,19cb0 <__adddf3+0x12c>
   19ca4:	00448793          	add	a5,s1,4
   19ca8:	0097b633          	sltu	a2,a5,s1
   19cac:	99b2                	add	s3,s3,a2
   19cae:	84be                	mv	s1,a5
   19cb0:	00899793          	sll	a5,s3,0x8
   19cb4:	5807dd63          	bgez	a5,1a24e <__adddf3+0x6ca>
   19cb8:	00190793          	add	a5,s2,1
   19cbc:	7ff00713          	li	a4,2047
   19cc0:	8e22                	mv	t3,s0
   19cc2:	22e78e63          	beq	a5,a4,19efe <__adddf3+0x37a>
   19cc6:	ff800737          	lui	a4,0xff800
   19cca:	177d                	add	a4,a4,-1 # ff7fffff <__BSS_END__+0xff7e22b7>
   19ccc:	00e9f733          	and	a4,s3,a4
   19cd0:	7ff7f793          	and	a5,a5,2047
   19cd4:	01d71813          	sll	a6,a4,0x1d
   19cd8:	0034d613          	srl	a2,s1,0x3
   19cdc:	0726                	sll	a4,a4,0x9
   19cde:	00c86833          	or	a6,a6,a2
   19ce2:	8331                	srl	a4,a4,0xc
   19ce4:	40f2                	lw	ra,28(sp)
   19ce6:	4462                	lw	s0,24(sp)
   19ce8:	07d2                	sll	a5,a5,0x14
   19cea:	8fd9                	or	a5,a5,a4
   19cec:	01fe1713          	sll	a4,t3,0x1f
   19cf0:	8fd9                	or	a5,a5,a4
   19cf2:	44d2                	lw	s1,20(sp)
   19cf4:	4942                	lw	s2,16(sp)
   19cf6:	49b2                	lw	s3,12(sp)
   19cf8:	8542                	mv	a0,a6
   19cfa:	85be                	mv	a1,a5
   19cfc:	6105                	add	sp,sp,32
   19cfe:	8082                	ret
   19d00:	12078463          	beqz	a5,19e28 <__adddf3+0x2a4>
   19d04:	412307b3          	sub	a5,t1,s2
   19d08:	32091463          	bnez	s2,1a030 <__adddf3+0x4ac>
   19d0c:	00b76533          	or	a0,a4,a1
   19d10:	3e050c63          	beqz	a0,1a108 <__adddf3+0x584>
   19d14:	fff78513          	add	a0,a5,-1
   19d18:	4e050263          	beqz	a0,1a1fc <__adddf3+0x678>
   19d1c:	7ff00813          	li	a6,2047
   19d20:	47078963          	beq	a5,a6,1a192 <__adddf3+0x60e>
   19d24:	03800793          	li	a5,56
   19d28:	4605                	li	a2,1
   19d2a:	02a7c863          	blt	a5,a0,19d5a <__adddf3+0x1d6>
   19d2e:	87aa                	mv	a5,a0
   19d30:	467d                	li	a2,31
   19d32:	46f64963          	blt	a2,a5,1a1a4 <__adddf3+0x620>
   19d36:	02000513          	li	a0,32
   19d3a:	8d1d                	sub	a0,a0,a5
   19d3c:	00a71633          	sll	a2,a4,a0
   19d40:	00f5d833          	srl	a6,a1,a5
   19d44:	00a59533          	sll	a0,a1,a0
   19d48:	01066633          	or	a2,a2,a6
   19d4c:	00a03533          	snez	a0,a0
   19d50:	00f75733          	srl	a4,a4,a5
   19d54:	8e49                	or	a2,a2,a0
   19d56:	40e888b3          	sub	a7,a7,a4
   19d5a:	40cf0633          	sub	a2,t5,a2
   19d5e:	00cf3733          	sltu	a4,t5,a2
   19d62:	84b2                	mv	s1,a2
   19d64:	40e889b3          	sub	s3,a7,a4
   19d68:	891a                	mv	s2,t1
   19d6a:	8436                	mv	s0,a3
   19d6c:	b5d9                	j	19c32 <__adddf3+0xae>
   19d6e:	18f05d63          	blez	a5,19f08 <__adddf3+0x384>
   19d72:	10031a63          	bnez	t1,19e86 <__adddf3+0x302>
   19d76:	01e8e6b3          	or	a3,a7,t5
   19d7a:	20068a63          	beqz	a3,19f8e <__adddf3+0x40a>
   19d7e:	fff78693          	add	a3,a5,-1
   19d82:	3a068663          	beqz	a3,1a12e <__adddf3+0x5aa>
   19d86:	7ff00613          	li	a2,2047
   19d8a:	1cc78f63          	beq	a5,a2,19f68 <__adddf3+0x3e4>
   19d8e:	03800793          	li	a5,56
   19d92:	4985                	li	s3,1
   19d94:	02d7c863          	blt	a5,a3,19dc4 <__adddf3+0x240>
   19d98:	87b6                	mv	a5,a3
   19d9a:	46fd                	li	a3,31
   19d9c:	3cf6c163          	blt	a3,a5,1a15e <__adddf3+0x5da>
   19da0:	02000693          	li	a3,32
   19da4:	8e9d                	sub	a3,a3,a5
   19da6:	00d899b3          	sll	s3,a7,a3
   19daa:	00ff5633          	srl	a2,t5,a5
   19dae:	00df16b3          	sll	a3,t5,a3
   19db2:	00c9e9b3          	or	s3,s3,a2
   19db6:	00d036b3          	snez	a3,a3
   19dba:	00f8d8b3          	srl	a7,a7,a5
   19dbe:	00d9e9b3          	or	s3,s3,a3
   19dc2:	9746                	add	a4,a4,a7
   19dc4:	95ce                	add	a1,a1,s3
   19dc6:	0135b9b3          	sltu	s3,a1,s3
   19dca:	84ae                	mv	s1,a1
   19dcc:	99ba                	add	s3,s3,a4
   19dce:	00899793          	sll	a5,s3,0x8
   19dd2:	1007dd63          	bgez	a5,19eec <__adddf3+0x368>
   19dd6:	0905                	add	s2,s2,1
   19dd8:	7ff00793          	li	a5,2047
   19ddc:	2ef90163          	beq	s2,a5,1a0be <__adddf3+0x53a>
   19de0:	ff8007b7          	lui	a5,0xff800
   19de4:	17fd                	add	a5,a5,-1 # ff7fffff <__BSS_END__+0xff7e22b7>
   19de6:	0014f613          	and	a2,s1,1
   19dea:	00f9f7b3          	and	a5,s3,a5
   19dee:	0014d713          	srl	a4,s1,0x1
   19df2:	8f51                	or	a4,a4,a2
   19df4:	01f79613          	sll	a2,a5,0x1f
   19df8:	00e664b3          	or	s1,a2,a4
   19dfc:	0017d993          	srl	s3,a5,0x1
   19e00:	bd51                	j	19c94 <__adddf3+0x110>
   19e02:	01e8e6b3          	or	a3,a7,t5
   19e06:	18068463          	beqz	a3,19f8e <__adddf3+0x40a>
   19e0a:	fff78693          	add	a3,a5,-1
   19e0e:	32068d63          	beqz	a3,1a148 <__adddf3+0x5c4>
   19e12:	7ff00613          	li	a2,2047
   19e16:	14c78963          	beq	a5,a2,19f68 <__adddf3+0x3e4>
   19e1a:	03800793          	li	a5,56
   19e1e:	4605                	li	a2,1
   19e20:	e0d7c2e3          	blt	a5,a3,19c24 <__adddf3+0xa0>
   19e24:	87b6                	mv	a5,a3
   19e26:	bbd9                	j	19bfc <__adddf3+0x78>
   19e28:	00190813          	add	a6,s2,1
   19e2c:	7fe87813          	and	a6,a6,2046
   19e30:	1c081b63          	bnez	a6,1a006 <__adddf3+0x482>
   19e34:	00b76333          	or	t1,a4,a1
   19e38:	01e8e833          	or	a6,a7,t5
   19e3c:	2c091b63          	bnez	s2,1a112 <__adddf3+0x58e>
   19e40:	38030b63          	beqz	t1,1a1d6 <__adddf3+0x652>
   19e44:	34080263          	beqz	a6,1a188 <__adddf3+0x604>
   19e48:	41e589b3          	sub	s3,a1,t5
   19e4c:	0135b533          	sltu	a0,a1,s3
   19e50:	41170633          	sub	a2,a4,a7
   19e54:	8e09                	sub	a2,a2,a0
   19e56:	00861513          	sll	a0,a2,0x8
   19e5a:	40055463          	bgez	a0,1a262 <__adddf3+0x6de>
   19e5e:	40bf05b3          	sub	a1,t5,a1
   19e62:	40e88733          	sub	a4,a7,a4
   19e66:	00bf3f33          	sltu	t5,t5,a1
   19e6a:	41e70733          	sub	a4,a4,t5
   19e6e:	00871613          	sll	a2,a4,0x8
   19e72:	84ae                	mv	s1,a1
   19e74:	40065e63          	bgez	a2,1a290 <__adddf3+0x70c>
   19e78:	ff8007b7          	lui	a5,0xff800
   19e7c:	17fd                	add	a5,a5,-1 # ff7fffff <__BSS_END__+0xff7e22b7>
   19e7e:	8f7d                	and	a4,a4,a5
   19e80:	8e36                	mv	t3,a3
   19e82:	4785                	li	a5,1
   19e84:	bd81                	j	19cd4 <__adddf3+0x150>
   19e86:	7ff00693          	li	a3,2047
   19e8a:	0cd90f63          	beq	s2,a3,19f68 <__adddf3+0x3e4>
   19e8e:	03800693          	li	a3,56
   19e92:	4985                	li	s3,1
   19e94:	f2f6c8e3          	blt	a3,a5,19dc4 <__adddf3+0x240>
   19e98:	008006b7          	lui	a3,0x800
   19e9c:	00d8e8b3          	or	a7,a7,a3
   19ea0:	bded                	j	19d9a <__adddf3+0x216>
   19ea2:	8526                	mv	a0,s1
   19ea4:	43d010ef          	jal	1bae0 <__clzsi2>
   19ea8:	01850793          	add	a5,a0,24
   19eac:	46fd                	li	a3,31
   19eae:	daf6d2e3          	bge	a3,a5,19c52 <__adddf3+0xce>
   19eb2:	ff850713          	add	a4,a0,-8
   19eb6:	00e49733          	sll	a4,s1,a4
   19eba:	1d27c463          	blt	a5,s2,1a082 <__adddf3+0x4fe>
   19ebe:	41278933          	sub	s2,a5,s2
   19ec2:	00190793          	add	a5,s2,1
   19ec6:	38f6d963          	bge	a3,a5,1a258 <__adddf3+0x6d4>
   19eca:	1905                	add	s2,s2,-31
   19ecc:	02000693          	li	a3,32
   19ed0:	012754b3          	srl	s1,a4,s2
   19ed4:	00d78b63          	beq	a5,a3,19eea <__adddf3+0x366>
   19ed8:	04000693          	li	a3,64
   19edc:	40f687b3          	sub	a5,a3,a5
   19ee0:	00f71733          	sll	a4,a4,a5
   19ee4:	00e03733          	snez	a4,a4
   19ee8:	8cd9                	or	s1,s1,a4
   19eea:	4901                	li	s2,0
   19eec:	0074f793          	and	a5,s1,7
   19ef0:	da0795e3          	bnez	a5,19c9a <__adddf3+0x116>
   19ef4:	87ca                	mv	a5,s2
   19ef6:	0034d613          	srl	a2,s1,0x3
   19efa:	874e                	mv	a4,s3
   19efc:	a861                	j	19f94 <__adddf3+0x410>
   19efe:	7ff00793          	li	a5,2047
   19f02:	4701                	li	a4,0
   19f04:	4801                	li	a6,0
   19f06:	bbf9                	j	19ce4 <__adddf3+0x160>
   19f08:	c7cd                	beqz	a5,19fb2 <__adddf3+0x42e>
   19f0a:	412307b3          	sub	a5,t1,s2
   19f0e:	18090663          	beqz	s2,1a09a <__adddf3+0x516>
   19f12:	7ff00693          	li	a3,2047
   19f16:	28d30363          	beq	t1,a3,1a19c <__adddf3+0x618>
   19f1a:	03800693          	li	a3,56
   19f1e:	4985                	li	s3,1
   19f20:	02f6ca63          	blt	a3,a5,19f54 <__adddf3+0x3d0>
   19f24:	008006b7          	lui	a3,0x800
   19f28:	8f55                	or	a4,a4,a3
   19f2a:	46fd                	li	a3,31
   19f2c:	2ef6cd63          	blt	a3,a5,1a226 <__adddf3+0x6a2>
   19f30:	02000693          	li	a3,32
   19f34:	8e9d                	sub	a3,a3,a5
   19f36:	00d719b3          	sll	s3,a4,a3
   19f3a:	00f5d633          	srl	a2,a1,a5
   19f3e:	00d596b3          	sll	a3,a1,a3
   19f42:	00c9e9b3          	or	s3,s3,a2
   19f46:	00d036b3          	snez	a3,a3
   19f4a:	00f75733          	srl	a4,a4,a5
   19f4e:	00d9e9b3          	or	s3,s3,a3
   19f52:	98ba                	add	a7,a7,a4
   19f54:	01e98733          	add	a4,s3,t5
   19f58:	013739b3          	sltu	s3,a4,s3
   19f5c:	84ba                	mv	s1,a4
   19f5e:	99c6                	add	s3,s3,a7
   19f60:	891a                	mv	s2,t1
   19f62:	b5b5                	j	19dce <__adddf3+0x24a>
   19f64:	00081e63          	bnez	a6,19f80 <__adddf3+0x3fc>
   19f68:	00351613          	sll	a2,a0,0x3
   19f6c:	820d                	srl	a2,a2,0x3
   19f6e:	01d71813          	sll	a6,a4,0x1d
   19f72:	00c86833          	or	a6,a6,a2
   19f76:	830d                	srl	a4,a4,0x3
   19f78:	01076733          	or	a4,a4,a6
   19f7c:	14070163          	beqz	a4,1a0be <__adddf3+0x53a>
   19f80:	4e01                	li	t3,0
   19f82:	7ff00793          	li	a5,2047
   19f86:	00080737          	lui	a4,0x80
   19f8a:	4801                	li	a6,0
   19f8c:	bba1                	j	19ce4 <__adddf3+0x160>
   19f8e:	00351613          	sll	a2,a0,0x3
   19f92:	820d                	srl	a2,a2,0x3
   19f94:	01d71813          	sll	a6,a4,0x1d
   19f98:	7ff00693          	li	a3,2047
   19f9c:	00c86833          	or	a6,a6,a2
   19fa0:	830d                	srl	a4,a4,0x3
   19fa2:	fcd78be3          	beq	a5,a3,19f78 <__adddf3+0x3f4>
   19fa6:	0732                	sll	a4,a4,0xc
   19fa8:	8331                	srl	a4,a4,0xc
   19faa:	7ff7f793          	and	a5,a5,2047
   19fae:	8e22                	mv	t3,s0
   19fb0:	bb15                	j	19ce4 <__adddf3+0x160>
   19fb2:	00190693          	add	a3,s2,1
   19fb6:	7fe6f813          	and	a6,a3,2046
   19fba:	10081863          	bnez	a6,1a0ca <__adddf3+0x546>
   19fbe:	00b766b3          	or	a3,a4,a1
   19fc2:	20091463          	bnez	s2,1a1ca <__adddf3+0x646>
   19fc6:	24068b63          	beqz	a3,1a21c <__adddf3+0x698>
   19fca:	01e8e6b3          	or	a3,a7,t5
   19fce:	1a068d63          	beqz	a3,1a188 <__adddf3+0x604>
   19fd2:	01e587b3          	add	a5,a1,t5
   19fd6:	00b7b5b3          	sltu	a1,a5,a1
   19fda:	9746                	add	a4,a4,a7
   19fdc:	972e                	add	a4,a4,a1
   19fde:	0037d813          	srl	a6,a5,0x3
   19fe2:	00871793          	sll	a5,a4,0x8
   19fe6:	8e22                	mv	t3,s0
   19fe8:	2807db63          	bgez	a5,1a27e <__adddf3+0x6fa>
   19fec:	ff8007b7          	lui	a5,0xff800
   19ff0:	17fd                	add	a5,a5,-1 # ff7fffff <__BSS_END__+0xff7e22b7>
   19ff2:	8f7d                	and	a4,a4,a5
   19ff4:	01d71793          	sll	a5,a4,0x1d
   19ff8:	830d                	srl	a4,a4,0x3
   19ffa:	0107e833          	or	a6,a5,a6
   19ffe:	01d77733          	and	a4,a4,t4
   1a002:	4785                	li	a5,1
   1a004:	b1c5                	j	19ce4 <__adddf3+0x160>
   1a006:	41e58833          	sub	a6,a1,t5
   1a00a:	0105b7b3          	sltu	a5,a1,a6
   1a00e:	411709b3          	sub	s3,a4,a7
   1a012:	40f989b3          	sub	s3,s3,a5
   1a016:	00899793          	sll	a5,s3,0x8
   1a01a:	84c2                	mv	s1,a6
   1a01c:	0c07cb63          	bltz	a5,1a0f2 <__adddf3+0x56e>
   1a020:	01386833          	or	a6,a6,s3
   1a024:	c20810e3          	bnez	a6,19c44 <__adddf3+0xc0>
   1a028:	4e01                	li	t3,0
   1a02a:	4781                	li	a5,0
   1a02c:	4701                	li	a4,0
   1a02e:	b95d                	j	19ce4 <__adddf3+0x160>
   1a030:	7ff00513          	li	a0,2047
   1a034:	14a30f63          	beq	t1,a0,1a192 <__adddf3+0x60e>
   1a038:	03800513          	li	a0,56
   1a03c:	4605                	li	a2,1
   1a03e:	d0f54ee3          	blt	a0,a5,19d5a <__adddf3+0x1d6>
   1a042:	00800637          	lui	a2,0x800
   1a046:	8f51                	or	a4,a4,a2
   1a048:	b1e5                	j	19d30 <__adddf3+0x1ac>
   1a04a:	ff8009b7          	lui	s3,0xff800
   1a04e:	19fd                	add	s3,s3,-1 # ff7fffff <__BSS_END__+0xff7e22b7>
   1a050:	40f90933          	sub	s2,s2,a5
   1a054:	013779b3          	and	s3,a4,s3
   1a058:	b935                	j	19c94 <__adddf3+0x110>
   1a05a:	fe078693          	add	a3,a5,-32
   1a05e:	02000613          	li	a2,32
   1a062:	00d8d6b3          	srl	a3,a7,a3
   1a066:	00c78a63          	beq	a5,a2,1a07a <__adddf3+0x4f6>
   1a06a:	04000613          	li	a2,64
   1a06e:	40f607b3          	sub	a5,a2,a5
   1a072:	00f897b3          	sll	a5,a7,a5
   1a076:	00ff6f33          	or	t5,t5,a5
   1a07a:	01e03633          	snez	a2,t5
   1a07e:	8e55                	or	a2,a2,a3
   1a080:	b655                	j	19c24 <__adddf3+0xa0>
   1a082:	ff8006b7          	lui	a3,0xff800
   1a086:	16fd                	add	a3,a3,-1 # ff7fffff <__BSS_END__+0xff7e22b7>
   1a088:	40f907b3          	sub	a5,s2,a5
   1a08c:	8f75                	and	a4,a4,a3
   1a08e:	01d71813          	sll	a6,a4,0x1d
   1a092:	01386833          	or	a6,a6,s3
   1a096:	830d                	srl	a4,a4,0x3
   1a098:	b739                	j	19fa6 <__adddf3+0x422>
   1a09a:	00b766b3          	or	a3,a4,a1
   1a09e:	16068b63          	beqz	a3,1a214 <__adddf3+0x690>
   1a0a2:	fff78693          	add	a3,a5,-1
   1a0a6:	c6c1                	beqz	a3,1a12e <__adddf3+0x5aa>
   1a0a8:	7ff00513          	li	a0,2047
   1a0ac:	0ea78863          	beq	a5,a0,1a19c <__adddf3+0x618>
   1a0b0:	03800793          	li	a5,56
   1a0b4:	4985                	li	s3,1
   1a0b6:	e8d7cfe3          	blt	a5,a3,19f54 <__adddf3+0x3d0>
   1a0ba:	87b6                	mv	a5,a3
   1a0bc:	b5bd                	j	19f2a <__adddf3+0x3a6>
   1a0be:	8e22                	mv	t3,s0
   1a0c0:	7ff00793          	li	a5,2047
   1a0c4:	4701                	li	a4,0
   1a0c6:	4801                	li	a6,0
   1a0c8:	b931                	j	19ce4 <__adddf3+0x160>
   1a0ca:	7ff00793          	li	a5,2047
   1a0ce:	fef688e3          	beq	a3,a5,1a0be <__adddf3+0x53a>
   1a0d2:	9f2e                	add	t5,t5,a1
   1a0d4:	00bf35b3          	sltu	a1,t5,a1
   1a0d8:	011707b3          	add	a5,a4,a7
   1a0dc:	97ae                	add	a5,a5,a1
   1a0de:	01f79613          	sll	a2,a5,0x1f
   1a0e2:	001f5f13          	srl	t5,t5,0x1
   1a0e6:	01e664b3          	or	s1,a2,t5
   1a0ea:	0017d993          	srl	s3,a5,0x1
   1a0ee:	8936                	mv	s2,a3
   1a0f0:	b655                	j	19c94 <__adddf3+0x110>
   1a0f2:	40bf0633          	sub	a2,t5,a1
   1a0f6:	40e887b3          	sub	a5,a7,a4
   1a0fa:	00cf3733          	sltu	a4,t5,a2
   1a0fe:	84b2                	mv	s1,a2
   1a100:	40e789b3          	sub	s3,a5,a4
   1a104:	8436                	mv	s0,a3
   1a106:	be3d                	j	19c44 <__adddf3+0xc0>
   1a108:	060e                	sll	a2,a2,0x3
   1a10a:	820d                	srl	a2,a2,0x3
   1a10c:	8436                	mv	s0,a3
   1a10e:	8746                	mv	a4,a7
   1a110:	b551                	j	19f94 <__adddf3+0x410>
   1a112:	e40319e3          	bnez	t1,19f64 <__adddf3+0x3e0>
   1a116:	14080e63          	beqz	a6,1a272 <__adddf3+0x6ee>
   1a11a:	0038d713          	srl	a4,a7,0x3
   1a11e:	060e                	sll	a2,a2,0x3
   1a120:	08f6                	sll	a7,a7,0x1d
   1a122:	01176733          	or	a4,a4,a7
   1a126:	820d                	srl	a2,a2,0x3
   1a128:	8f51                	or	a4,a4,a2
   1a12a:	8436                	mv	s0,a3
   1a12c:	bd81                	j	19f7c <__adddf3+0x3f8>
   1a12e:	9f2e                	add	t5,t5,a1
   1a130:	98ba                	add	a7,a7,a4
   1a132:	00bf35b3          	sltu	a1,t5,a1
   1a136:	00b889b3          	add	s3,a7,a1
   1a13a:	00899793          	sll	a5,s3,0x8
   1a13e:	84fa                	mv	s1,t5
   1a140:	0a07dc63          	bgez	a5,1a1f8 <__adddf3+0x674>
   1a144:	4909                	li	s2,2
   1a146:	b969                	j	19de0 <__adddf3+0x25c>
   1a148:	41e58f33          	sub	t5,a1,t5
   1a14c:	411708b3          	sub	a7,a4,a7
   1a150:	01e5b5b3          	sltu	a1,a1,t5
   1a154:	84fa                	mv	s1,t5
   1a156:	40b889b3          	sub	s3,a7,a1
   1a15a:	4905                	li	s2,1
   1a15c:	bcd9                	j	19c32 <__adddf3+0xae>
   1a15e:	fe078693          	add	a3,a5,-32
   1a162:	02000613          	li	a2,32
   1a166:	00d8d6b3          	srl	a3,a7,a3
   1a16a:	00c78a63          	beq	a5,a2,1a17e <__adddf3+0x5fa>
   1a16e:	04000613          	li	a2,64
   1a172:	40f607b3          	sub	a5,a2,a5
   1a176:	00f897b3          	sll	a5,a7,a5
   1a17a:	00ff6f33          	or	t5,t5,a5
   1a17e:	01e039b3          	snez	s3,t5
   1a182:	00d9e9b3          	or	s3,s3,a3
   1a186:	b93d                	j	19dc4 <__adddf3+0x240>
   1a188:	00351613          	sll	a2,a0,0x3
   1a18c:	00365993          	srl	s3,a2,0x3
   1a190:	bdfd                	j	1a08e <__adddf3+0x50a>
   1a192:	060e                	sll	a2,a2,0x3
   1a194:	820d                	srl	a2,a2,0x3
   1a196:	8436                	mv	s0,a3
   1a198:	8746                	mv	a4,a7
   1a19a:	bbd1                	j	19f6e <__adddf3+0x3ea>
   1a19c:	060e                	sll	a2,a2,0x3
   1a19e:	820d                	srl	a2,a2,0x3
   1a1a0:	8746                	mv	a4,a7
   1a1a2:	b3f1                	j	19f6e <__adddf3+0x3ea>
   1a1a4:	fe078513          	add	a0,a5,-32
   1a1a8:	02000613          	li	a2,32
   1a1ac:	00a75533          	srl	a0,a4,a0
   1a1b0:	00c78963          	beq	a5,a2,1a1c2 <__adddf3+0x63e>
   1a1b4:	04000613          	li	a2,64
   1a1b8:	40f607b3          	sub	a5,a2,a5
   1a1bc:	00f717b3          	sll	a5,a4,a5
   1a1c0:	8ddd                	or	a1,a1,a5
   1a1c2:	00b03633          	snez	a2,a1
   1a1c6:	8e49                	or	a2,a2,a0
   1a1c8:	be49                	j	19d5a <__adddf3+0x1d6>
   1a1ca:	dae9                	beqz	a3,1a19c <__adddf3+0x618>
   1a1cc:	01e8ef33          	or	t5,a7,t5
   1a1d0:	da0f18e3          	bnez	t5,19f80 <__adddf3+0x3fc>
   1a1d4:	bb51                	j	19f68 <__adddf3+0x3e4>
   1a1d6:	e40809e3          	beqz	a6,1a028 <__adddf3+0x4a4>
   1a1da:	00361813          	sll	a6,a2,0x3
   1a1de:	01d89793          	sll	a5,a7,0x1d
   1a1e2:	00385813          	srl	a6,a6,0x3
   1a1e6:	0038d713          	srl	a4,a7,0x3
   1a1ea:	00f86833          	or	a6,a6,a5
   1a1ee:	01d77733          	and	a4,a4,t4
   1a1f2:	8e36                	mv	t3,a3
   1a1f4:	4781                	li	a5,0
   1a1f6:	b4fd                	j	19ce4 <__adddf3+0x160>
   1a1f8:	4785                	li	a5,1
   1a1fa:	b9f5                	j	19ef6 <__adddf3+0x372>
   1a1fc:	40bf05b3          	sub	a1,t5,a1
   1a200:	40e888b3          	sub	a7,a7,a4
   1a204:	00bf3733          	sltu	a4,t5,a1
   1a208:	84ae                	mv	s1,a1
   1a20a:	40e889b3          	sub	s3,a7,a4
   1a20e:	8436                	mv	s0,a3
   1a210:	4905                	li	s2,1
   1a212:	b405                	j	19c32 <__adddf3+0xae>
   1a214:	060e                	sll	a2,a2,0x3
   1a216:	820d                	srl	a2,a2,0x3
   1a218:	8746                	mv	a4,a7
   1a21a:	bbad                	j	19f94 <__adddf3+0x410>
   1a21c:	060e                	sll	a2,a2,0x3
   1a21e:	00365993          	srl	s3,a2,0x3
   1a222:	8746                	mv	a4,a7
   1a224:	b5ad                	j	1a08e <__adddf3+0x50a>
   1a226:	fe078693          	add	a3,a5,-32
   1a22a:	02000613          	li	a2,32
   1a22e:	00d756b3          	srl	a3,a4,a3
   1a232:	00c78963          	beq	a5,a2,1a244 <__adddf3+0x6c0>
   1a236:	04000613          	li	a2,64
   1a23a:	40f607b3          	sub	a5,a2,a5
   1a23e:	00f717b3          	sll	a5,a4,a5
   1a242:	8ddd                	or	a1,a1,a5
   1a244:	00b039b3          	snez	s3,a1
   1a248:	00d9e9b3          	or	s3,s3,a3
   1a24c:	b321                	j	19f54 <__adddf3+0x3d0>
   1a24e:	0034d613          	srl	a2,s1,0x3
   1a252:	87ca                	mv	a5,s2
   1a254:	874e                	mv	a4,s3
   1a256:	bb3d                	j	19f94 <__adddf3+0x410>
   1a258:	02000693          	li	a3,32
   1a25c:	8e9d                	sub	a3,a3,a5
   1a25e:	4601                	li	a2,0
   1a260:	b40d                	j	19c82 <__adddf3+0xfe>
   1a262:	00c9e833          	or	a6,s3,a2
   1a266:	dc0801e3          	beqz	a6,1a028 <__adddf3+0x4a4>
   1a26a:	0039d993          	srl	s3,s3,0x3
   1a26e:	8732                	mv	a4,a2
   1a270:	bd39                	j	1a08e <__adddf3+0x50a>
   1a272:	4e01                	li	t3,0
   1a274:	7ff00793          	li	a5,2047
   1a278:	00080737          	lui	a4,0x80
   1a27c:	b4a5                	j	19ce4 <__adddf3+0x160>
   1a27e:	01d71793          	sll	a5,a4,0x1d
   1a282:	830d                	srl	a4,a4,0x3
   1a284:	0107e833          	or	a6,a5,a6
   1a288:	01d77733          	and	a4,a4,t4
   1a28c:	4781                	li	a5,0
   1a28e:	bc99                	j	19ce4 <__adddf3+0x160>
   1a290:	01d71813          	sll	a6,a4,0x1d
   1a294:	818d                	srl	a1,a1,0x3
   1a296:	00b86833          	or	a6,a6,a1
   1a29a:	830d                	srl	a4,a4,0x3
   1a29c:	8436                	mv	s0,a3
   1a29e:	b321                	j	19fa6 <__adddf3+0x422>

0001a2a0 <__divdf3>:
   1a2a0:	7179                	add	sp,sp,-48
   1a2a2:	ce4e                	sw	s3,28(sp)
   1a2a4:	0145d993          	srl	s3,a1,0x14
   1a2a8:	d422                	sw	s0,40(sp)
   1a2aa:	d226                	sw	s1,36(sp)
   1a2ac:	d04a                	sw	s2,32(sp)
   1a2ae:	cc52                	sw	s4,24(sp)
   1a2b0:	c65e                	sw	s7,12(sp)
   1a2b2:	00c59493          	sll	s1,a1,0xc
   1a2b6:	d606                	sw	ra,44(sp)
   1a2b8:	ca56                	sw	s5,20(sp)
   1a2ba:	c85a                	sw	s6,16(sp)
   1a2bc:	c462                	sw	s8,8(sp)
   1a2be:	7ff9f993          	and	s3,s3,2047
   1a2c2:	842a                	mv	s0,a0
   1a2c4:	8bb2                	mv	s7,a2
   1a2c6:	8936                	mv	s2,a3
   1a2c8:	80b1                	srl	s1,s1,0xc
   1a2ca:	01f5da13          	srl	s4,a1,0x1f
   1a2ce:	12098363          	beqz	s3,1a3f4 <__divdf3+0x154>
   1a2d2:	7ff00793          	li	a5,2047
   1a2d6:	06f98a63          	beq	s3,a5,1a34a <__divdf3+0xaa>
   1a2da:	048e                	sll	s1,s1,0x3
   1a2dc:	01d55793          	srl	a5,a0,0x1d
   1a2e0:	8fc5                	or	a5,a5,s1
   1a2e2:	00800737          	lui	a4,0x800
   1a2e6:	00e7eab3          	or	s5,a5,a4
   1a2ea:	00351b13          	sll	s6,a0,0x3
   1a2ee:	c0198993          	add	s3,s3,-1023
   1a2f2:	4481                	li	s1,0
   1a2f4:	4c01                	li	s8,0
   1a2f6:	01495793          	srl	a5,s2,0x14
   1a2fa:	00c91413          	sll	s0,s2,0xc
   1a2fe:	7ff7f793          	and	a5,a5,2047
   1a302:	8031                	srl	s0,s0,0xc
   1a304:	01f95913          	srl	s2,s2,0x1f
   1a308:	c7a5                	beqz	a5,1a370 <__divdf3+0xd0>
   1a30a:	7ff00713          	li	a4,2047
   1a30e:	12e78263          	beq	a5,a4,1a432 <__divdf3+0x192>
   1a312:	040e                	sll	s0,s0,0x3
   1a314:	01dbd713          	srl	a4,s7,0x1d
   1a318:	8f41                	or	a4,a4,s0
   1a31a:	c0178793          	add	a5,a5,-1023
   1a31e:	00800437          	lui	s0,0x800
   1a322:	8c59                	or	s0,s0,a4
   1a324:	003b9893          	sll	a7,s7,0x3
   1a328:	40f989b3          	sub	s3,s3,a5
   1a32c:	4601                	li	a2,0
   1a32e:	473d                	li	a4,15
   1a330:	012a46b3          	xor	a3,s4,s2
   1a334:	1a976163          	bltu	a4,s1,1a4d6 <__divdf3+0x236>
   1a338:	00002717          	auipc	a4,0x2
   1a33c:	50070713          	add	a4,a4,1280 # 1c838 <__mprec_tens+0xc8>
   1a340:	048a                	sll	s1,s1,0x2
   1a342:	94ba                	add	s1,s1,a4
   1a344:	409c                	lw	a5,0(s1)
   1a346:	97ba                	add	a5,a5,a4
   1a348:	8782                	jr	a5
   1a34a:	00a4eab3          	or	s5,s1,a0
   1a34e:	140a9e63          	bnez	s5,1a4aa <__divdf3+0x20a>
   1a352:	01495793          	srl	a5,s2,0x14
   1a356:	00c91413          	sll	s0,s2,0xc
   1a35a:	7ff7f793          	and	a5,a5,2047
   1a35e:	4b01                	li	s6,0
   1a360:	44a1                	li	s1,8
   1a362:	7ff00993          	li	s3,2047
   1a366:	4c09                	li	s8,2
   1a368:	8031                	srl	s0,s0,0xc
   1a36a:	01f95913          	srl	s2,s2,0x1f
   1a36e:	ffd1                	bnez	a5,1a30a <__divdf3+0x6a>
   1a370:	017468b3          	or	a7,s0,s7
   1a374:	14088263          	beqz	a7,1a4b8 <__divdf3+0x218>
   1a378:	38040e63          	beqz	s0,1a714 <__divdf3+0x474>
   1a37c:	8522                	mv	a0,s0
   1a37e:	762010ef          	jal	1bae0 <__clzsi2>
   1a382:	87aa                	mv	a5,a0
   1a384:	ff550693          	add	a3,a0,-11
   1a388:	4775                	li	a4,29
   1a38a:	ff878893          	add	a7,a5,-8
   1a38e:	8f15                	sub	a4,a4,a3
   1a390:	01141433          	sll	s0,s0,a7
   1a394:	00ebd733          	srl	a4,s7,a4
   1a398:	8c59                	or	s0,s0,a4
   1a39a:	011b98b3          	sll	a7,s7,a7
   1a39e:	97ce                	add	a5,a5,s3
   1a3a0:	3f378993          	add	s3,a5,1011
   1a3a4:	4601                	li	a2,0
   1a3a6:	b761                	j	1a32e <__divdf3+0x8e>
   1a3a8:	8f1d                	sub	a4,a4,a5
   1a3aa:	03800613          	li	a2,56
   1a3ae:	3ce65663          	bge	a2,a4,1a77a <__divdf3+0x4da>
   1a3b2:	4781                	li	a5,0
   1a3b4:	4601                	li	a2,0
   1a3b6:	4701                	li	a4,0
   1a3b8:	50b2                	lw	ra,44(sp)
   1a3ba:	5422                	lw	s0,40(sp)
   1a3bc:	07d2                	sll	a5,a5,0x14
   1a3be:	8fd1                	or	a5,a5,a2
   1a3c0:	06fe                	sll	a3,a3,0x1f
   1a3c2:	8fd5                	or	a5,a5,a3
   1a3c4:	5492                	lw	s1,36(sp)
   1a3c6:	5902                	lw	s2,32(sp)
   1a3c8:	49f2                	lw	s3,28(sp)
   1a3ca:	4a62                	lw	s4,24(sp)
   1a3cc:	4ad2                	lw	s5,20(sp)
   1a3ce:	4b42                	lw	s6,16(sp)
   1a3d0:	4bb2                	lw	s7,12(sp)
   1a3d2:	4c22                	lw	s8,8(sp)
   1a3d4:	853a                	mv	a0,a4
   1a3d6:	85be                	mv	a1,a5
   1a3d8:	6145                	add	sp,sp,48
   1a3da:	8082                	ret
   1a3dc:	7ff00793          	li	a5,2047
   1a3e0:	4601                	li	a2,0
   1a3e2:	4701                	li	a4,0
   1a3e4:	bfd1                	j	1a3b8 <__divdf3+0x118>
   1a3e6:	4681                	li	a3,0
   1a3e8:	7ff00793          	li	a5,2047
   1a3ec:	00080637          	lui	a2,0x80
   1a3f0:	4701                	li	a4,0
   1a3f2:	b7d9                	j	1a3b8 <__divdf3+0x118>
   1a3f4:	00a4eab3          	or	s5,s1,a0
   1a3f8:	0c0a8a63          	beqz	s5,1a4cc <__divdf3+0x22c>
   1a3fc:	32048b63          	beqz	s1,1a732 <__divdf3+0x492>
   1a400:	8526                	mv	a0,s1
   1a402:	6de010ef          	jal	1bae0 <__clzsi2>
   1a406:	872a                	mv	a4,a0
   1a408:	ff550693          	add	a3,a0,-11
   1a40c:	47f5                	li	a5,29
   1a40e:	ff870b13          	add	s6,a4,-8
   1a412:	8f95                	sub	a5,a5,a3
   1a414:	016494b3          	sll	s1,s1,s6
   1a418:	00f457b3          	srl	a5,s0,a5
   1a41c:	0097eab3          	or	s5,a5,s1
   1a420:	01641b33          	sll	s6,s0,s6
   1a424:	c0d00993          	li	s3,-1011
   1a428:	40e989b3          	sub	s3,s3,a4
   1a42c:	4481                	li	s1,0
   1a42e:	4c01                	li	s8,0
   1a430:	b5d9                	j	1a2f6 <__divdf3+0x56>
   1a432:	017468b3          	or	a7,s0,s7
   1a436:	80198993          	add	s3,s3,-2047
   1a43a:	08089463          	bnez	a7,1a4c2 <__divdf3+0x222>
   1a43e:	0024e493          	or	s1,s1,2
   1a442:	4401                	li	s0,0
   1a444:	4609                	li	a2,2
   1a446:	b5e5                	j	1a32e <__divdf3+0x8e>
   1a448:	8952                	mv	s2,s4
   1a44a:	8456                	mv	s0,s5
   1a44c:	88da                	mv	a7,s6
   1a44e:	4789                	li	a5,2
   1a450:	3efc0163          	beq	s8,a5,1a832 <__divdf3+0x592>
   1a454:	478d                	li	a5,3
   1a456:	f8fc08e3          	beq	s8,a5,1a3e6 <__divdf3+0x146>
   1a45a:	4785                	li	a5,1
   1a45c:	86ca                	mv	a3,s2
   1a45e:	f4fc0ae3          	beq	s8,a5,1a3b2 <__divdf3+0x112>
   1a462:	3ff98793          	add	a5,s3,1023
   1a466:	20f05e63          	blez	a5,1a682 <__divdf3+0x3e2>
   1a46a:	0078f713          	and	a4,a7,7
   1a46e:	3a071863          	bnez	a4,1a81e <__divdf3+0x57e>
   1a472:	00741713          	sll	a4,s0,0x7
   1a476:	00075863          	bgez	a4,1a486 <__divdf3+0x1e6>
   1a47a:	ff0007b7          	lui	a5,0xff000
   1a47e:	17fd                	add	a5,a5,-1 # feffffff <__BSS_END__+0xfefe22b7>
   1a480:	8c7d                	and	s0,s0,a5
   1a482:	40098793          	add	a5,s3,1024
   1a486:	7fe00713          	li	a4,2046
   1a48a:	f4f749e3          	blt	a4,a5,1a3dc <__divdf3+0x13c>
   1a48e:	0038d893          	srl	a7,a7,0x3
   1a492:	01d41713          	sll	a4,s0,0x1d
   1a496:	00941613          	sll	a2,s0,0x9
   1a49a:	01176733          	or	a4,a4,a7
   1a49e:	8231                	srl	a2,a2,0xc
   1a4a0:	7ff7f793          	and	a5,a5,2047
   1a4a4:	bf11                	j	1a3b8 <__divdf3+0x118>
   1a4a6:	8c32                	mv	s8,a2
   1a4a8:	b75d                	j	1a44e <__divdf3+0x1ae>
   1a4aa:	8aa6                	mv	s5,s1
   1a4ac:	8b2a                	mv	s6,a0
   1a4ae:	44b1                	li	s1,12
   1a4b0:	7ff00993          	li	s3,2047
   1a4b4:	4c0d                	li	s8,3
   1a4b6:	b581                	j	1a2f6 <__divdf3+0x56>
   1a4b8:	0014e493          	or	s1,s1,1
   1a4bc:	4401                	li	s0,0
   1a4be:	4605                	li	a2,1
   1a4c0:	b5bd                	j	1a32e <__divdf3+0x8e>
   1a4c2:	0034e493          	or	s1,s1,3
   1a4c6:	88de                	mv	a7,s7
   1a4c8:	460d                	li	a2,3
   1a4ca:	b595                	j	1a32e <__divdf3+0x8e>
   1a4cc:	4b01                	li	s6,0
   1a4ce:	4491                	li	s1,4
   1a4d0:	4981                	li	s3,0
   1a4d2:	4c05                	li	s8,1
   1a4d4:	b50d                	j	1a2f6 <__divdf3+0x56>
   1a4d6:	23546563          	bltu	s0,s5,1a700 <__divdf3+0x460>
   1a4da:	228a8163          	beq	s5,s0,1a6fc <__divdf3+0x45c>
   1a4de:	835a                	mv	t1,s6
   1a4e0:	19fd                	add	s3,s3,-1
   1a4e2:	87d6                	mv	a5,s5
   1a4e4:	4b01                	li	s6,0
   1a4e6:	00841713          	sll	a4,s0,0x8
   1a4ea:	01075513          	srl	a0,a4,0x10
   1a4ee:	02a7d433          	divu	s0,a5,a0
   1a4f2:	0188d613          	srl	a2,a7,0x18
   1a4f6:	8e59                	or	a2,a2,a4
   1a4f8:	01061813          	sll	a6,a2,0x10
   1a4fc:	01085813          	srl	a6,a6,0x10
   1a500:	00889593          	sll	a1,a7,0x8
   1a504:	01035713          	srl	a4,t1,0x10
   1a508:	02a7f7b3          	remu	a5,a5,a0
   1a50c:	028808b3          	mul	a7,a6,s0
   1a510:	07c2                	sll	a5,a5,0x10
   1a512:	8fd9                	or	a5,a5,a4
   1a514:	0117f863          	bgeu	a5,a7,1a524 <__divdf3+0x284>
   1a518:	97b2                	add	a5,a5,a2
   1a51a:	fff40713          	add	a4,s0,-1 # 7fffff <__BSS_END__+0x7e22b7>
   1a51e:	24c7f963          	bgeu	a5,a2,1a770 <__divdf3+0x4d0>
   1a522:	843a                	mv	s0,a4
   1a524:	411787b3          	sub	a5,a5,a7
   1a528:	02a7d8b3          	divu	a7,a5,a0
   1a52c:	01031713          	sll	a4,t1,0x10
   1a530:	8341                	srl	a4,a4,0x10
   1a532:	02a7f7b3          	remu	a5,a5,a0
   1a536:	03180fb3          	mul	t6,a6,a7
   1a53a:	07c2                	sll	a5,a5,0x10
   1a53c:	8f5d                	or	a4,a4,a5
   1a53e:	01f77863          	bgeu	a4,t6,1a54e <__divdf3+0x2ae>
   1a542:	9732                	add	a4,a4,a2
   1a544:	fff88793          	add	a5,a7,-1
   1a548:	20c77f63          	bgeu	a4,a2,1a766 <__divdf3+0x4c6>
   1a54c:	88be                	mv	a7,a5
   1a54e:	0442                	sll	s0,s0,0x10
   1a550:	62c1                	lui	t0,0x10
   1a552:	01146433          	or	s0,s0,a7
   1a556:	fff28313          	add	t1,t0,-1 # ffff <exit-0x95>
   1a55a:	006478b3          	and	a7,s0,t1
   1a55e:	01045e93          	srl	t4,s0,0x10
   1a562:	0105de13          	srl	t3,a1,0x10
   1a566:	0065f333          	and	t1,a1,t1
   1a56a:	03130f33          	mul	t5,t1,a7
   1a56e:	41f70733          	sub	a4,a4,t6
   1a572:	031e08b3          	mul	a7,t3,a7
   1a576:	010f5793          	srl	a5,t5,0x10
   1a57a:	026e8fb3          	mul	t6,t4,t1
   1a57e:	98fe                	add	a7,a7,t6
   1a580:	97c6                	add	a5,a5,a7
   1a582:	03ce8eb3          	mul	t4,t4,t3
   1a586:	01f7f363          	bgeu	a5,t6,1a58c <__divdf3+0x2ec>
   1a58a:	9e96                	add	t4,t4,t0
   1a58c:	6fc1                	lui	t6,0x10
   1a58e:	1ffd                	add	t6,t6,-1 # ffff <exit-0x95>
   1a590:	0107d893          	srl	a7,a5,0x10
   1a594:	01f7f7b3          	and	a5,a5,t6
   1a598:	07c2                	sll	a5,a5,0x10
   1a59a:	01ff7f33          	and	t5,t5,t6
   1a59e:	98f6                	add	a7,a7,t4
   1a5a0:	97fa                	add	a5,a5,t5
   1a5a2:	13176b63          	bltu	a4,a7,1a6d8 <__divdf3+0x438>
   1a5a6:	13170763          	beq	a4,a7,1a6d4 <__divdf3+0x434>
   1a5aa:	40fb07b3          	sub	a5,s6,a5
   1a5ae:	41170733          	sub	a4,a4,a7
   1a5b2:	00fb3b33          	sltu	s6,s6,a5
   1a5b6:	41670733          	sub	a4,a4,s6
   1a5ba:	24e60463          	beq	a2,a4,1a802 <__divdf3+0x562>
   1a5be:	02a758b3          	divu	a7,a4,a0
   1a5c2:	0107de93          	srl	t4,a5,0x10
   1a5c6:	02a77733          	remu	a4,a4,a0
   1a5ca:	03180f33          	mul	t5,a6,a7
   1a5ce:	0742                	sll	a4,a4,0x10
   1a5d0:	00eee733          	or	a4,t4,a4
   1a5d4:	01e77b63          	bgeu	a4,t5,1a5ea <__divdf3+0x34a>
   1a5d8:	9732                	add	a4,a4,a2
   1a5da:	fff88e93          	add	t4,a7,-1
   1a5de:	24c76863          	bltu	a4,a2,1a82e <__divdf3+0x58e>
   1a5e2:	25e77663          	bgeu	a4,t5,1a82e <__divdf3+0x58e>
   1a5e6:	18f9                	add	a7,a7,-2
   1a5e8:	9732                	add	a4,a4,a2
   1a5ea:	41e70733          	sub	a4,a4,t5
   1a5ee:	02a75eb3          	divu	t4,a4,a0
   1a5f2:	07c2                	sll	a5,a5,0x10
   1a5f4:	83c1                	srl	a5,a5,0x10
   1a5f6:	02a77733          	remu	a4,a4,a0
   1a5fa:	03d80833          	mul	a6,a6,t4
   1a5fe:	0742                	sll	a4,a4,0x10
   1a600:	8fd9                	or	a5,a5,a4
   1a602:	0107fb63          	bgeu	a5,a6,1a618 <__divdf3+0x378>
   1a606:	97b2                	add	a5,a5,a2
   1a608:	fffe8713          	add	a4,t4,-1
   1a60c:	20c7ef63          	bltu	a5,a2,1a82a <__divdf3+0x58a>
   1a610:	2107fd63          	bgeu	a5,a6,1a82a <__divdf3+0x58a>
   1a614:	1ef9                	add	t4,t4,-2
   1a616:	97b2                	add	a5,a5,a2
   1a618:	08c2                	sll	a7,a7,0x10
   1a61a:	01d8e8b3          	or	a7,a7,t4
   1a61e:	01089513          	sll	a0,a7,0x10
   1a622:	0108df13          	srl	t5,a7,0x10
   1a626:	8141                	srl	a0,a0,0x10
   1a628:	02650eb3          	mul	t4,a0,t1
   1a62c:	410787b3          	sub	a5,a5,a6
   1a630:	02ae0533          	mul	a0,t3,a0
   1a634:	010ed713          	srl	a4,t4,0x10
   1a638:	026f0333          	mul	t1,t5,t1
   1a63c:	951a                	add	a0,a0,t1
   1a63e:	972a                	add	a4,a4,a0
   1a640:	03ee0e33          	mul	t3,t3,t5
   1a644:	00677463          	bgeu	a4,t1,1a64c <__divdf3+0x3ac>
   1a648:	6541                	lui	a0,0x10
   1a64a:	9e2a                	add	t3,t3,a0
   1a64c:	6841                	lui	a6,0x10
   1a64e:	187d                	add	a6,a6,-1 # ffff <exit-0x95>
   1a650:	01075513          	srl	a0,a4,0x10
   1a654:	01077733          	and	a4,a4,a6
   1a658:	0742                	sll	a4,a4,0x10
   1a65a:	010efeb3          	and	t4,t4,a6
   1a65e:	9572                	add	a0,a0,t3
   1a660:	9776                	add	a4,a4,t4
   1a662:	0ea7f763          	bgeu	a5,a0,1a750 <__divdf3+0x4b0>
   1a666:	97b2                	add	a5,a5,a2
   1a668:	fff88313          	add	t1,a7,-1
   1a66c:	883e                	mv	a6,a5
   1a66e:	16c7e863          	bltu	a5,a2,1a7de <__divdf3+0x53e>
   1a672:	1ca7e663          	bltu	a5,a0,1a83e <__divdf3+0x59e>
   1a676:	1ca78f63          	beq	a5,a0,1a854 <__divdf3+0x5b4>
   1a67a:	889a                	mv	a7,t1
   1a67c:	0018e893          	or	a7,a7,1
   1a680:	b3cd                	j	1a462 <__divdf3+0x1c2>
   1a682:	4705                	li	a4,1
   1a684:	d20792e3          	bnez	a5,1a3a8 <__divdf3+0x108>
   1a688:	41e98993          	add	s3,s3,1054
   1a68c:	013897b3          	sll	a5,a7,s3
   1a690:	00f037b3          	snez	a5,a5
   1a694:	013419b3          	sll	s3,s0,s3
   1a698:	0137e7b3          	or	a5,a5,s3
   1a69c:	00e8d8b3          	srl	a7,a7,a4
   1a6a0:	00f8e8b3          	or	a7,a7,a5
   1a6a4:	0078f793          	and	a5,a7,7
   1a6a8:	00e45433          	srl	s0,s0,a4
   1a6ac:	cf81                	beqz	a5,1a6c4 <__divdf3+0x424>
   1a6ae:	00f8f793          	and	a5,a7,15
   1a6b2:	4711                	li	a4,4
   1a6b4:	00e78863          	beq	a5,a4,1a6c4 <__divdf3+0x424>
   1a6b8:	00488793          	add	a5,a7,4
   1a6bc:	0117b8b3          	sltu	a7,a5,a7
   1a6c0:	9446                	add	s0,s0,a7
   1a6c2:	88be                	mv	a7,a5
   1a6c4:	00841593          	sll	a1,s0,0x8
   1a6c8:	4785                	li	a5,1
   1a6ca:	4601                	li	a2,0
   1a6cc:	4701                	li	a4,0
   1a6ce:	ce05c5e3          	bltz	a1,1a3b8 <__divdf3+0x118>
   1a6d2:	a8dd                	j	1a7c8 <__divdf3+0x528>
   1a6d4:	ecfb7be3          	bgeu	s6,a5,1a5aa <__divdf3+0x30a>
   1a6d8:	00bb0eb3          	add	t4,s6,a1
   1a6dc:	016ebf33          	sltu	t5,t4,s6
   1a6e0:	00cf0fb3          	add	t6,t5,a2
   1a6e4:	977e                	add	a4,a4,t6
   1a6e6:	8b76                	mv	s6,t4
   1a6e8:	fff40f93          	add	t6,s0,-1
   1a6ec:	06e67763          	bgeu	a2,a4,1a75a <__divdf3+0x4ba>
   1a6f0:	11176163          	bltu	a4,a7,1a7f2 <__divdf3+0x552>
   1a6f4:	0ee88d63          	beq	a7,a4,1a7ee <__divdf3+0x54e>
   1a6f8:	847e                	mv	s0,t6
   1a6fa:	bd45                	j	1a5aa <__divdf3+0x30a>
   1a6fc:	df1b61e3          	bltu	s6,a7,1a4de <__divdf3+0x23e>
   1a700:	001b5713          	srl	a4,s6,0x1
   1a704:	01fa9313          	sll	t1,s5,0x1f
   1a708:	001ad793          	srl	a5,s5,0x1
   1a70c:	00e36333          	or	t1,t1,a4
   1a710:	0b7e                	sll	s6,s6,0x1f
   1a712:	bbd1                	j	1a4e6 <__divdf3+0x246>
   1a714:	855e                	mv	a0,s7
   1a716:	3ca010ef          	jal	1bae0 <__clzsi2>
   1a71a:	01550693          	add	a3,a0,21 # 10015 <exit-0x7f>
   1a71e:	4771                	li	a4,28
   1a720:	02050793          	add	a5,a0,32
   1a724:	c6d752e3          	bge	a4,a3,1a388 <__divdf3+0xe8>
   1a728:	1561                	add	a0,a0,-8
   1a72a:	4881                	li	a7,0
   1a72c:	00ab9433          	sll	s0,s7,a0
   1a730:	b1bd                	j	1a39e <__divdf3+0xfe>
   1a732:	3ae010ef          	jal	1bae0 <__clzsi2>
   1a736:	01550693          	add	a3,a0,21
   1a73a:	47f1                	li	a5,28
   1a73c:	02050713          	add	a4,a0,32
   1a740:	ccd7d6e3          	bge	a5,a3,1a40c <__divdf3+0x16c>
   1a744:	ff850793          	add	a5,a0,-8
   1a748:	00f41ab3          	sll	s5,s0,a5
   1a74c:	4b01                	li	s6,0
   1a74e:	b9d9                	j	1a424 <__divdf3+0x184>
   1a750:	f2a796e3          	bne	a5,a0,1a67c <__divdf3+0x3dc>
   1a754:	d00707e3          	beqz	a4,1a462 <__divdf3+0x1c2>
   1a758:	b739                	j	1a666 <__divdf3+0x3c6>
   1a75a:	f8e61fe3          	bne	a2,a4,1a6f8 <__divdf3+0x458>
   1a75e:	f80f09e3          	beqz	t5,1a6f0 <__divdf3+0x450>
   1a762:	847e                	mv	s0,t6
   1a764:	b599                	j	1a5aa <__divdf3+0x30a>
   1a766:	dff773e3          	bgeu	a4,t6,1a54c <__divdf3+0x2ac>
   1a76a:	18f9                	add	a7,a7,-2
   1a76c:	9732                	add	a4,a4,a2
   1a76e:	b3c5                	j	1a54e <__divdf3+0x2ae>
   1a770:	db17f9e3          	bgeu	a5,a7,1a522 <__divdf3+0x282>
   1a774:	1479                	add	s0,s0,-2
   1a776:	97b2                	add	a5,a5,a2
   1a778:	b375                	j	1a524 <__divdf3+0x284>
   1a77a:	467d                	li	a2,31
   1a77c:	f0e656e3          	bge	a2,a4,1a688 <__divdf3+0x3e8>
   1a780:	5605                	li	a2,-31
   1a782:	40f607b3          	sub	a5,a2,a5
   1a786:	02000613          	li	a2,32
   1a78a:	00f457b3          	srl	a5,s0,a5
   1a78e:	00c70863          	beq	a4,a2,1a79e <__divdf3+0x4fe>
   1a792:	43e98993          	add	s3,s3,1086
   1a796:	013419b3          	sll	s3,s0,s3
   1a79a:	0138e8b3          	or	a7,a7,s3
   1a79e:	011038b3          	snez	a7,a7
   1a7a2:	00f8e8b3          	or	a7,a7,a5
   1a7a6:	0078f713          	and	a4,a7,7
   1a7aa:	4601                	li	a2,0
   1a7ac:	c31d                	beqz	a4,1a7d2 <__divdf3+0x532>
   1a7ae:	00f8f793          	and	a5,a7,15
   1a7b2:	4711                	li	a4,4
   1a7b4:	4401                	li	s0,0
   1a7b6:	00e78963          	beq	a5,a4,1a7c8 <__divdf3+0x528>
   1a7ba:	00488793          	add	a5,a7,4
   1a7be:	0117b8b3          	sltu	a7,a5,a7
   1a7c2:	01103433          	snez	s0,a7
   1a7c6:	88be                	mv	a7,a5
   1a7c8:	00941613          	sll	a2,s0,0x9
   1a7cc:	01d41713          	sll	a4,s0,0x1d
   1a7d0:	8231                	srl	a2,a2,0xc
   1a7d2:	0038d893          	srl	a7,a7,0x3
   1a7d6:	00e8e733          	or	a4,a7,a4
   1a7da:	4781                	li	a5,0
   1a7dc:	bef1                	j	1a3b8 <__divdf3+0x118>
   1a7de:	889a                	mv	a7,t1
   1a7e0:	e8a81ee3          	bne	a6,a0,1a67c <__divdf3+0x3dc>
   1a7e4:	c6b70fe3          	beq	a4,a1,1a462 <__divdf3+0x1c2>
   1a7e8:	0018e893          	or	a7,a7,1
   1a7ec:	b99d                	j	1a462 <__divdf3+0x1c2>
   1a7ee:	f0fef5e3          	bgeu	t4,a5,1a6f8 <__divdf3+0x458>
   1a7f2:	9eae                	add	t4,t4,a1
   1a7f4:	00bebf33          	sltu	t5,t4,a1
   1a7f8:	9f32                	add	t5,t5,a2
   1a7fa:	1479                	add	s0,s0,-2
   1a7fc:	8b76                	mv	s6,t4
   1a7fe:	977a                	add	a4,a4,t5
   1a800:	b36d                	j	1a5aa <__divdf3+0x30a>
   1a802:	c0200713          	li	a4,-1022
   1a806:	3ff98793          	add	a5,s3,1023
   1a80a:	58fd                	li	a7,-1
   1a80c:	e6e9cbe3          	blt	s3,a4,1a682 <__divdf3+0x3e2>
   1a810:	00488713          	add	a4,a7,4
   1a814:	011738b3          	sltu	a7,a4,a7
   1a818:	9446                	add	s0,s0,a7
   1a81a:	88ba                	mv	a7,a4
   1a81c:	b999                	j	1a472 <__divdf3+0x1d2>
   1a81e:	00f8f713          	and	a4,a7,15
   1a822:	4611                	li	a2,4
   1a824:	c4c707e3          	beq	a4,a2,1a472 <__divdf3+0x1d2>
   1a828:	b7e5                	j	1a810 <__divdf3+0x570>
   1a82a:	8eba                	mv	t4,a4
   1a82c:	b3f5                	j	1a618 <__divdf3+0x378>
   1a82e:	88f6                	mv	a7,t4
   1a830:	bb6d                	j	1a5ea <__divdf3+0x34a>
   1a832:	86ca                	mv	a3,s2
   1a834:	7ff00793          	li	a5,2047
   1a838:	4601                	li	a2,0
   1a83a:	4701                	li	a4,0
   1a83c:	beb5                	j	1a3b8 <__divdf3+0x118>
   1a83e:	00159313          	sll	t1,a1,0x1
   1a842:	00b33833          	sltu	a6,t1,a1
   1a846:	9832                	add	a6,a6,a2
   1a848:	983e                	add	a6,a6,a5
   1a84a:	18f9                	add	a7,a7,-2
   1a84c:	859a                	mv	a1,t1
   1a84e:	f8a80be3          	beq	a6,a0,1a7e4 <__divdf3+0x544>
   1a852:	b52d                	j	1a67c <__divdf3+0x3dc>
   1a854:	fee5e5e3          	bltu	a1,a4,1a83e <__divdf3+0x59e>
   1a858:	889a                	mv	a7,t1
   1a85a:	f8b717e3          	bne	a4,a1,1a7e8 <__divdf3+0x548>
   1a85e:	b111                	j	1a462 <__divdf3+0x1c2>

0001a860 <__eqdf2>:
   1a860:	0145d713          	srl	a4,a1,0x14
   1a864:	001007b7          	lui	a5,0x100
   1a868:	17fd                	add	a5,a5,-1 # fffff <__BSS_END__+0xe22b7>
   1a86a:	0146d813          	srl	a6,a3,0x14
   1a86e:	7ff77713          	and	a4,a4,2047
   1a872:	7ff00313          	li	t1,2047
   1a876:	00b7fe33          	and	t3,a5,a1
   1a87a:	88aa                	mv	a7,a0
   1a87c:	8ff5                	and	a5,a5,a3
   1a87e:	81fd                	srl	a1,a1,0x1f
   1a880:	7ff87813          	and	a6,a6,2047
   1a884:	82fd                	srl	a3,a3,0x1f
   1a886:	4505                	li	a0,1
   1a888:	00670a63          	beq	a4,t1,1a89c <__eqdf2+0x3c>
   1a88c:	00680763          	beq	a6,t1,1a89a <__eqdf2+0x3a>
   1a890:	01071463          	bne	a4,a6,1a898 <__eqdf2+0x38>
   1a894:	02fe0063          	beq	t3,a5,1a8b4 <__eqdf2+0x54>
   1a898:	8082                	ret
   1a89a:	8082                	ret
   1a89c:	fee81ee3          	bne	a6,a4,1a898 <__eqdf2+0x38>
   1a8a0:	00fe67b3          	or	a5,t3,a5
   1a8a4:	8fd1                	or	a5,a5,a2
   1a8a6:	0117e7b3          	or	a5,a5,a7
   1a8aa:	f7fd                	bnez	a5,1a898 <__eqdf2+0x38>
   1a8ac:	8d95                	sub	a1,a1,a3
   1a8ae:	00b03533          	snez	a0,a1
   1a8b2:	8082                	ret
   1a8b4:	fec892e3          	bne	a7,a2,1a898 <__eqdf2+0x38>
   1a8b8:	00d58863          	beq	a1,a3,1a8c8 <__eqdf2+0x68>
   1a8bc:	ff71                	bnez	a4,1a898 <__eqdf2+0x38>
   1a8be:	011e6e33          	or	t3,t3,a7
   1a8c2:	01c03533          	snez	a0,t3
   1a8c6:	8082                	ret
   1a8c8:	4501                	li	a0,0
   1a8ca:	8082                	ret

0001a8cc <__gedf2>:
   1a8cc:	0145d893          	srl	a7,a1,0x14
   1a8d0:	001007b7          	lui	a5,0x100
   1a8d4:	17fd                	add	a5,a5,-1 # fffff <__BSS_END__+0xe22b7>
   1a8d6:	0146d713          	srl	a4,a3,0x14
   1a8da:	7ff8f893          	and	a7,a7,2047
   1a8de:	7ff00e13          	li	t3,2047
   1a8e2:	00b7f333          	and	t1,a5,a1
   1a8e6:	882a                	mv	a6,a0
   1a8e8:	8eaa                	mv	t4,a0
   1a8ea:	8ff5                	and	a5,a5,a3
   1a8ec:	81fd                	srl	a1,a1,0x1f
   1a8ee:	8f32                	mv	t5,a2
   1a8f0:	7ff77513          	and	a0,a4,2047
   1a8f4:	82fd                	srl	a3,a3,0x1f
   1a8f6:	03c88d63          	beq	a7,t3,1a930 <__gedf2+0x64>
   1a8fa:	01c50e63          	beq	a0,t3,1a916 <__gedf2+0x4a>
   1a8fe:	04089a63          	bnez	a7,1a952 <__gedf2+0x86>
   1a902:	01036833          	or	a6,t1,a6
   1a906:	e129                	bnez	a0,1a948 <__gedf2+0x7c>
   1a908:	8e5d                	or	a2,a2,a5
   1a90a:	ca25                	beqz	a2,1a97a <__gedf2+0xae>
   1a90c:	06081c63          	bnez	a6,1a984 <__gedf2+0xb8>
   1a910:	4505                	li	a0,1
   1a912:	c2b5                	beqz	a3,1a976 <__gedf2+0xaa>
   1a914:	8082                	ret
   1a916:	8e5d                	or	a2,a2,a5
   1a918:	e625                	bnez	a2,1a980 <__gedf2+0xb4>
   1a91a:	00089663          	bnez	a7,1a926 <__gedf2+0x5a>
   1a91e:	01036333          	or	t1,t1,a6
   1a922:	fe0307e3          	beqz	t1,1a910 <__gedf2+0x44>
   1a926:	04d58663          	beq	a1,a3,1a972 <__gedf2+0xa6>
   1a92a:	e5b1                	bnez	a1,1a976 <__gedf2+0xaa>
   1a92c:	4505                	li	a0,1
   1a92e:	8082                	ret
   1a930:	01036333          	or	t1,t1,a6
   1a934:	04031663          	bnez	t1,1a980 <__gedf2+0xb4>
   1a938:	ff1519e3          	bne	a0,a7,1a92a <__gedf2+0x5e>
   1a93c:	8fd1                	or	a5,a5,a2
   1a93e:	e3a9                	bnez	a5,1a980 <__gedf2+0xb4>
   1a940:	fed595e3          	bne	a1,a3,1a92a <__gedf2+0x5e>
   1a944:	4501                	li	a0,0
   1a946:	8082                	ret
   1a948:	fc0804e3          	beqz	a6,1a910 <__gedf2+0x44>
   1a94c:	fcd59fe3          	bne	a1,a3,1a92a <__gedf2+0x5e>
   1a950:	a00d                	j	1a972 <__gedf2+0xa6>
   1a952:	dd61                	beqz	a0,1a92a <__gedf2+0x5e>
   1a954:	fcd59be3          	bne	a1,a3,1a92a <__gedf2+0x5e>
   1a958:	fd1549e3          	blt	a0,a7,1a92a <__gedf2+0x5e>
   1a95c:	00a8cb63          	blt	a7,a0,1a972 <__gedf2+0xa6>
   1a960:	fc67e5e3          	bltu	a5,t1,1a92a <__gedf2+0x5e>
   1a964:	00f31763          	bne	t1,a5,1a972 <__gedf2+0xa6>
   1a968:	fddf61e3          	bltu	t5,t4,1a92a <__gedf2+0x5e>
   1a96c:	4501                	li	a0,0
   1a96e:	fbeef3e3          	bgeu	t4,t5,1a914 <__gedf2+0x48>
   1a972:	4505                	li	a0,1
   1a974:	f1c5                	bnez	a1,1a914 <__gedf2+0x48>
   1a976:	557d                	li	a0,-1
   1a978:	8082                	ret
   1a97a:	fa0818e3          	bnez	a6,1a92a <__gedf2+0x5e>
   1a97e:	8082                	ret
   1a980:	5579                	li	a0,-2
   1a982:	8082                	ret
   1a984:	fcd58ee3          	beq	a1,a3,1a960 <__gedf2+0x94>
   1a988:	b74d                	j	1a92a <__gedf2+0x5e>

0001a98a <__ledf2>:
   1a98a:	0145d893          	srl	a7,a1,0x14
   1a98e:	001007b7          	lui	a5,0x100
   1a992:	17fd                	add	a5,a5,-1 # fffff <__BSS_END__+0xe22b7>
   1a994:	0146d713          	srl	a4,a3,0x14
   1a998:	7ff8f893          	and	a7,a7,2047
   1a99c:	7ff00313          	li	t1,2047
   1a9a0:	00b7fe33          	and	t3,a5,a1
   1a9a4:	882a                	mv	a6,a0
   1a9a6:	8eaa                	mv	t4,a0
   1a9a8:	8ff5                	and	a5,a5,a3
   1a9aa:	81fd                	srl	a1,a1,0x1f
   1a9ac:	8f32                	mv	t5,a2
   1a9ae:	7ff77513          	and	a0,a4,2047
   1a9b2:	82fd                	srl	a3,a3,0x1f
   1a9b4:	02688e63          	beq	a7,t1,1a9f0 <__ledf2+0x66>
   1a9b8:	00650e63          	beq	a0,t1,1a9d4 <__ledf2+0x4a>
   1a9bc:	04089763          	bnez	a7,1aa0a <__ledf2+0x80>
   1a9c0:	010e6833          	or	a6,t3,a6
   1a9c4:	e53d                	bnez	a0,1aa32 <__ledf2+0xa8>
   1a9c6:	8e5d                	or	a2,a2,a5
   1a9c8:	ce25                	beqz	a2,1aa40 <__ledf2+0xb6>
   1a9ca:	06081e63          	bnez	a6,1aa46 <__ledf2+0xbc>
   1a9ce:	4505                	li	a0,1
   1a9d0:	ceb9                	beqz	a3,1aa2e <__ledf2+0xa4>
   1a9d2:	8082                	ret
   1a9d4:	8e5d                	or	a2,a2,a5
   1a9d6:	4509                	li	a0,2
   1a9d8:	fe6d                	bnez	a2,1a9d2 <__ledf2+0x48>
   1a9da:	00089663          	bnez	a7,1a9e6 <__ledf2+0x5c>
   1a9de:	010e6e33          	or	t3,t3,a6
   1a9e2:	fe0e06e3          	beqz	t3,1a9ce <__ledf2+0x44>
   1a9e6:	04d58263          	beq	a1,a3,1aa2a <__ledf2+0xa0>
   1a9ea:	e1b1                	bnez	a1,1aa2e <__ledf2+0xa4>
   1a9ec:	4505                	li	a0,1
   1a9ee:	8082                	ret
   1a9f0:	010e6e33          	or	t3,t3,a6
   1a9f4:	040e1463          	bnez	t3,1aa3c <__ledf2+0xb2>
   1a9f8:	ff1519e3          	bne	a0,a7,1a9ea <__ledf2+0x60>
   1a9fc:	8fd1                	or	a5,a5,a2
   1a9fe:	4509                	li	a0,2
   1aa00:	fbe9                	bnez	a5,1a9d2 <__ledf2+0x48>
   1aa02:	fed594e3          	bne	a1,a3,1a9ea <__ledf2+0x60>
   1aa06:	4501                	li	a0,0
   1aa08:	8082                	ret
   1aa0a:	d165                	beqz	a0,1a9ea <__ledf2+0x60>
   1aa0c:	fcd59fe3          	bne	a1,a3,1a9ea <__ledf2+0x60>
   1aa10:	fd154de3          	blt	a0,a7,1a9ea <__ledf2+0x60>
   1aa14:	00a8cb63          	blt	a7,a0,1aa2a <__ledf2+0xa0>
   1aa18:	fdc7e9e3          	bltu	a5,t3,1a9ea <__ledf2+0x60>
   1aa1c:	00fe1763          	bne	t3,a5,1aa2a <__ledf2+0xa0>
   1aa20:	fddf65e3          	bltu	t5,t4,1a9ea <__ledf2+0x60>
   1aa24:	4501                	li	a0,0
   1aa26:	fbeef6e3          	bgeu	t4,t5,1a9d2 <__ledf2+0x48>
   1aa2a:	4505                	li	a0,1
   1aa2c:	f1dd                	bnez	a1,1a9d2 <__ledf2+0x48>
   1aa2e:	557d                	li	a0,-1
   1aa30:	8082                	ret
   1aa32:	f8080ee3          	beqz	a6,1a9ce <__ledf2+0x44>
   1aa36:	fad59ae3          	bne	a1,a3,1a9ea <__ledf2+0x60>
   1aa3a:	bfc5                	j	1aa2a <__ledf2+0xa0>
   1aa3c:	4509                	li	a0,2
   1aa3e:	8082                	ret
   1aa40:	fa0815e3          	bnez	a6,1a9ea <__ledf2+0x60>
   1aa44:	8082                	ret
   1aa46:	fcd589e3          	beq	a1,a3,1aa18 <__ledf2+0x8e>
   1aa4a:	b745                	j	1a9ea <__ledf2+0x60>

0001aa4c <__muldf3>:
   1aa4c:	7179                	add	sp,sp,-48
   1aa4e:	0145d793          	srl	a5,a1,0x14
   1aa52:	d422                	sw	s0,40(sp)
   1aa54:	d226                	sw	s1,36(sp)
   1aa56:	d04a                	sw	s2,32(sp)
   1aa58:	ce4e                	sw	s3,28(sp)
   1aa5a:	ca56                	sw	s5,20(sp)
   1aa5c:	00c59493          	sll	s1,a1,0xc
   1aa60:	d606                	sw	ra,44(sp)
   1aa62:	cc52                	sw	s4,24(sp)
   1aa64:	c85a                	sw	s6,16(sp)
   1aa66:	c65e                	sw	s7,12(sp)
   1aa68:	c462                	sw	s8,8(sp)
   1aa6a:	7ff7f793          	and	a5,a5,2047
   1aa6e:	842a                	mv	s0,a0
   1aa70:	8ab2                	mv	s5,a2
   1aa72:	89b6                	mv	s3,a3
   1aa74:	80b1                	srl	s1,s1,0xc
   1aa76:	01f5d913          	srl	s2,a1,0x1f
   1aa7a:	32078f63          	beqz	a5,1adb8 <__muldf3+0x36c>
   1aa7e:	7ff00713          	li	a4,2047
   1aa82:	08e78663          	beq	a5,a4,1ab0e <__muldf3+0xc2>
   1aa86:	00349693          	sll	a3,s1,0x3
   1aa8a:	01d55713          	srl	a4,a0,0x1d
   1aa8e:	8f55                	or	a4,a4,a3
   1aa90:	008006b7          	lui	a3,0x800
   1aa94:	00d764b3          	or	s1,a4,a3
   1aa98:	00351a13          	sll	s4,a0,0x3
   1aa9c:	c0178c13          	add	s8,a5,-1023
   1aaa0:	4b01                	li	s6,0
   1aaa2:	4b81                	li	s7,0
   1aaa4:	0149d793          	srl	a5,s3,0x14
   1aaa8:	00c99713          	sll	a4,s3,0xc
   1aaac:	7ff7f793          	and	a5,a5,2047
   1aab0:	8f56                	mv	t5,s5
   1aab2:	00c75413          	srl	s0,a4,0xc
   1aab6:	01f9d993          	srl	s3,s3,0x1f
   1aaba:	cfbd                	beqz	a5,1ab38 <__muldf3+0xec>
   1aabc:	7ff00713          	li	a4,2047
   1aac0:	0ee78f63          	beq	a5,a4,1abbe <__muldf3+0x172>
   1aac4:	00341713          	sll	a4,s0,0x3
   1aac8:	01dad593          	srl	a1,s5,0x1d
   1aacc:	8dd9                	or	a1,a1,a4
   1aace:	c0178793          	add	a5,a5,-1023
   1aad2:	00800737          	lui	a4,0x800
   1aad6:	00e5e433          	or	s0,a1,a4
   1aada:	003a9f13          	sll	t5,s5,0x3
   1aade:	018788b3          	add	a7,a5,s8
   1aae2:	4301                	li	t1,0
   1aae4:	4729                	li	a4,10
   1aae6:	00188513          	add	a0,a7,1
   1aaea:	09674963          	blt	a4,s6,1ab7c <__muldf3+0x130>
   1aaee:	013945b3          	xor	a1,s2,s3
   1aaf2:	4789                	li	a5,2
   1aaf4:	882e                	mv	a6,a1
   1aaf6:	0f67c863          	blt	a5,s6,1abe6 <__muldf3+0x19a>
   1aafa:	1b7d                	add	s6,s6,-1
   1aafc:	4705                	li	a4,1
   1aafe:	11676263          	bltu	a4,s6,1ac02 <__muldf3+0x1b6>
   1ab02:	2ef30963          	beq	t1,a5,1adf4 <__muldf3+0x3a8>
   1ab06:	84a2                	mv	s1,s0
   1ab08:	8a7a                	mv	s4,t5
   1ab0a:	8b9a                	mv	s7,t1
   1ab0c:	a8bd                	j	1ab8a <__muldf3+0x13e>
   1ab0e:	00a4ea33          	or	s4,s1,a0
   1ab12:	2e0a1763          	bnez	s4,1ae00 <__muldf3+0x3b4>
   1ab16:	0149d793          	srl	a5,s3,0x14
   1ab1a:	00c99713          	sll	a4,s3,0xc
   1ab1e:	7ff7f793          	and	a5,a5,2047
   1ab22:	4481                	li	s1,0
   1ab24:	4b21                	li	s6,8
   1ab26:	7ff00c13          	li	s8,2047
   1ab2a:	4b89                	li	s7,2
   1ab2c:	8f56                	mv	t5,s5
   1ab2e:	00c75413          	srl	s0,a4,0xc
   1ab32:	01f9d993          	srl	s3,s3,0x1f
   1ab36:	f3d9                	bnez	a5,1aabc <__muldf3+0x70>
   1ab38:	015467b3          	or	a5,s0,s5
   1ab3c:	2c078d63          	beqz	a5,1ae16 <__muldf3+0x3ca>
   1ab40:	36040a63          	beqz	s0,1aeb4 <__muldf3+0x468>
   1ab44:	8522                	mv	a0,s0
   1ab46:	79b000ef          	jal	1bae0 <__clzsi2>
   1ab4a:	88aa                	mv	a7,a0
   1ab4c:	ff550713          	add	a4,a0,-11
   1ab50:	47f5                	li	a5,29
   1ab52:	ff888f13          	add	t5,a7,-8
   1ab56:	8f99                	sub	a5,a5,a4
   1ab58:	00fad7b3          	srl	a5,s5,a5
   1ab5c:	01e41733          	sll	a4,s0,t5
   1ab60:	00e7e433          	or	s0,a5,a4
   1ab64:	01ea9f33          	sll	t5,s5,t5
   1ab68:	411c08b3          	sub	a7,s8,a7
   1ab6c:	c0d88893          	add	a7,a7,-1011
   1ab70:	4729                	li	a4,10
   1ab72:	4301                	li	t1,0
   1ab74:	00188513          	add	a0,a7,1
   1ab78:	f7675be3          	bge	a4,s6,1aaee <__muldf3+0xa2>
   1ab7c:	85ca                	mv	a1,s2
   1ab7e:	4789                	li	a5,2
   1ab80:	26fb8a63          	beq	s7,a5,1adf4 <__muldf3+0x3a8>
   1ab84:	478d                	li	a5,3
   1ab86:	36fb8363          	beq	s7,a5,1aeec <__muldf3+0x4a0>
   1ab8a:	4785                	li	a5,1
   1ab8c:	882e                	mv	a6,a1
   1ab8e:	34fb9863          	bne	s7,a5,1aede <__muldf3+0x492>
   1ab92:	4781                	li	a5,0
   1ab94:	4681                	li	a3,0
   1ab96:	4701                	li	a4,0
   1ab98:	50b2                	lw	ra,44(sp)
   1ab9a:	5422                	lw	s0,40(sp)
   1ab9c:	07d2                	sll	a5,a5,0x14
   1ab9e:	8fd5                	or	a5,a5,a3
   1aba0:	01f81693          	sll	a3,a6,0x1f
   1aba4:	8fd5                	or	a5,a5,a3
   1aba6:	5492                	lw	s1,36(sp)
   1aba8:	5902                	lw	s2,32(sp)
   1abaa:	49f2                	lw	s3,28(sp)
   1abac:	4a62                	lw	s4,24(sp)
   1abae:	4ad2                	lw	s5,20(sp)
   1abb0:	4b42                	lw	s6,16(sp)
   1abb2:	4bb2                	lw	s7,12(sp)
   1abb4:	4c22                	lw	s8,8(sp)
   1abb6:	853a                	mv	a0,a4
   1abb8:	85be                	mv	a1,a5
   1abba:	6145                	add	sp,sp,48
   1abbc:	8082                	ret
   1abbe:	01546733          	or	a4,s0,s5
   1abc2:	7ffc0893          	add	a7,s8,2047
   1abc6:	24070f63          	beqz	a4,1ae24 <__muldf3+0x3d8>
   1abca:	6705                	lui	a4,0x1
   1abcc:	01394833          	xor	a6,s2,s3
   1abd0:	80070713          	add	a4,a4,-2048 # 800 <exit-0xf894>
   1abd4:	003b6b13          	or	s6,s6,3
   1abd8:	46a9                	li	a3,10
   1abda:	85c2                	mv	a1,a6
   1abdc:	00ec0533          	add	a0,s8,a4
   1abe0:	2b66c463          	blt	a3,s6,1ae88 <__muldf3+0x43c>
   1abe4:	430d                	li	t1,3
   1abe6:	4605                	li	a2,1
   1abe8:	01661633          	sll	a2,a2,s6
   1abec:	53067713          	and	a4,a2,1328
   1abf0:	f759                	bnez	a4,1ab7e <__muldf3+0x132>
   1abf2:	24067793          	and	a5,a2,576
   1abf6:	2c079e63          	bnez	a5,1aed2 <__muldf3+0x486>
   1abfa:	08867613          	and	a2,a2,136
   1abfe:	22061963          	bnez	a2,1ae30 <__muldf3+0x3e4>
   1ac02:	6fc1                	lui	t6,0x10
   1ac04:	ffff8e93          	add	t4,t6,-1 # ffff <exit-0x95>
   1ac08:	01da77b3          	and	a5,s4,t4
   1ac0c:	010a5693          	srl	a3,s4,0x10
   1ac10:	01df7eb3          	and	t4,t5,t4
   1ac14:	010f5e13          	srl	t3,t5,0x10
   1ac18:	03d78733          	mul	a4,a5,t4
   1ac1c:	03d68333          	mul	t1,a3,t4
   1ac20:	01075593          	srl	a1,a4,0x10
   1ac24:	02fe0633          	mul	a2,t3,a5
   1ac28:	961a                	add	a2,a2,t1
   1ac2a:	95b2                	add	a1,a1,a2
   1ac2c:	03c68f33          	mul	t5,a3,t3
   1ac30:	0065f363          	bgeu	a1,t1,1ac36 <__muldf3+0x1ea>
   1ac34:	9f7e                	add	t5,t5,t6
   1ac36:	63c1                	lui	t2,0x10
   1ac38:	fff38613          	add	a2,t2,-1 # ffff <exit-0x95>
   1ac3c:	00c5f333          	and	t1,a1,a2
   1ac40:	01045f93          	srl	t6,s0,0x10
   1ac44:	8f71                	and	a4,a4,a2
   1ac46:	8c71                	and	s0,s0,a2
   1ac48:	0342                	sll	t1,t1,0x10
   1ac4a:	028782b3          	mul	t0,a5,s0
   1ac4e:	933a                	add	t1,t1,a4
   1ac50:	81c1                	srl	a1,a1,0x10
   1ac52:	02868733          	mul	a4,a3,s0
   1ac56:	0102d613          	srl	a2,t0,0x10
   1ac5a:	02ff87b3          	mul	a5,t6,a5
   1ac5e:	97ba                	add	a5,a5,a4
   1ac60:	963e                	add	a2,a2,a5
   1ac62:	03f687b3          	mul	a5,a3,t6
   1ac66:	00e67363          	bgeu	a2,a4,1ac6c <__muldf3+0x220>
   1ac6a:	979e                	add	a5,a5,t2
   1ac6c:	6941                	lui	s2,0x10
   1ac6e:	fff90993          	add	s3,s2,-1 # ffff <exit-0x95>
   1ac72:	01367733          	and	a4,a2,s3
   1ac76:	0104d393          	srl	t2,s1,0x10
   1ac7a:	0134f6b3          	and	a3,s1,s3
   1ac7e:	0132f2b3          	and	t0,t0,s3
   1ac82:	0742                	sll	a4,a4,0x10
   1ac84:	02de84b3          	mul	s1,t4,a3
   1ac88:	9716                	add	a4,a4,t0
   1ac8a:	8241                	srl	a2,a2,0x10
   1ac8c:	963e                	add	a2,a2,a5
   1ac8e:	95ba                	add	a1,a1,a4
   1ac90:	02de02b3          	mul	t0,t3,a3
   1ac94:	0104d793          	srl	a5,s1,0x10
   1ac98:	03d38eb3          	mul	t4,t2,t4
   1ac9c:	92f6                	add	t0,t0,t4
   1ac9e:	9796                	add	a5,a5,t0
   1aca0:	027e0e33          	mul	t3,t3,t2
   1aca4:	01d7f363          	bgeu	a5,t4,1acaa <__muldf3+0x25e>
   1aca8:	9e4a                	add	t3,t3,s2
   1acaa:	69c1                	lui	s3,0x10
   1acac:	fff98e93          	add	t4,s3,-1 # ffff <exit-0x95>
   1acb0:	01d7f2b3          	and	t0,a5,t4
   1acb4:	83c1                	srl	a5,a5,0x10
   1acb6:	97f2                	add	a5,a5,t3
   1acb8:	01d4feb3          	and	t4,s1,t4
   1acbc:	02c2                	sll	t0,t0,0x10
   1acbe:	02d40933          	mul	s2,s0,a3
   1acc2:	92f6                	add	t0,t0,t4
   1acc4:	02838433          	mul	s0,t2,s0
   1acc8:	01095e13          	srl	t3,s2,0x10
   1accc:	02df86b3          	mul	a3,t6,a3
   1acd0:	96a2                	add	a3,a3,s0
   1acd2:	9e36                	add	t3,t3,a3
   1acd4:	027f8eb3          	mul	t4,t6,t2
   1acd8:	008e7363          	bgeu	t3,s0,1acde <__muldf3+0x292>
   1acdc:	9ece                	add	t4,t4,s3
   1acde:	6fc1                	lui	t6,0x10
   1ace0:	1ffd                	add	t6,t6,-1 # ffff <exit-0x95>
   1ace2:	01fe76b3          	and	a3,t3,t6
   1ace6:	06c2                	sll	a3,a3,0x10
   1ace8:	01f97933          	and	s2,s2,t6
   1acec:	95fa                	add	a1,a1,t5
   1acee:	96ca                	add	a3,a3,s2
   1acf0:	9636                	add	a2,a2,a3
   1acf2:	00e5b733          	sltu	a4,a1,a4
   1acf6:	9732                	add	a4,a4,a2
   1acf8:	00558f33          	add	t5,a1,t0
   1acfc:	97ba                	add	a5,a5,a4
   1acfe:	00bf35b3          	sltu	a1,t5,a1
   1ad02:	95be                	add	a1,a1,a5
   1ad04:	00d636b3          	sltu	a3,a2,a3
   1ad08:	00c73633          	sltu	a2,a4,a2
   1ad0c:	8ed1                	or	a3,a3,a2
   1ad0e:	00e7b733          	sltu	a4,a5,a4
   1ad12:	010e5e13          	srl	t3,t3,0x10
   1ad16:	00f5b7b3          	sltu	a5,a1,a5
   1ad1a:	96f2                	add	a3,a3,t3
   1ad1c:	8f5d                	or	a4,a4,a5
   1ad1e:	009f1793          	sll	a5,t5,0x9
   1ad22:	9736                	add	a4,a4,a3
   1ad24:	0067e7b3          	or	a5,a5,t1
   1ad28:	9776                	add	a4,a4,t4
   1ad2a:	00f037b3          	snez	a5,a5
   1ad2e:	017f5613          	srl	a2,t5,0x17
   1ad32:	0726                	sll	a4,a4,0x9
   1ad34:	0175d693          	srl	a3,a1,0x17
   1ad38:	8fd1                	or	a5,a5,a2
   1ad3a:	05a6                	sll	a1,a1,0x9
   1ad3c:	00b7ea33          	or	s4,a5,a1
   1ad40:	00771793          	sll	a5,a4,0x7
   1ad44:	00d764b3          	or	s1,a4,a3
   1ad48:	0007dd63          	bgez	a5,1ad62 <__muldf3+0x316>
   1ad4c:	001a5713          	srl	a4,s4,0x1
   1ad50:	001a7793          	and	a5,s4,1
   1ad54:	01f49693          	sll	a3,s1,0x1f
   1ad58:	8fd9                	or	a5,a5,a4
   1ad5a:	00d7ea33          	or	s4,a5,a3
   1ad5e:	8085                	srl	s1,s1,0x1
   1ad60:	88aa                	mv	a7,a0
   1ad62:	3ff88613          	add	a2,a7,1023
   1ad66:	0cc05a63          	blez	a2,1ae3a <__muldf3+0x3ee>
   1ad6a:	007a7793          	and	a5,s4,7
   1ad6e:	cf81                	beqz	a5,1ad86 <__muldf3+0x33a>
   1ad70:	00fa7793          	and	a5,s4,15
   1ad74:	4711                	li	a4,4
   1ad76:	00e78863          	beq	a5,a4,1ad86 <__muldf3+0x33a>
   1ad7a:	004a0713          	add	a4,s4,4
   1ad7e:	014737b3          	sltu	a5,a4,s4
   1ad82:	94be                	add	s1,s1,a5
   1ad84:	8a3a                	mv	s4,a4
   1ad86:	00749793          	sll	a5,s1,0x7
   1ad8a:	0007d863          	bgez	a5,1ad9a <__muldf3+0x34e>
   1ad8e:	ff0007b7          	lui	a5,0xff000
   1ad92:	17fd                	add	a5,a5,-1 # feffffff <__BSS_END__+0xfefe22b7>
   1ad94:	8cfd                	and	s1,s1,a5
   1ad96:	40088613          	add	a2,a7,1024
   1ad9a:	7fe00793          	li	a5,2046
   1ad9e:	14c7c263          	blt	a5,a2,1aee2 <__muldf3+0x496>
   1ada2:	003a5793          	srl	a5,s4,0x3
   1ada6:	01d49713          	sll	a4,s1,0x1d
   1adaa:	00949693          	sll	a3,s1,0x9
   1adae:	8f5d                	or	a4,a4,a5
   1adb0:	82b1                	srl	a3,a3,0xc
   1adb2:	7ff67793          	and	a5,a2,2047
   1adb6:	b3cd                	j	1ab98 <__muldf3+0x14c>
   1adb8:	00a4ea33          	or	s4,s1,a0
   1adbc:	040a0863          	beqz	s4,1ae0c <__muldf3+0x3c0>
   1adc0:	cce1                	beqz	s1,1ae98 <__muldf3+0x44c>
   1adc2:	8526                	mv	a0,s1
   1adc4:	51d000ef          	jal	1bae0 <__clzsi2>
   1adc8:	862a                	mv	a2,a0
   1adca:	ff550693          	add	a3,a0,-11
   1adce:	4775                	li	a4,29
   1add0:	ff860793          	add	a5,a2,-8 # 7fff8 <__BSS_END__+0x622b0>
   1add4:	8f15                	sub	a4,a4,a3
   1add6:	00e45733          	srl	a4,s0,a4
   1adda:	00f496b3          	sll	a3,s1,a5
   1adde:	00d764b3          	or	s1,a4,a3
   1ade2:	00f41a33          	sll	s4,s0,a5
   1ade6:	c0d00793          	li	a5,-1011
   1adea:	40c78c33          	sub	s8,a5,a2
   1adee:	4b01                	li	s6,0
   1adf0:	4b81                	li	s7,0
   1adf2:	b94d                	j	1aaa4 <__muldf3+0x58>
   1adf4:	882e                	mv	a6,a1
   1adf6:	7ff00793          	li	a5,2047
   1adfa:	4681                	li	a3,0
   1adfc:	4701                	li	a4,0
   1adfe:	bb69                	j	1ab98 <__muldf3+0x14c>
   1ae00:	8a2a                	mv	s4,a0
   1ae02:	4b31                	li	s6,12
   1ae04:	7ff00c13          	li	s8,2047
   1ae08:	4b8d                	li	s7,3
   1ae0a:	b969                	j	1aaa4 <__muldf3+0x58>
   1ae0c:	4481                	li	s1,0
   1ae0e:	4b11                	li	s6,4
   1ae10:	4c01                	li	s8,0
   1ae12:	4b85                	li	s7,1
   1ae14:	b941                	j	1aaa4 <__muldf3+0x58>
   1ae16:	001b6b13          	or	s6,s6,1
   1ae1a:	88e2                	mv	a7,s8
   1ae1c:	4401                	li	s0,0
   1ae1e:	4f01                	li	t5,0
   1ae20:	4305                	li	t1,1
   1ae22:	b1c9                	j	1aae4 <__muldf3+0x98>
   1ae24:	002b6b13          	or	s6,s6,2
   1ae28:	4401                	li	s0,0
   1ae2a:	4f01                	li	t5,0
   1ae2c:	4309                	li	t1,2
   1ae2e:	b95d                	j	1aae4 <__muldf3+0x98>
   1ae30:	84a2                	mv	s1,s0
   1ae32:	8a7a                	mv	s4,t5
   1ae34:	8b9a                	mv	s7,t1
   1ae36:	85ce                	mv	a1,s3
   1ae38:	b399                	j	1ab7e <__muldf3+0x132>
   1ae3a:	4705                	li	a4,1
   1ae3c:	ee5d                	bnez	a2,1aefa <__muldf3+0x4ae>
   1ae3e:	41e88893          	add	a7,a7,1054
   1ae42:	011a1633          	sll	a2,s4,a7
   1ae46:	00c03633          	snez	a2,a2
   1ae4a:	011498b3          	sll	a7,s1,a7
   1ae4e:	00ea57b3          	srl	a5,s4,a4
   1ae52:	01166633          	or	a2,a2,a7
   1ae56:	8e5d                	or	a2,a2,a5
   1ae58:	00767793          	and	a5,a2,7
   1ae5c:	00e4d5b3          	srl	a1,s1,a4
   1ae60:	cf81                	beqz	a5,1ae78 <__muldf3+0x42c>
   1ae62:	00f67793          	and	a5,a2,15
   1ae66:	4711                	li	a4,4
   1ae68:	00e78863          	beq	a5,a4,1ae78 <__muldf3+0x42c>
   1ae6c:	00460793          	add	a5,a2,4
   1ae70:	00c7b633          	sltu	a2,a5,a2
   1ae74:	95b2                	add	a1,a1,a2
   1ae76:	863e                	mv	a2,a5
   1ae78:	00859513          	sll	a0,a1,0x8
   1ae7c:	4785                	li	a5,1
   1ae7e:	4681                	li	a3,0
   1ae80:	4701                	li	a4,0
   1ae82:	d0054be3          	bltz	a0,1ab98 <__muldf3+0x14c>
   1ae86:	a0e1                	j	1af4e <__muldf3+0x502>
   1ae88:	473d                	li	a4,15
   1ae8a:	0ceb1b63          	bne	s6,a4,1af60 <__muldf3+0x514>
   1ae8e:	4801                	li	a6,0
   1ae90:	000806b7          	lui	a3,0x80
   1ae94:	4701                	li	a4,0
   1ae96:	b309                	j	1ab98 <__muldf3+0x14c>
   1ae98:	449000ef          	jal	1bae0 <__clzsi2>
   1ae9c:	01550693          	add	a3,a0,21
   1aea0:	47f1                	li	a5,28
   1aea2:	02050613          	add	a2,a0,32
   1aea6:	f2d7d4e3          	bge	a5,a3,1adce <__muldf3+0x382>
   1aeaa:	1561                	add	a0,a0,-8
   1aeac:	4a01                	li	s4,0
   1aeae:	00a414b3          	sll	s1,s0,a0
   1aeb2:	bf15                	j	1ade6 <__muldf3+0x39a>
   1aeb4:	8556                	mv	a0,s5
   1aeb6:	42b000ef          	jal	1bae0 <__clzsi2>
   1aeba:	01550713          	add	a4,a0,21
   1aebe:	47f1                	li	a5,28
   1aec0:	02050893          	add	a7,a0,32
   1aec4:	c8e7d6e3          	bge	a5,a4,1ab50 <__muldf3+0x104>
   1aec8:	1561                	add	a0,a0,-8
   1aeca:	4f01                	li	t5,0
   1aecc:	00aa9433          	sll	s0,s5,a0
   1aed0:	b961                	j	1ab68 <__muldf3+0x11c>
   1aed2:	4801                	li	a6,0
   1aed4:	7ff00793          	li	a5,2047
   1aed8:	000806b7          	lui	a3,0x80
   1aedc:	b975                	j	1ab98 <__muldf3+0x14c>
   1aede:	88aa                	mv	a7,a0
   1aee0:	b549                	j	1ad62 <__muldf3+0x316>
   1aee2:	7ff00793          	li	a5,2047
   1aee6:	4681                	li	a3,0
   1aee8:	4701                	li	a4,0
   1aeea:	b17d                	j	1ab98 <__muldf3+0x14c>
   1aeec:	4801                	li	a6,0
   1aeee:	7ff00793          	li	a5,2047
   1aef2:	000806b7          	lui	a3,0x80
   1aef6:	4701                	li	a4,0
   1aef8:	b145                	j	1ab98 <__muldf3+0x14c>
   1aefa:	8f11                	sub	a4,a4,a2
   1aefc:	03800793          	li	a5,56
   1af00:	c8e7c9e3          	blt	a5,a4,1ab92 <__muldf3+0x146>
   1af04:	47fd                	li	a5,31
   1af06:	f2e7dce3          	bge	a5,a4,1ae3e <__muldf3+0x3f2>
   1af0a:	5785                	li	a5,-31
   1af0c:	8f91                	sub	a5,a5,a2
   1af0e:	02000693          	li	a3,32
   1af12:	00f4d7b3          	srl	a5,s1,a5
   1af16:	00d70863          	beq	a4,a3,1af26 <__muldf3+0x4da>
   1af1a:	43e88893          	add	a7,a7,1086
   1af1e:	011498b3          	sll	a7,s1,a7
   1af22:	011a6a33          	or	s4,s4,a7
   1af26:	01403633          	snez	a2,s4
   1af2a:	8e5d                	or	a2,a2,a5
   1af2c:	00767713          	and	a4,a2,7
   1af30:	4681                	li	a3,0
   1af32:	c31d                	beqz	a4,1af58 <__muldf3+0x50c>
   1af34:	00f67793          	and	a5,a2,15
   1af38:	4711                	li	a4,4
   1af3a:	4581                	li	a1,0
   1af3c:	00e78963          	beq	a5,a4,1af4e <__muldf3+0x502>
   1af40:	00460793          	add	a5,a2,4
   1af44:	00c7b633          	sltu	a2,a5,a2
   1af48:	00c035b3          	snez	a1,a2
   1af4c:	863e                	mv	a2,a5
   1af4e:	00959693          	sll	a3,a1,0x9
   1af52:	01d59713          	sll	a4,a1,0x1d
   1af56:	82b1                	srl	a3,a3,0xc
   1af58:	820d                	srl	a2,a2,0x3
   1af5a:	8f51                	or	a4,a4,a2
   1af5c:	4781                	li	a5,0
   1af5e:	b92d                	j	1ab98 <__muldf3+0x14c>
   1af60:	84a2                	mv	s1,s0
   1af62:	8a56                	mv	s4,s5
   1af64:	4b8d                	li	s7,3
   1af66:	85ce                	mv	a1,s3
   1af68:	b919                	j	1ab7e <__muldf3+0x132>

0001af6a <__subdf3>:
   1af6a:	001007b7          	lui	a5,0x100
   1af6e:	17fd                	add	a5,a5,-1 # fffff <__BSS_END__+0xe22b7>
   1af70:	1101                	add	sp,sp,-32
   1af72:	00b7f8b3          	and	a7,a5,a1
   1af76:	00d7f833          	and	a6,a5,a3
   1af7a:	0146d793          	srl	a5,a3,0x14
   1af7e:	088e                	sll	a7,a7,0x3
   1af80:	cc22                	sw	s0,24(sp)
   1af82:	c64e                	sw	s3,12(sp)
   1af84:	01f5d413          	srl	s0,a1,0x1f
   1af88:	0145d993          	srl	s3,a1,0x14
   1af8c:	01d55713          	srl	a4,a0,0x1d
   1af90:	080e                	sll	a6,a6,0x3
   1af92:	01d65593          	srl	a1,a2,0x1d
   1af96:	ce06                	sw	ra,28(sp)
   1af98:	ca26                	sw	s1,20(sp)
   1af9a:	c84a                	sw	s2,16(sp)
   1af9c:	7ff7ff13          	and	t5,a5,2047
   1afa0:	7ff00313          	li	t1,2047
   1afa4:	01176733          	or	a4,a4,a7
   1afa8:	7ff9f993          	and	s3,s3,2047
   1afac:	8e22                	mv	t3,s0
   1afae:	00351893          	sll	a7,a0,0x3
   1afb2:	82fd                	srl	a3,a3,0x1f
   1afb4:	0105e5b3          	or	a1,a1,a6
   1afb8:	00361e93          	sll	t4,a2,0x3
   1afbc:	1c6f0163          	beq	t5,t1,1b17e <__subdf3+0x214>
   1afc0:	0016c693          	xor	a3,a3,1
   1afc4:	41e987b3          	sub	a5,s3,t5
   1afc8:	12d40263          	beq	s0,a3,1b0ec <__subdf3+0x182>
   1afcc:	68f05963          	blez	a5,1b65e <__subdf3+0x6f4>
   1afd0:	1e0f0763          	beqz	t5,1b1be <__subdf3+0x254>
   1afd4:	32698563          	beq	s3,t1,1b2fe <__subdf3+0x394>
   1afd8:	03800693          	li	a3,56
   1afdc:	4505                	li	a0,1
   1afde:	02f6c863          	blt	a3,a5,1b00e <__subdf3+0xa4>
   1afe2:	008006b7          	lui	a3,0x800
   1afe6:	8dd5                	or	a1,a1,a3
   1afe8:	46fd                	li	a3,31
   1afea:	40f6cb63          	blt	a3,a5,1b400 <__subdf3+0x496>
   1afee:	02000693          	li	a3,32
   1aff2:	8e9d                	sub	a3,a3,a5
   1aff4:	00d59533          	sll	a0,a1,a3
   1aff8:	00fed633          	srl	a2,t4,a5
   1affc:	00de96b3          	sll	a3,t4,a3
   1b000:	8d51                	or	a0,a0,a2
   1b002:	00d036b3          	snez	a3,a3
   1b006:	00f5d7b3          	srl	a5,a1,a5
   1b00a:	8d55                	or	a0,a0,a3
   1b00c:	8f1d                	sub	a4,a4,a5
   1b00e:	40a88533          	sub	a0,a7,a0
   1b012:	00a8b633          	sltu	a2,a7,a0
   1b016:	84aa                	mv	s1,a0
   1b018:	40c70933          	sub	s2,a4,a2
   1b01c:	00891793          	sll	a5,s2,0x8
   1b020:	2c07d463          	bgez	a5,1b2e8 <__subdf3+0x37e>
   1b024:	008007b7          	lui	a5,0x800
   1b028:	17fd                	add	a5,a5,-1 # 7fffff <__BSS_END__+0x7e22b7>
   1b02a:	00f97933          	and	s2,s2,a5
   1b02e:	26090863          	beqz	s2,1b29e <__subdf3+0x334>
   1b032:	854a                	mv	a0,s2
   1b034:	2ad000ef          	jal	1bae0 <__clzsi2>
   1b038:	ff850793          	add	a5,a0,-8
   1b03c:	02000693          	li	a3,32
   1b040:	40f68733          	sub	a4,a3,a5
   1b044:	00e4d733          	srl	a4,s1,a4
   1b048:	00f91933          	sll	s2,s2,a5
   1b04c:	01276733          	or	a4,a4,s2
   1b050:	00f494b3          	sll	s1,s1,a5
   1b054:	3337cd63          	blt	a5,s3,1b38e <__subdf3+0x424>
   1b058:	413787b3          	sub	a5,a5,s3
   1b05c:	0785                	add	a5,a5,1
   1b05e:	8e9d                	sub	a3,a3,a5
   1b060:	00d49633          	sll	a2,s1,a3
   1b064:	00f4d933          	srl	s2,s1,a5
   1b068:	00c03633          	snez	a2,a2
   1b06c:	00c96633          	or	a2,s2,a2
   1b070:	00d716b3          	sll	a3,a4,a3
   1b074:	00c6e4b3          	or	s1,a3,a2
   1b078:	00f75933          	srl	s2,a4,a5
   1b07c:	4981                	li	s3,0
   1b07e:	0074f793          	and	a5,s1,7
   1b082:	cf81                	beqz	a5,1b09a <__subdf3+0x130>
   1b084:	00f4f793          	and	a5,s1,15
   1b088:	4711                	li	a4,4
   1b08a:	00e78863          	beq	a5,a4,1b09a <__subdf3+0x130>
   1b08e:	00448793          	add	a5,s1,4
   1b092:	0097b533          	sltu	a0,a5,s1
   1b096:	992a                	add	s2,s2,a0
   1b098:	84be                	mv	s1,a5
   1b09a:	00891793          	sll	a5,s2,0x8
   1b09e:	5607de63          	bgez	a5,1b61a <__subdf3+0x6b0>
   1b0a2:	00198793          	add	a5,s3,1
   1b0a6:	7ff00713          	li	a4,2047
   1b0aa:	1ee78363          	beq	a5,a4,1b290 <__subdf3+0x326>
   1b0ae:	ff800737          	lui	a4,0xff800
   1b0b2:	177d                	add	a4,a4,-1 # ff7fffff <__BSS_END__+0xff7e22b7>
   1b0b4:	00e97733          	and	a4,s2,a4
   1b0b8:	7ff7f793          	and	a5,a5,2047
   1b0bc:	01d71813          	sll	a6,a4,0x1d
   1b0c0:	0034d513          	srl	a0,s1,0x3
   1b0c4:	0726                	sll	a4,a4,0x9
   1b0c6:	00a86833          	or	a6,a6,a0
   1b0ca:	8331                	srl	a4,a4,0xc
   1b0cc:	00147e13          	and	t3,s0,1
   1b0d0:	40f2                	lw	ra,28(sp)
   1b0d2:	4462                	lw	s0,24(sp)
   1b0d4:	07d2                	sll	a5,a5,0x14
   1b0d6:	8fd9                	or	a5,a5,a4
   1b0d8:	01fe1713          	sll	a4,t3,0x1f
   1b0dc:	8fd9                	or	a5,a5,a4
   1b0de:	44d2                	lw	s1,20(sp)
   1b0e0:	4942                	lw	s2,16(sp)
   1b0e2:	49b2                	lw	s3,12(sp)
   1b0e4:	8542                	mv	a0,a6
   1b0e6:	85be                	mv	a1,a5
   1b0e8:	6105                	add	sp,sp,32
   1b0ea:	8082                	ret
   1b0ec:	5af05563          	blez	a5,1b696 <__subdf3+0x72c>
   1b0f0:	180f1563          	bnez	t5,1b27a <__subdf3+0x310>
   1b0f4:	01d5e6b3          	or	a3,a1,t4
   1b0f8:	20068b63          	beqz	a3,1b30e <__subdf3+0x3a4>
   1b0fc:	fff78693          	add	a3,a5,-1
   1b100:	3a068263          	beqz	a3,1b4a4 <__subdf3+0x53a>
   1b104:	1e678d63          	beq	a5,t1,1b2fe <__subdf3+0x394>
   1b108:	03800793          	li	a5,56
   1b10c:	4905                	li	s2,1
   1b10e:	02d7c863          	blt	a5,a3,1b13e <__subdf3+0x1d4>
   1b112:	87b6                	mv	a5,a3
   1b114:	46fd                	li	a3,31
   1b116:	3af6cf63          	blt	a3,a5,1b4d4 <__subdf3+0x56a>
   1b11a:	02000693          	li	a3,32
   1b11e:	8e9d                	sub	a3,a3,a5
   1b120:	00d59933          	sll	s2,a1,a3
   1b124:	00fed633          	srl	a2,t4,a5
   1b128:	00de96b3          	sll	a3,t4,a3
   1b12c:	00c96933          	or	s2,s2,a2
   1b130:	00d036b3          	snez	a3,a3
   1b134:	00f5d7b3          	srl	a5,a1,a5
   1b138:	00d96933          	or	s2,s2,a3
   1b13c:	973e                	add	a4,a4,a5
   1b13e:	01190633          	add	a2,s2,a7
   1b142:	01263933          	sltu	s2,a2,s2
   1b146:	84b2                	mv	s1,a2
   1b148:	993a                	add	s2,s2,a4
   1b14a:	00891793          	sll	a5,s2,0x8
   1b14e:	1807dd63          	bgez	a5,1b2e8 <__subdf3+0x37e>
   1b152:	0985                	add	s3,s3,1
   1b154:	7ff00793          	li	a5,2047
   1b158:	12f98c63          	beq	s3,a5,1b290 <__subdf3+0x326>
   1b15c:	ff8007b7          	lui	a5,0xff800
   1b160:	17fd                	add	a5,a5,-1 # ff7fffff <__BSS_END__+0xff7e22b7>
   1b162:	0014f513          	and	a0,s1,1
   1b166:	00f977b3          	and	a5,s2,a5
   1b16a:	0014d713          	srl	a4,s1,0x1
   1b16e:	8f49                	or	a4,a4,a0
   1b170:	01f79513          	sll	a0,a5,0x1f
   1b174:	00e564b3          	or	s1,a0,a4
   1b178:	0017d913          	srl	s2,a5,0x1
   1b17c:	b709                	j	1b07e <__subdf3+0x114>
   1b17e:	01d5e833          	or	a6,a1,t4
   1b182:	80198313          	add	t1,s3,-2047
   1b186:	04080d63          	beqz	a6,1b1e0 <__subdf3+0x276>
   1b18a:	04d40f63          	beq	s0,a3,1b1e8 <__subdf3+0x27e>
   1b18e:	0c030163          	beqz	t1,1b250 <__subdf3+0x2e6>
   1b192:	20098663          	beqz	s3,1b39e <__subdf3+0x434>
   1b196:	00361513          	sll	a0,a2,0x3
   1b19a:	810d                	srl	a0,a0,0x3
   1b19c:	8436                	mv	s0,a3
   1b19e:	872e                	mv	a4,a1
   1b1a0:	01d71813          	sll	a6,a4,0x1d
   1b1a4:	00a86833          	or	a6,a6,a0
   1b1a8:	830d                	srl	a4,a4,0x3
   1b1aa:	01076733          	or	a4,a4,a6
   1b1ae:	c36d                	beqz	a4,1b290 <__subdf3+0x326>
   1b1b0:	4e01                	li	t3,0
   1b1b2:	7ff00793          	li	a5,2047
   1b1b6:	00080737          	lui	a4,0x80
   1b1ba:	4801                	li	a6,0
   1b1bc:	bf11                	j	1b0d0 <__subdf3+0x166>
   1b1be:	01d5e6b3          	or	a3,a1,t4
   1b1c2:	14068663          	beqz	a3,1b30e <__subdf3+0x3a4>
   1b1c6:	fff78693          	add	a3,a5,-1
   1b1ca:	2e068a63          	beqz	a3,1b4be <__subdf3+0x554>
   1b1ce:	12678863          	beq	a5,t1,1b2fe <__subdf3+0x394>
   1b1d2:	03800793          	li	a5,56
   1b1d6:	4505                	li	a0,1
   1b1d8:	e2d7cbe3          	blt	a5,a3,1b00e <__subdf3+0xa4>
   1b1dc:	87b6                	mv	a5,a3
   1b1de:	b529                	j	1afe8 <__subdf3+0x7e>
   1b1e0:	0016c693          	xor	a3,a3,1
   1b1e4:	fad415e3          	bne	s0,a3,1b18e <__subdf3+0x224>
   1b1e8:	14030563          	beqz	t1,1b332 <__subdf3+0x3c8>
   1b1ec:	24099563          	bnez	s3,1b436 <__subdf3+0x4cc>
   1b1f0:	7ff00793          	li	a5,2047
   1b1f4:	011766b3          	or	a3,a4,a7
   1b1f8:	3a068863          	beqz	a3,1b5a8 <__subdf3+0x63e>
   1b1fc:	fff78693          	add	a3,a5,-1
   1b200:	2a068263          	beqz	a3,1b4a4 <__subdf3+0x53a>
   1b204:	7ff00513          	li	a0,2047
   1b208:	22a78763          	beq	a5,a0,1b436 <__subdf3+0x4cc>
   1b20c:	03800793          	li	a5,56
   1b210:	4905                	li	s2,1
   1b212:	02d7c763          	blt	a5,a3,1b240 <__subdf3+0x2d6>
   1b216:	47fd                	li	a5,31
   1b218:	3cd7cc63          	blt	a5,a3,1b5f0 <__subdf3+0x686>
   1b21c:	02000793          	li	a5,32
   1b220:	8f95                	sub	a5,a5,a3
   1b222:	00f71933          	sll	s2,a4,a5
   1b226:	00d8d633          	srl	a2,a7,a3
   1b22a:	00f897b3          	sll	a5,a7,a5
   1b22e:	00c96933          	or	s2,s2,a2
   1b232:	00f037b3          	snez	a5,a5
   1b236:	00d756b3          	srl	a3,a4,a3
   1b23a:	00f96933          	or	s2,s2,a5
   1b23e:	95b6                	add	a1,a1,a3
   1b240:	01d90733          	add	a4,s2,t4
   1b244:	01273933          	sltu	s2,a4,s2
   1b248:	84ba                	mv	s1,a4
   1b24a:	992e                	add	s2,s2,a1
   1b24c:	89fa                	mv	s3,t5
   1b24e:	bdf5                	j	1b14a <__subdf3+0x1e0>
   1b250:	00198793          	add	a5,s3,1
   1b254:	7fe7f793          	and	a5,a5,2046
   1b258:	10079663          	bnez	a5,1b364 <__subdf3+0x3fa>
   1b25c:	01d5e833          	or	a6,a1,t4
   1b260:	011767b3          	or	a5,a4,a7
   1b264:	22099363          	bnez	s3,1b48a <__subdf3+0x520>
   1b268:	2e078263          	beqz	a5,1b54c <__subdf3+0x5e2>
   1b26c:	2e081f63          	bnez	a6,1b56a <__subdf3+0x600>
   1b270:	050e                	sll	a0,a0,0x3
   1b272:	00355913          	srl	s2,a0,0x3
   1b276:	4781                	li	a5,0
   1b278:	a0c5                	j	1b358 <__subdf3+0x3ee>
   1b27a:	08698263          	beq	s3,t1,1b2fe <__subdf3+0x394>
   1b27e:	03800693          	li	a3,56
   1b282:	4905                	li	s2,1
   1b284:	eaf6cde3          	blt	a3,a5,1b13e <__subdf3+0x1d4>
   1b288:	008006b7          	lui	a3,0x800
   1b28c:	8dd5                	or	a1,a1,a3
   1b28e:	b559                	j	1b114 <__subdf3+0x1aa>
   1b290:	00147e13          	and	t3,s0,1
   1b294:	7ff00793          	li	a5,2047
   1b298:	4701                	li	a4,0
   1b29a:	4801                	li	a6,0
   1b29c:	bd15                	j	1b0d0 <__subdf3+0x166>
   1b29e:	8526                	mv	a0,s1
   1b2a0:	041000ef          	jal	1bae0 <__clzsi2>
   1b2a4:	01850793          	add	a5,a0,24
   1b2a8:	46fd                	li	a3,31
   1b2aa:	d8f6d9e3          	bge	a3,a5,1b03c <__subdf3+0xd2>
   1b2ae:	ff850713          	add	a4,a0,-8
   1b2b2:	00e49733          	sll	a4,s1,a4
   1b2b6:	1737c963          	blt	a5,s3,1b428 <__subdf3+0x4be>
   1b2ba:	413789b3          	sub	s3,a5,s3
   1b2be:	00198793          	add	a5,s3,1
   1b2c2:	36f6d163          	bge	a3,a5,1b624 <__subdf3+0x6ba>
   1b2c6:	1985                	add	s3,s3,-31
   1b2c8:	02000693          	li	a3,32
   1b2cc:	013754b3          	srl	s1,a4,s3
   1b2d0:	00d78b63          	beq	a5,a3,1b2e6 <__subdf3+0x37c>
   1b2d4:	04000693          	li	a3,64
   1b2d8:	40f687b3          	sub	a5,a3,a5
   1b2dc:	00f71733          	sll	a4,a4,a5
   1b2e0:	00e03733          	snez	a4,a4
   1b2e4:	8cd9                	or	s1,s1,a4
   1b2e6:	4981                	li	s3,0
   1b2e8:	0074f793          	and	a5,s1,7
   1b2ec:	d8079ce3          	bnez	a5,1b084 <__subdf3+0x11a>
   1b2f0:	87ce                	mv	a5,s3
   1b2f2:	0034d513          	srl	a0,s1,0x3
   1b2f6:	874a                	mv	a4,s2
   1b2f8:	a829                	j	1b312 <__subdf3+0x3a8>
   1b2fa:	ea081be3          	bnez	a6,1b1b0 <__subdf3+0x246>
   1b2fe:	050e                	sll	a0,a0,0x3
   1b300:	01d71813          	sll	a6,a4,0x1d
   1b304:	810d                	srl	a0,a0,0x3
   1b306:	00a86833          	or	a6,a6,a0
   1b30a:	830d                	srl	a4,a4,0x3
   1b30c:	bd79                	j	1b1aa <__subdf3+0x240>
   1b30e:	050e                	sll	a0,a0,0x3
   1b310:	810d                	srl	a0,a0,0x3
   1b312:	01d71813          	sll	a6,a4,0x1d
   1b316:	7ff00693          	li	a3,2047
   1b31a:	00a86833          	or	a6,a6,a0
   1b31e:	830d                	srl	a4,a4,0x3
   1b320:	e8d785e3          	beq	a5,a3,1b1aa <__subdf3+0x240>
   1b324:	0732                	sll	a4,a4,0xc
   1b326:	8331                	srl	a4,a4,0xc
   1b328:	7ff7f793          	and	a5,a5,2047
   1b32c:	00147e13          	and	t3,s0,1
   1b330:	b345                	j	1b0d0 <__subdf3+0x166>
   1b332:	00198693          	add	a3,s3,1
   1b336:	7fe6f793          	and	a5,a3,2046
   1b33a:	10079363          	bnez	a5,1b440 <__subdf3+0x4d6>
   1b33e:	011767b3          	or	a5,a4,a7
   1b342:	1e099263          	bnez	s3,1b526 <__subdf3+0x5bc>
   1b346:	26078663          	beqz	a5,1b5b2 <__subdf3+0x648>
   1b34a:	01d5e7b3          	or	a5,a1,t4
   1b34e:	26079763          	bnez	a5,1b5bc <__subdf3+0x652>
   1b352:	050e                	sll	a0,a0,0x3
   1b354:	00355913          	srl	s2,a0,0x3
   1b358:	01d71813          	sll	a6,a4,0x1d
   1b35c:	01286833          	or	a6,a6,s2
   1b360:	830d                	srl	a4,a4,0x3
   1b362:	b7c9                	j	1b324 <__subdf3+0x3ba>
   1b364:	41d88833          	sub	a6,a7,t4
   1b368:	0108b7b3          	sltu	a5,a7,a6
   1b36c:	40b70933          	sub	s2,a4,a1
   1b370:	40f90933          	sub	s2,s2,a5
   1b374:	00891793          	sll	a5,s2,0x8
   1b378:	84c2                	mv	s1,a6
   1b37a:	0e07c763          	bltz	a5,1b468 <__subdf3+0x4fe>
   1b37e:	01286833          	or	a6,a6,s2
   1b382:	ca0816e3          	bnez	a6,1b02e <__subdf3+0xc4>
   1b386:	4e01                	li	t3,0
   1b388:	4781                	li	a5,0
   1b38a:	4701                	li	a4,0
   1b38c:	b391                	j	1b0d0 <__subdf3+0x166>
   1b38e:	ff800937          	lui	s2,0xff800
   1b392:	197d                	add	s2,s2,-1 # ff7fffff <__BSS_END__+0xff7e22b7>
   1b394:	40f989b3          	sub	s3,s3,a5
   1b398:	01277933          	and	s2,a4,s2
   1b39c:	b1cd                	j	1b07e <__subdf3+0x114>
   1b39e:	7ff00793          	li	a5,2047
   1b3a2:	01176533          	or	a0,a4,a7
   1b3a6:	cd61                	beqz	a0,1b47e <__subdf3+0x514>
   1b3a8:	fff78813          	add	a6,a5,-1
   1b3ac:	18080363          	beqz	a6,1b532 <__subdf3+0x5c8>
   1b3b0:	7ff00513          	li	a0,2047
   1b3b4:	dea781e3          	beq	a5,a0,1b196 <__subdf3+0x22c>
   1b3b8:	03800793          	li	a5,56
   1b3bc:	8436                	mv	s0,a3
   1b3be:	4505                	li	a0,1
   1b3c0:	0307c763          	blt	a5,a6,1b3ee <__subdf3+0x484>
   1b3c4:	47fd                	li	a5,31
   1b3c6:	1307cc63          	blt	a5,a6,1b4fe <__subdf3+0x594>
   1b3ca:	02000793          	li	a5,32
   1b3ce:	410787b3          	sub	a5,a5,a6
   1b3d2:	00f71533          	sll	a0,a4,a5
   1b3d6:	0108d6b3          	srl	a3,a7,a6
   1b3da:	00f897b3          	sll	a5,a7,a5
   1b3de:	8d55                	or	a0,a0,a3
   1b3e0:	00f037b3          	snez	a5,a5
   1b3e4:	01075833          	srl	a6,a4,a6
   1b3e8:	8d5d                	or	a0,a0,a5
   1b3ea:	410585b3          	sub	a1,a1,a6
   1b3ee:	40ae8533          	sub	a0,t4,a0
   1b3f2:	00aeb733          	sltu	a4,t4,a0
   1b3f6:	84aa                	mv	s1,a0
   1b3f8:	40e58933          	sub	s2,a1,a4
   1b3fc:	89fa                	mv	s3,t5
   1b3fe:	b939                	j	1b01c <__subdf3+0xb2>
   1b400:	fe078693          	add	a3,a5,-32
   1b404:	02000613          	li	a2,32
   1b408:	00d5d6b3          	srl	a3,a1,a3
   1b40c:	00c78a63          	beq	a5,a2,1b420 <__subdf3+0x4b6>
   1b410:	04000613          	li	a2,64
   1b414:	40f607b3          	sub	a5,a2,a5
   1b418:	00f597b3          	sll	a5,a1,a5
   1b41c:	00feeeb3          	or	t4,t4,a5
   1b420:	01d03533          	snez	a0,t4
   1b424:	8d55                	or	a0,a0,a3
   1b426:	b6e5                	j	1b00e <__subdf3+0xa4>
   1b428:	ff8006b7          	lui	a3,0xff800
   1b42c:	16fd                	add	a3,a3,-1 # ff7fffff <__BSS_END__+0xff7e22b7>
   1b42e:	40f987b3          	sub	a5,s3,a5
   1b432:	8f75                	and	a4,a4,a3
   1b434:	b715                	j	1b358 <__subdf3+0x3ee>
   1b436:	00361513          	sll	a0,a2,0x3
   1b43a:	810d                	srl	a0,a0,0x3
   1b43c:	872e                	mv	a4,a1
   1b43e:	b38d                	j	1b1a0 <__subdf3+0x236>
   1b440:	7ff00793          	li	a5,2047
   1b444:	e4f686e3          	beq	a3,a5,1b290 <__subdf3+0x326>
   1b448:	9ec6                	add	t4,t4,a7
   1b44a:	011eb633          	sltu	a2,t4,a7
   1b44e:	00b707b3          	add	a5,a4,a1
   1b452:	97b2                	add	a5,a5,a2
   1b454:	01f79513          	sll	a0,a5,0x1f
   1b458:	001ede93          	srl	t4,t4,0x1
   1b45c:	01d564b3          	or	s1,a0,t4
   1b460:	0017d913          	srl	s2,a5,0x1
   1b464:	89b6                	mv	s3,a3
   1b466:	b921                	j	1b07e <__subdf3+0x114>
   1b468:	411e8633          	sub	a2,t4,a7
   1b46c:	40e587b3          	sub	a5,a1,a4
   1b470:	00ceb733          	sltu	a4,t4,a2
   1b474:	84b2                	mv	s1,a2
   1b476:	40e78933          	sub	s2,a5,a4
   1b47a:	8436                	mv	s0,a3
   1b47c:	be4d                	j	1b02e <__subdf3+0xc4>
   1b47e:	060e                	sll	a2,a2,0x3
   1b480:	00365513          	srl	a0,a2,0x3
   1b484:	8436                	mv	s0,a3
   1b486:	872e                	mv	a4,a1
   1b488:	b569                	j	1b312 <__subdf3+0x3a8>
   1b48a:	e60798e3          	bnez	a5,1b2fa <__subdf3+0x390>
   1b48e:	1a080963          	beqz	a6,1b640 <__subdf3+0x6d6>
   1b492:	0035d713          	srl	a4,a1,0x3
   1b496:	060e                	sll	a2,a2,0x3
   1b498:	05f6                	sll	a1,a1,0x1d
   1b49a:	8f4d                	or	a4,a4,a1
   1b49c:	820d                	srl	a2,a2,0x3
   1b49e:	8f51                	or	a4,a4,a2
   1b4a0:	8436                	mv	s0,a3
   1b4a2:	b331                	j	1b1ae <__subdf3+0x244>
   1b4a4:	9ec6                	add	t4,t4,a7
   1b4a6:	95ba                	add	a1,a1,a4
   1b4a8:	011eb633          	sltu	a2,t4,a7
   1b4ac:	00c58933          	add	s2,a1,a2
   1b4b0:	00891793          	sll	a5,s2,0x8
   1b4b4:	84f6                	mv	s1,t4
   1b4b6:	0807d963          	bgez	a5,1b548 <__subdf3+0x5de>
   1b4ba:	4989                	li	s3,2
   1b4bc:	b145                	j	1b15c <__subdf3+0x1f2>
   1b4be:	41d88eb3          	sub	t4,a7,t4
   1b4c2:	40b705b3          	sub	a1,a4,a1
   1b4c6:	01d8b633          	sltu	a2,a7,t4
   1b4ca:	84f6                	mv	s1,t4
   1b4cc:	40c58933          	sub	s2,a1,a2
   1b4d0:	4985                	li	s3,1
   1b4d2:	b6a9                	j	1b01c <__subdf3+0xb2>
   1b4d4:	fe078693          	add	a3,a5,-32
   1b4d8:	02000613          	li	a2,32
   1b4dc:	00d5d6b3          	srl	a3,a1,a3
   1b4e0:	00c78a63          	beq	a5,a2,1b4f4 <__subdf3+0x58a>
   1b4e4:	04000613          	li	a2,64
   1b4e8:	40f607b3          	sub	a5,a2,a5
   1b4ec:	00f597b3          	sll	a5,a1,a5
   1b4f0:	00feeeb3          	or	t4,t4,a5
   1b4f4:	01d03933          	snez	s2,t4
   1b4f8:	00d96933          	or	s2,s2,a3
   1b4fc:	b189                	j	1b13e <__subdf3+0x1d4>
   1b4fe:	fe080793          	add	a5,a6,-32
   1b502:	02000693          	li	a3,32
   1b506:	00f757b3          	srl	a5,a4,a5
   1b50a:	00d80a63          	beq	a6,a3,1b51e <__subdf3+0x5b4>
   1b50e:	04000693          	li	a3,64
   1b512:	410686b3          	sub	a3,a3,a6
   1b516:	00d71733          	sll	a4,a4,a3
   1b51a:	00e8e8b3          	or	a7,a7,a4
   1b51e:	01103533          	snez	a0,a7
   1b522:	8d5d                	or	a0,a0,a5
   1b524:	b5e9                	j	1b3ee <__subdf3+0x484>
   1b526:	db81                	beqz	a5,1b436 <__subdf3+0x4cc>
   1b528:	01d5eeb3          	or	t4,a1,t4
   1b52c:	c80e92e3          	bnez	t4,1b1b0 <__subdf3+0x246>
   1b530:	b3f9                	j	1b2fe <__subdf3+0x394>
   1b532:	411e8633          	sub	a2,t4,a7
   1b536:	8d99                	sub	a1,a1,a4
   1b538:	00ceb733          	sltu	a4,t4,a2
   1b53c:	84b2                	mv	s1,a2
   1b53e:	40e58933          	sub	s2,a1,a4
   1b542:	8436                	mv	s0,a3
   1b544:	4985                	li	s3,1
   1b546:	bcd9                	j	1b01c <__subdf3+0xb2>
   1b548:	4785                	li	a5,1
   1b54a:	b365                	j	1b2f2 <__subdf3+0x388>
   1b54c:	e2080de3          	beqz	a6,1b386 <__subdf3+0x41c>
   1b550:	060e                	sll	a2,a2,0x3
   1b552:	00365793          	srl	a5,a2,0x3
   1b556:	01d59813          	sll	a6,a1,0x1d
   1b55a:	00959713          	sll	a4,a1,0x9
   1b55e:	00f86833          	or	a6,a6,a5
   1b562:	8331                	srl	a4,a4,0xc
   1b564:	8e36                	mv	t3,a3
   1b566:	4781                	li	a5,0
   1b568:	b6a5                	j	1b0d0 <__subdf3+0x166>
   1b56a:	41d88933          	sub	s2,a7,t4
   1b56e:	0128b7b3          	sltu	a5,a7,s2
   1b572:	40b70633          	sub	a2,a4,a1
   1b576:	8e1d                	sub	a2,a2,a5
   1b578:	00861793          	sll	a5,a2,0x8
   1b57c:	0a07d963          	bgez	a5,1b62e <__subdf3+0x6c4>
   1b580:	411e8633          	sub	a2,t4,a7
   1b584:	40e58733          	sub	a4,a1,a4
   1b588:	00cebeb3          	sltu	t4,t4,a2
   1b58c:	41d70733          	sub	a4,a4,t4
   1b590:	00871793          	sll	a5,a4,0x8
   1b594:	84b2                	mv	s1,a2
   1b596:	0e07d763          	bgez	a5,1b684 <__subdf3+0x71a>
   1b59a:	ff8007b7          	lui	a5,0xff800
   1b59e:	17fd                	add	a5,a5,-1 # ff7fffff <__BSS_END__+0xff7e22b7>
   1b5a0:	8f7d                	and	a4,a4,a5
   1b5a2:	8436                	mv	s0,a3
   1b5a4:	4785                	li	a5,1
   1b5a6:	be19                	j	1b0bc <__subdf3+0x152>
   1b5a8:	060e                	sll	a2,a2,0x3
   1b5aa:	00365513          	srl	a0,a2,0x3
   1b5ae:	872e                	mv	a4,a1
   1b5b0:	b38d                	j	1b312 <__subdf3+0x3a8>
   1b5b2:	060e                	sll	a2,a2,0x3
   1b5b4:	00365913          	srl	s2,a2,0x3
   1b5b8:	872e                	mv	a4,a1
   1b5ba:	bb79                	j	1b358 <__subdf3+0x3ee>
   1b5bc:	01d886b3          	add	a3,a7,t4
   1b5c0:	00b707b3          	add	a5,a4,a1
   1b5c4:	0116b633          	sltu	a2,a3,a7
   1b5c8:	97b2                	add	a5,a5,a2
   1b5ca:	00879713          	sll	a4,a5,0x8
   1b5ce:	0036d813          	srl	a6,a3,0x3
   1b5d2:	06075d63          	bgez	a4,1b64c <__subdf3+0x6e2>
   1b5d6:	ff800737          	lui	a4,0xff800
   1b5da:	177d                	add	a4,a4,-1 # ff7fffff <__BSS_END__+0xff7e22b7>
   1b5dc:	8ff9                	and	a5,a5,a4
   1b5de:	01d79713          	sll	a4,a5,0x1d
   1b5e2:	07a6                	sll	a5,a5,0x9
   1b5e4:	01076833          	or	a6,a4,a6
   1b5e8:	00c7d713          	srl	a4,a5,0xc
   1b5ec:	4785                	li	a5,1
   1b5ee:	b4cd                	j	1b0d0 <__subdf3+0x166>
   1b5f0:	fe068793          	add	a5,a3,-32
   1b5f4:	02000613          	li	a2,32
   1b5f8:	00f757b3          	srl	a5,a4,a5
   1b5fc:	00c68a63          	beq	a3,a2,1b610 <__subdf3+0x6a6>
   1b600:	04000613          	li	a2,64
   1b604:	40d606b3          	sub	a3,a2,a3
   1b608:	00d71733          	sll	a4,a4,a3
   1b60c:	00e8e8b3          	or	a7,a7,a4
   1b610:	01103933          	snez	s2,a7
   1b614:	00f96933          	or	s2,s2,a5
   1b618:	b125                	j	1b240 <__subdf3+0x2d6>
   1b61a:	0034d513          	srl	a0,s1,0x3
   1b61e:	87ce                	mv	a5,s3
   1b620:	874a                	mv	a4,s2
   1b622:	b9c5                	j	1b312 <__subdf3+0x3a8>
   1b624:	02000693          	li	a3,32
   1b628:	8e9d                	sub	a3,a3,a5
   1b62a:	4601                	li	a2,0
   1b62c:	b481                	j	1b06c <__subdf3+0x102>
   1b62e:	00c96833          	or	a6,s2,a2
   1b632:	d4080ae3          	beqz	a6,1b386 <__subdf3+0x41c>
   1b636:	00395913          	srl	s2,s2,0x3
   1b63a:	4781                	li	a5,0
   1b63c:	8732                	mv	a4,a2
   1b63e:	bb29                	j	1b358 <__subdf3+0x3ee>
   1b640:	4e01                	li	t3,0
   1b642:	7ff00793          	li	a5,2047
   1b646:	00080737          	lui	a4,0x80
   1b64a:	b459                	j	1b0d0 <__subdf3+0x166>
   1b64c:	01d79713          	sll	a4,a5,0x1d
   1b650:	07a6                	sll	a5,a5,0x9
   1b652:	01076833          	or	a6,a4,a6
   1b656:	00c7d713          	srl	a4,a5,0xc
   1b65a:	4781                	li	a5,0
   1b65c:	bc95                	j	1b0d0 <__subdf3+0x166>
   1b65e:	be0789e3          	beqz	a5,1b250 <__subdf3+0x2e6>
   1b662:	413f0833          	sub	a6,t5,s3
   1b666:	87c2                	mv	a5,a6
   1b668:	d2098de3          	beqz	s3,1b3a2 <__subdf3+0x438>
   1b66c:	03800793          	li	a5,56
   1b670:	0107c763          	blt	a5,a6,1b67e <__subdf3+0x714>
   1b674:	008007b7          	lui	a5,0x800
   1b678:	8f5d                	or	a4,a4,a5
   1b67a:	8436                	mv	s0,a3
   1b67c:	b3a1                	j	1b3c4 <__subdf3+0x45a>
   1b67e:	8436                	mv	s0,a3
   1b680:	4505                	li	a0,1
   1b682:	b3b5                	j	1b3ee <__subdf3+0x484>
   1b684:	01d71813          	sll	a6,a4,0x1d
   1b688:	820d                	srl	a2,a2,0x3
   1b68a:	00c86833          	or	a6,a6,a2
   1b68e:	830d                	srl	a4,a4,0x3
   1b690:	4781                	li	a5,0
   1b692:	8436                	mv	s0,a3
   1b694:	b941                	j	1b324 <__subdf3+0x3ba>
   1b696:	c8078ee3          	beqz	a5,1b332 <__subdf3+0x3c8>
   1b69a:	413f06b3          	sub	a3,t5,s3
   1b69e:	00099463          	bnez	s3,1b6a6 <__subdf3+0x73c>
   1b6a2:	87b6                	mv	a5,a3
   1b6a4:	be81                	j	1b1f4 <__subdf3+0x28a>
   1b6a6:	03800793          	li	a5,56
   1b6aa:	4905                	li	s2,1
   1b6ac:	b8d7cae3          	blt	a5,a3,1b240 <__subdf3+0x2d6>
   1b6b0:	008007b7          	lui	a5,0x800
   1b6b4:	8f5d                	or	a4,a4,a5
   1b6b6:	b685                	j	1b216 <__subdf3+0x2ac>

0001b6b8 <__unorddf2>:
   1b6b8:	0145d713          	srl	a4,a1,0x14
   1b6bc:	001007b7          	lui	a5,0x100
   1b6c0:	17fd                	add	a5,a5,-1 # fffff <__BSS_END__+0xe22b7>
   1b6c2:	fff74713          	not	a4,a4
   1b6c6:	0146d813          	srl	a6,a3,0x14
   1b6ca:	8dfd                	and	a1,a1,a5
   1b6cc:	8ff5                	and	a5,a5,a3
   1b6ce:	01571693          	sll	a3,a4,0x15
   1b6d2:	7ff87813          	and	a6,a6,2047
   1b6d6:	ca99                	beqz	a3,1b6ec <__unorddf2+0x34>
   1b6d8:	7ff00713          	li	a4,2047
   1b6dc:	4501                	li	a0,0
   1b6de:	00e80363          	beq	a6,a4,1b6e4 <__unorddf2+0x2c>
   1b6e2:	8082                	ret
   1b6e4:	8fd1                	or	a5,a5,a2
   1b6e6:	00f03533          	snez	a0,a5
   1b6ea:	8082                	ret
   1b6ec:	8dc9                	or	a1,a1,a0
   1b6ee:	4505                	li	a0,1
   1b6f0:	d5e5                	beqz	a1,1b6d8 <__unorddf2+0x20>
   1b6f2:	8082                	ret

0001b6f4 <__fixdfsi>:
   1b6f4:	0145d793          	srl	a5,a1,0x14
   1b6f8:	001006b7          	lui	a3,0x100
   1b6fc:	fff68713          	add	a4,a3,-1 # fffff <__BSS_END__+0xe22b7>
   1b700:	7ff7f793          	and	a5,a5,2047
   1b704:	3fe00613          	li	a2,1022
   1b708:	8f6d                	and	a4,a4,a1
   1b70a:	81fd                	srl	a1,a1,0x1f
   1b70c:	00f65b63          	bge	a2,a5,1b722 <__fixdfsi+0x2e>
   1b710:	41d00613          	li	a2,1053
   1b714:	00f65963          	bge	a2,a5,1b726 <__fixdfsi+0x32>
   1b718:	80000537          	lui	a0,0x80000
   1b71c:	157d                	add	a0,a0,-1 # 7fffffff <__BSS_END__+0x7ffe22b7>
   1b71e:	952e                	add	a0,a0,a1
   1b720:	8082                	ret
   1b722:	4501                	li	a0,0
   1b724:	8082                	ret
   1b726:	43300613          	li	a2,1075
   1b72a:	8e1d                	sub	a2,a2,a5
   1b72c:	487d                	li	a6,31
   1b72e:	8f55                	or	a4,a4,a3
   1b730:	00c85d63          	bge	a6,a2,1b74a <__fixdfsi+0x56>
   1b734:	41300693          	li	a3,1043
   1b738:	40f687b3          	sub	a5,a3,a5
   1b73c:	00f75733          	srl	a4,a4,a5
   1b740:	40e00533          	neg	a0,a4
   1b744:	f1e5                	bnez	a1,1b724 <__fixdfsi+0x30>
   1b746:	853a                	mv	a0,a4
   1b748:	8082                	ret
   1b74a:	bed78793          	add	a5,a5,-1043
   1b74e:	00f71733          	sll	a4,a4,a5
   1b752:	00c55533          	srl	a0,a0,a2
   1b756:	8f49                	or	a4,a4,a0
   1b758:	b7e5                	j	1b740 <__fixdfsi+0x4c>

0001b75a <__floatsidf>:
   1b75a:	1141                	add	sp,sp,-16
   1b75c:	c606                	sw	ra,12(sp)
   1b75e:	c422                	sw	s0,8(sp)
   1b760:	c226                	sw	s1,4(sp)
   1b762:	cd0d                	beqz	a0,1b79c <__floatsidf+0x42>
   1b764:	41f55713          	sra	a4,a0,0x1f
   1b768:	00a744b3          	xor	s1,a4,a0
   1b76c:	8c99                	sub	s1,s1,a4
   1b76e:	87aa                	mv	a5,a0
   1b770:	8526                	mv	a0,s1
   1b772:	01f7d413          	srl	s0,a5,0x1f
   1b776:	26ad                	jal	1bae0 <__clzsi2>
   1b778:	41e00793          	li	a5,1054
   1b77c:	8f89                	sub	a5,a5,a0
   1b77e:	4729                	li	a4,10
   1b780:	7ff7f793          	and	a5,a5,2047
   1b784:	02a74b63          	blt	a4,a0,1b7ba <__floatsidf+0x60>
   1b788:	472d                	li	a4,11
   1b78a:	8f09                	sub	a4,a4,a0
   1b78c:	00e4d733          	srl	a4,s1,a4
   1b790:	0555                	add	a0,a0,21
   1b792:	0732                	sll	a4,a4,0xc
   1b794:	00a494b3          	sll	s1,s1,a0
   1b798:	8331                	srl	a4,a4,0xc
   1b79a:	a029                	j	1b7a4 <__floatsidf+0x4a>
   1b79c:	4401                	li	s0,0
   1b79e:	4781                	li	a5,0
   1b7a0:	4701                	li	a4,0
   1b7a2:	4481                	li	s1,0
   1b7a4:	07d2                	sll	a5,a5,0x14
   1b7a6:	047e                	sll	s0,s0,0x1f
   1b7a8:	8fd9                	or	a5,a5,a4
   1b7aa:	40b2                	lw	ra,12(sp)
   1b7ac:	8fc1                	or	a5,a5,s0
   1b7ae:	4422                	lw	s0,8(sp)
   1b7b0:	8526                	mv	a0,s1
   1b7b2:	85be                	mv	a1,a5
   1b7b4:	4492                	lw	s1,4(sp)
   1b7b6:	0141                	add	sp,sp,16
   1b7b8:	8082                	ret
   1b7ba:	1555                	add	a0,a0,-11
   1b7bc:	00a49733          	sll	a4,s1,a0
   1b7c0:	0732                	sll	a4,a4,0xc
   1b7c2:	8331                	srl	a4,a4,0xc
   1b7c4:	4481                	li	s1,0
   1b7c6:	bff9                	j	1b7a4 <__floatsidf+0x4a>

0001b7c8 <__floatunsidf>:
   1b7c8:	1141                	add	sp,sp,-16
   1b7ca:	c422                	sw	s0,8(sp)
   1b7cc:	c606                	sw	ra,12(sp)
   1b7ce:	842a                	mv	s0,a0
   1b7d0:	c91d                	beqz	a0,1b806 <__floatunsidf+0x3e>
   1b7d2:	2639                	jal	1bae0 <__clzsi2>
   1b7d4:	41e00793          	li	a5,1054
   1b7d8:	8f89                	sub	a5,a5,a0
   1b7da:	4729                	li	a4,10
   1b7dc:	7ff7f793          	and	a5,a5,2047
   1b7e0:	02a74d63          	blt	a4,a0,1b81a <__floatunsidf+0x52>
   1b7e4:	472d                	li	a4,11
   1b7e6:	8f09                	sub	a4,a4,a0
   1b7e8:	0555                	add	a0,a0,21
   1b7ea:	00e45733          	srl	a4,s0,a4
   1b7ee:	00a41433          	sll	s0,s0,a0
   1b7f2:	40b2                	lw	ra,12(sp)
   1b7f4:	8522                	mv	a0,s0
   1b7f6:	0732                	sll	a4,a4,0xc
   1b7f8:	4422                	lw	s0,8(sp)
   1b7fa:	8331                	srl	a4,a4,0xc
   1b7fc:	07d2                	sll	a5,a5,0x14
   1b7fe:	8fd9                	or	a5,a5,a4
   1b800:	85be                	mv	a1,a5
   1b802:	0141                	add	sp,sp,16
   1b804:	8082                	ret
   1b806:	40b2                	lw	ra,12(sp)
   1b808:	8522                	mv	a0,s0
   1b80a:	4781                	li	a5,0
   1b80c:	4422                	lw	s0,8(sp)
   1b80e:	4701                	li	a4,0
   1b810:	07d2                	sll	a5,a5,0x14
   1b812:	8fd9                	or	a5,a5,a4
   1b814:	85be                	mv	a1,a5
   1b816:	0141                	add	sp,sp,16
   1b818:	8082                	ret
   1b81a:	1555                	add	a0,a0,-11
   1b81c:	00a41733          	sll	a4,s0,a0
   1b820:	4401                	li	s0,0
   1b822:	40b2                	lw	ra,12(sp)
   1b824:	8522                	mv	a0,s0
   1b826:	0732                	sll	a4,a4,0xc
   1b828:	4422                	lw	s0,8(sp)
   1b82a:	8331                	srl	a4,a4,0xc
   1b82c:	07d2                	sll	a5,a5,0x14
   1b82e:	8fd9                	or	a5,a5,a4
   1b830:	85be                	mv	a1,a5
   1b832:	0141                	add	sp,sp,16
   1b834:	8082                	ret

0001b836 <__trunctfdf2>:
   1b836:	454c                	lw	a1,12(a0)
   1b838:	451c                	lw	a5,8(a0)
   1b83a:	00052803          	lw	a6,0(a0)
   1b83e:	4154                	lw	a3,4(a0)
   1b840:	01059613          	sll	a2,a1,0x10
   1b844:	1101                	add	sp,sp,-32
   1b846:	00159713          	sll	a4,a1,0x1
   1b84a:	8241                	srl	a2,a2,0x10
   1b84c:	c43e                	sw	a5,8(sp)
   1b84e:	c62e                	sw	a1,12(sp)
   1b850:	cc3e                	sw	a5,24(sp)
   1b852:	c042                	sw	a6,0(sp)
   1b854:	c236                	sw	a3,4(sp)
   1b856:	c842                	sw	a6,16(sp)
   1b858:	ca36                	sw	a3,20(sp)
   1b85a:	ce32                	sw	a2,28(sp)
   1b85c:	8345                	srl	a4,a4,0x11
   1b85e:	81fd                	srl	a1,a1,0x1f
   1b860:	01010893          	add	a7,sp,16
   1b864:	087c                	add	a5,sp,28
   1b866:	00361513          	sll	a0,a2,0x3
   1b86a:	ffc7a603          	lw	a2,-4(a5)
   1b86e:	17f1                	add	a5,a5,-4
   1b870:	01d65693          	srl	a3,a2,0x1d
   1b874:	8ec9                	or	a3,a3,a0
   1b876:	c3d4                	sw	a3,4(a5)
   1b878:	fef897e3          	bne	a7,a5,1b866 <__trunctfdf2+0x30>
   1b87c:	00170693          	add	a3,a4,1 # 80001 <__BSS_END__+0x622b9>
   1b880:	080e                	sll	a6,a6,0x3
   1b882:	01169613          	sll	a2,a3,0x11
   1b886:	c842                	sw	a6,16(sp)
   1b888:	8249                	srl	a2,a2,0x12
   1b88a:	c60d                	beqz	a2,1b8b4 <__trunctfdf2+0x7e>
   1b88c:	76f1                	lui	a3,0xffffc
   1b88e:	40068693          	add	a3,a3,1024 # ffffc400 <__BSS_END__+0xfffde6b8>
   1b892:	9736                	add	a4,a4,a3
   1b894:	7fe00693          	li	a3,2046
   1b898:	0ae6d363          	bge	a3,a4,1b93e <__trunctfdf2+0x108>
   1b89c:	7ff00793          	li	a5,2047
   1b8a0:	4601                	li	a2,0
   1b8a2:	4681                	li	a3,0
   1b8a4:	07d2                	sll	a5,a5,0x14
   1b8a6:	05fe                	sll	a1,a1,0x1f
   1b8a8:	8fd1                	or	a5,a5,a2
   1b8aa:	8fcd                	or	a5,a5,a1
   1b8ac:	8536                	mv	a0,a3
   1b8ae:	85be                	mv	a1,a5
   1b8b0:	6105                	add	sp,sp,32
   1b8b2:	8082                	ret
   1b8b4:	4652                	lw	a2,20(sp)
   1b8b6:	48e2                	lw	a7,24(sp)
   1b8b8:	4572                	lw	a0,28(sp)
   1b8ba:	011666b3          	or	a3,a2,a7
   1b8be:	8ec9                	or	a3,a3,a0
   1b8c0:	0106e6b3          	or	a3,a3,a6
   1b8c4:	e70d                	bnez	a4,1b8ee <__trunctfdf2+0xb8>
   1b8c6:	cef1                	beqz	a3,1b9a2 <__trunctfdf2+0x16c>
   1b8c8:	4695                	li	a3,5
   1b8ca:	4601                	li	a2,0
   1b8cc:	0036d793          	srl	a5,a3,0x3
   1b8d0:	01d61693          	sll	a3,a2,0x1d
   1b8d4:	8edd                	or	a3,a3,a5
   1b8d6:	0626                	sll	a2,a2,0x9
   1b8d8:	7ff77793          	and	a5,a4,2047
   1b8dc:	8231                	srl	a2,a2,0xc
   1b8de:	07d2                	sll	a5,a5,0x14
   1b8e0:	05fe                	sll	a1,a1,0x1f
   1b8e2:	8fd1                	or	a5,a5,a2
   1b8e4:	8fcd                	or	a5,a5,a1
   1b8e6:	8536                	mv	a0,a3
   1b8e8:	85be                	mv	a1,a5
   1b8ea:	6105                	add	sp,sp,32
   1b8ec:	8082                	ret
   1b8ee:	c6e1                	beqz	a3,1b9b6 <__trunctfdf2+0x180>
   1b8f0:	01c8d793          	srl	a5,a7,0x1c
   1b8f4:	0512                	sll	a0,a0,0x4
   1b8f6:	8fc9                	or	a5,a5,a0
   1b8f8:	008006b7          	lui	a3,0x800
   1b8fc:	8efd                	and	a3,a3,a5
   1b8fe:	12068e63          	beqz	a3,1ba3a <__trunctfdf2+0x204>
   1b902:	ff800737          	lui	a4,0xff800
   1b906:	01c65693          	srl	a3,a2,0x1c
   1b90a:	0892                	sll	a7,a7,0x4
   1b90c:	177d                	add	a4,a4,-1 # ff7fffff <__BSS_END__+0xff7e22b7>
   1b90e:	00e7f633          	and	a2,a5,a4
   1b912:	0116e6b3          	or	a3,a3,a7
   1b916:	004007b7          	lui	a5,0x400
   1b91a:	8e5d                	or	a2,a2,a5
   1b91c:	9ae1                	and	a3,a3,-8
   1b91e:	4781                	li	a5,0
   1b920:	0036d713          	srl	a4,a3,0x3
   1b924:	01d61693          	sll	a3,a2,0x1d
   1b928:	0626                	sll	a2,a2,0x9
   1b92a:	8231                	srl	a2,a2,0xc
   1b92c:	07d2                	sll	a5,a5,0x14
   1b92e:	05fe                	sll	a1,a1,0x1f
   1b930:	8fd1                	or	a5,a5,a2
   1b932:	8ed9                	or	a3,a3,a4
   1b934:	8fcd                	or	a5,a5,a1
   1b936:	8536                	mv	a0,a3
   1b938:	85be                	mv	a1,a5
   1b93a:	6105                	add	sp,sp,32
   1b93c:	8082                	ret
   1b93e:	08e05763          	blez	a4,1b9cc <__trunctfdf2+0x196>
   1b942:	47d2                	lw	a5,20(sp)
   1b944:	4562                	lw	a0,24(sp)
   1b946:	4672                	lw	a2,28(sp)
   1b948:	00479693          	sll	a3,a5,0x4
   1b94c:	0106e6b3          	or	a3,a3,a6
   1b950:	83f1                	srl	a5,a5,0x1c
   1b952:	00451813          	sll	a6,a0,0x4
   1b956:	0612                	sll	a2,a2,0x4
   1b958:	8171                	srl	a0,a0,0x1c
   1b95a:	00d036b3          	snez	a3,a3
   1b95e:	0107e7b3          	or	a5,a5,a6
   1b962:	8e49                	or	a2,a2,a0
   1b964:	8edd                	or	a3,a3,a5
   1b966:	0076f793          	and	a5,a3,7
   1b96a:	cf81                	beqz	a5,1b982 <__trunctfdf2+0x14c>
   1b96c:	00f6f793          	and	a5,a3,15
   1b970:	4511                	li	a0,4
   1b972:	00a78863          	beq	a5,a0,1b982 <__trunctfdf2+0x14c>
   1b976:	00468793          	add	a5,a3,4 # 800004 <__BSS_END__+0x7e22bc>
   1b97a:	00d7b6b3          	sltu	a3,a5,a3
   1b97e:	9636                	add	a2,a2,a3
   1b980:	86be                	mv	a3,a5
   1b982:	008007b7          	lui	a5,0x800
   1b986:	8ff1                	and	a5,a5,a2
   1b988:	d3b1                	beqz	a5,1b8cc <__trunctfdf2+0x96>
   1b98a:	0705                	add	a4,a4,1
   1b98c:	7ff00793          	li	a5,2047
   1b990:	f0f706e3          	beq	a4,a5,1b89c <__trunctfdf2+0x66>
   1b994:	ff8007b7          	lui	a5,0xff800
   1b998:	17fd                	add	a5,a5,-1 # ff7fffff <__BSS_END__+0xff7e22b7>
   1b99a:	8e7d                	and	a2,a2,a5
   1b99c:	7ff77793          	and	a5,a4,2047
   1b9a0:	b741                	j	1b920 <__trunctfdf2+0xea>
   1b9a2:	4781                	li	a5,0
   1b9a4:	4601                	li	a2,0
   1b9a6:	07d2                	sll	a5,a5,0x14
   1b9a8:	05fe                	sll	a1,a1,0x1f
   1b9aa:	8fd1                	or	a5,a5,a2
   1b9ac:	8fcd                	or	a5,a5,a1
   1b9ae:	8536                	mv	a0,a3
   1b9b0:	85be                	mv	a1,a5
   1b9b2:	6105                	add	sp,sp,32
   1b9b4:	8082                	ret
   1b9b6:	7ff00793          	li	a5,2047
   1b9ba:	4601                	li	a2,0
   1b9bc:	07d2                	sll	a5,a5,0x14
   1b9be:	05fe                	sll	a1,a1,0x1f
   1b9c0:	8fd1                	or	a5,a5,a2
   1b9c2:	8fcd                	or	a5,a5,a1
   1b9c4:	8536                	mv	a0,a3
   1b9c6:	85be                	mv	a1,a5
   1b9c8:	6105                	add	sp,sp,32
   1b9ca:	8082                	ret
   1b9cc:	fcc00693          	li	a3,-52
   1b9d0:	06d74b63          	blt	a4,a3,1ba46 <__trunctfdf2+0x210>
   1b9d4:	03d00693          	li	a3,61
   1b9d8:	8e99                	sub	a3,a3,a4
   1b9da:	4772                	lw	a4,28(sp)
   1b9dc:	4056de13          	sra	t3,a3,0x5
   1b9e0:	00080eb7          	lui	t4,0x80
   1b9e4:	00eeeeb3          	or	t4,t4,a4
   1b9e8:	002e1513          	sll	a0,t3,0x2
   1b9ec:	ce76                	sw	t4,28(sp)
   1b9ee:	8afd                	and	a3,a3,31
   1b9f0:	00a88833          	add	a6,a7,a0
   1b9f4:	8646                	mv	a2,a7
   1b9f6:	4701                	li	a4,0
   1b9f8:	00062303          	lw	t1,0(a2)
   1b9fc:	0611                	add	a2,a2,4
   1b9fe:	00676733          	or	a4,a4,t1
   1ba02:	fec81be3          	bne	a6,a2,1b9f8 <__trunctfdf2+0x1c2>
   1ba06:	460d                	li	a2,3
   1ba08:	41c60633          	sub	a2,a2,t3
   1ba0c:	ee9d                	bnez	a3,1ba4a <__trunctfdf2+0x214>
   1ba0e:	00082803          	lw	a6,0(a6)
   1ba12:	0685                	add	a3,a3,1
   1ba14:	0791                	add	a5,a5,4
   1ba16:	ff07ae23          	sw	a6,-4(a5)
   1ba1a:	00d64c63          	blt	a2,a3,1ba32 <__trunctfdf2+0x1fc>
   1ba1e:	00a78833          	add	a6,a5,a0
   1ba22:	00082803          	lw	a6,0(a6)
   1ba26:	0685                	add	a3,a3,1
   1ba28:	0791                	add	a5,a5,4
   1ba2a:	ff07ae23          	sw	a6,-4(a5)
   1ba2e:	fed658e3          	bge	a2,a3,1ba1e <__trunctfdf2+0x1e8>
   1ba32:	4791                	li	a5,4
   1ba34:	41c787b3          	sub	a5,a5,t3
   1ba38:	a0b5                	j	1baa4 <__trunctfdf2+0x26e>
   1ba3a:	4581                	li	a1,0
   1ba3c:	7ff00793          	li	a5,2047
   1ba40:	00080637          	lui	a2,0x80
   1ba44:	b585                	j	1b8a4 <__trunctfdf2+0x6e>
   1ba46:	4701                	li	a4,0
   1ba48:	b541                	j	1b8c8 <__trunctfdf2+0x92>
   1ba4a:	02050813          	add	a6,a0,32
   1ba4e:	980a                	add	a6,a6,sp
   1ba50:	ff082803          	lw	a6,-16(a6)
   1ba54:	02000f13          	li	t5,32
   1ba58:	40df0f33          	sub	t5,t5,a3
   1ba5c:	01e81833          	sll	a6,a6,t5
   1ba60:	01076733          	or	a4,a4,a6
   1ba64:	ca3d                	beqz	a2,1bada <__trunctfdf2+0x2a4>
   1ba66:	00261813          	sll	a6,a2,0x2
   1ba6a:	00f80fb3          	add	t6,a6,a5
   1ba6e:	00a88633          	add	a2,a7,a0
   1ba72:	4208                	lw	a0,0(a2)
   1ba74:	00462303          	lw	t1,4(a2) # 80004 <__BSS_END__+0x622bc>
   1ba78:	0791                	add	a5,a5,4
   1ba7a:	00d55533          	srl	a0,a0,a3
   1ba7e:	01e31333          	sll	t1,t1,t5
   1ba82:	00656533          	or	a0,a0,t1
   1ba86:	fea7ae23          	sw	a0,-4(a5)
   1ba8a:	0611                	add	a2,a2,4
   1ba8c:	feff93e3          	bne	t6,a5,1ba72 <__trunctfdf2+0x23c>
   1ba90:	4791                	li	a5,4
   1ba92:	41c787b3          	sub	a5,a5,t3
   1ba96:	02080613          	add	a2,a6,32
   1ba9a:	960a                	add	a2,a2,sp
   1ba9c:	00dedeb3          	srl	t4,t4,a3
   1baa0:	ffd62823          	sw	t4,-16(a2)
   1baa4:	4691                	li	a3,4
   1baa6:	8e9d                	sub	a3,a3,a5
   1baa8:	068a                	sll	a3,a3,0x2
   1baaa:	078a                	sll	a5,a5,0x2
   1baac:	4621                	li	a2,8
   1baae:	98be                	add	a7,a7,a5
   1bab0:	00c6e863          	bltu	a3,a2,1bac0 <__trunctfdf2+0x28a>
   1bab4:	0008a023          	sw	zero,0(a7)
   1bab8:	0008a223          	sw	zero,4(a7)
   1babc:	16e1                	add	a3,a3,-8
   1babe:	08a1                	add	a7,a7,8
   1bac0:	4791                	li	a5,4
   1bac2:	00f6e463          	bltu	a3,a5,1baca <__trunctfdf2+0x294>
   1bac6:	0008a023          	sw	zero,0(a7)
   1baca:	47c2                	lw	a5,16(sp)
   1bacc:	00e03733          	snez	a4,a4
   1bad0:	4652                	lw	a2,20(sp)
   1bad2:	00f766b3          	or	a3,a4,a5
   1bad6:	4701                	li	a4,0
   1bad8:	b579                	j	1b966 <__trunctfdf2+0x130>
   1bada:	4785                	li	a5,1
   1badc:	4801                	li	a6,0
   1bade:	bf65                	j	1ba96 <__trunctfdf2+0x260>

0001bae0 <__clzsi2>:
   1bae0:	67c1                	lui	a5,0x10
   1bae2:	02f57663          	bgeu	a0,a5,1bb0e <__clzsi2+0x2e>
   1bae6:	10053793          	sltiu	a5,a0,256
   1baea:	0017b793          	seqz	a5,a5
   1baee:	078e                	sll	a5,a5,0x3
   1baf0:	02000713          	li	a4,32
   1baf4:	8f1d                	sub	a4,a4,a5
   1baf6:	00f55533          	srl	a0,a0,a5
   1bafa:	00001797          	auipc	a5,0x1
   1bafe:	d7e78793          	add	a5,a5,-642 # 1c878 <__clz_tab>
   1bb02:	97aa                	add	a5,a5,a0
   1bb04:	0007c503          	lbu	a0,0(a5)
   1bb08:	40a70533          	sub	a0,a4,a0
   1bb0c:	8082                	ret
   1bb0e:	010007b7          	lui	a5,0x1000
   1bb12:	02f57063          	bgeu	a0,a5,1bb32 <__clzsi2+0x52>
   1bb16:	47c1                	li	a5,16
   1bb18:	00f55533          	srl	a0,a0,a5
   1bb1c:	00001797          	auipc	a5,0x1
   1bb20:	d5c78793          	add	a5,a5,-676 # 1c878 <__clz_tab>
   1bb24:	97aa                	add	a5,a5,a0
   1bb26:	0007c503          	lbu	a0,0(a5)
   1bb2a:	4741                	li	a4,16
   1bb2c:	40a70533          	sub	a0,a4,a0
   1bb30:	8082                	ret
   1bb32:	47e1                	li	a5,24
   1bb34:	00f55533          	srl	a0,a0,a5
   1bb38:	00001797          	auipc	a5,0x1
   1bb3c:	d4078793          	add	a5,a5,-704 # 1c878 <__clz_tab>
   1bb40:	97aa                	add	a5,a5,a0
   1bb42:	0007c503          	lbu	a0,0(a5)
   1bb46:	4721                	li	a4,8
   1bb48:	40a70533          	sub	a0,a4,a0
   1bb4c:	8082                	ret

Disassembly of section .rodata:

0001bb50 <zeroes.0-0x54c>:
   1bb50:	6425                	lui	s0,0x9
   1bb52:	000a                	c.slli	zero,0x2
   1bb54:	6c25                	lui	s8,0x9
   1bb56:	646c                	.insn	2, 0x646c
   1bb58:	000a                	c.slli	zero,0x2
   1bb5a:	0000                	unimp
   1bb5c:	4e49                	li	t3,18
   1bb5e:	0046                	c.slli	zero,0x11
   1bb60:	6e69                	lui	t3,0x1a
   1bb62:	0066                	c.slli	zero,0x19
   1bb64:	414e                	lw	sp,208(sp)
   1bb66:	004e                	c.slli	zero,0x13
   1bb68:	616e                	.insn	2, 0x616e
   1bb6a:	006e                	c.slli	zero,0x1b
   1bb6c:	3130                	.insn	2, 0x3130
   1bb6e:	3332                	.insn	2, 0x3332
   1bb70:	3534                	.insn	2, 0x3534
   1bb72:	3736                	.insn	2, 0x3736
   1bb74:	3938                	.insn	2, 0x3938
   1bb76:	6261                	lui	tp,0x18
   1bb78:	66656463          	bltu	a0,t1,1c1e0 <blanks.1+0x134>
   1bb7c:	0000                	unimp
   1bb7e:	0000                	unimp
   1bb80:	3130                	.insn	2, 0x3130
   1bb82:	3332                	.insn	2, 0x3332
   1bb84:	3534                	.insn	2, 0x3534
   1bb86:	3736                	.insn	2, 0x3736
   1bb88:	3938                	.insn	2, 0x3938
   1bb8a:	4241                	li	tp,16
   1bb8c:	46454443          	.insn	4, 0x46454443
   1bb90:	0000                	unimp
   1bb92:	0000                	unimp
   1bb94:	6e28                	.insn	2, 0x6e28
   1bb96:	6c75                	lui	s8,0x1d
   1bb98:	296c                	.insn	2, 0x296c
   1bb9a:	0000                	unimp
   1bb9c:	0030                	add	a2,sp,8
   1bb9e:	0000                	unimp
   1bba0:	0000002f          	.insn	4, 0x002f
   1bba4:	4f50                	lw	a2,28(a4)
   1bba6:	00584953          	.insn	4, 0x00584953
   1bbaa:	0000                	unimp
   1bbac:	00000043          	.insn	4, 0x0043
   1bbb0:	5341                	li	t1,-16
   1bbb2:	00494943          	.insn	4, 0x00494943
   1bbb6:	0000                	unimp
   1bbb8:	5349                	li	t1,-14
   1bbba:	38382d4f          	.insn	4, 0x38382d4f
   1bbbe:	3935                	jal	1b7fa <__floatunsidf+0x32>
   1bbc0:	312d                	jal	1b7ea <__floatunsidf+0x22>
   1bbc2:	0000                	unimp
   1bbc4:	736b6a63          	bltu	s6,s6,1c2f8 <blanks.1+0xc0>
   1bbc8:	6e69                	lui	t3,0x1a
   1bbca:	00656c67          	.insn	4, 0x00656c67
   1bbce:	0000                	unimp
   1bbd0:	6e6b6a63          	bltu	s6,t1,1c2c4 <blanks.1+0x8c>
   1bbd4:	7261                	lui	tp,0xffff8
   1bbd6:	6f72                	.insn	2, 0x6f72
   1bbd8:	00000077          	.insn	4, 0x0077
   1bbdc:	776b6a63          	bltu	s6,s6,1c350 <__C_locale+0x34>
   1bbe0:	6469                	lui	s0,0x1a
   1bbe2:	0065                	c.nop	25
   1bbe4:	5455                	li	s0,-11
   1bbe6:	2d46                	.insn	2, 0x2d46
   1bbe8:	0038                	add	a4,sp,8
   1bbea:	0000                	unimp
   1bbec:	5455                	li	s0,-11
   1bbee:	3846                	.insn	2, 0x3846
   1bbf0:	0000                	unimp
   1bbf2:	0000                	unimp
   1bbf4:	494a                	lw	s2,144(sp)
   1bbf6:	55450053          	.insn	4, 0x55450053
   1bbfa:	504a0043          	.insn	4, 0x504a0043
   1bbfe:	0000                	unimp
   1bc00:	5545                	li	a0,-15
   1bc02:	00504a43          	.insn	4, 0x00504a43
   1bc06:	0000                	unimp
   1bc08:	53494a53          	.insn	4, 0x53494a53
   1bc0c:	0000                	unimp
   1bc0e:	0000                	unimp
   1bc10:	5349                	li	t1,-14
   1bc12:	3838004f          	.insn	4, 0x3838004f
   1bc16:	3935                	jal	1b852 <__trunctfdf2+0x1c>
   1bc18:	0000                	unimp
   1bc1a:	0000                	unimp
   1bc1c:	5349                	li	t1,-14
   1bc1e:	38382d4f          	.insn	4, 0x38382d4f
   1bc22:	3935                	jal	1b85e <__trunctfdf2+0x28>
   1bc24:	002d                	c.nop	11
   1bc26:	0000                	unimp
   1bc28:	00005043          	.insn	4, 0x5043
   1bc2c:	38494f4b          	.insn	4, 0x38494f4b
   1bc30:	0000                	unimp
   1bc32:	0000                	unimp
   1bc34:	30325043          	.insn	4, 0x30325043
   1bc38:	3638                	.insn	2, 0x3638
   1bc3a:	0036                	c.slli	zero,0xd
   1bc3c:	31325043          	.insn	4, 0x31325043
   1bc40:	3638                	.insn	2, 0x3638
   1bc42:	0036                	c.slli	zero,0xd
   1bc44:	524f4547          	.insn	4, 0x524f4547
   1bc48:	4e414947          	.insn	4, 0x4e414947
   1bc4c:	0000                	unimp
   1bc4e:	0000                	unimp
   1bc50:	5350                	lw	a2,36(a4)
   1bc52:	0000                	unimp
   1bc54:	30315043          	.insn	4, 0x30315043
   1bc58:	0031                	c.nop	12
   1bc5a:	0000                	unimp
   1bc5c:	5450                	lw	a2,44(s0)
   1bc5e:	3531                	jal	1ba6a <__trunctfdf2+0x234>
   1bc60:	0034                	add	a3,sp,8
   1bc62:	0000                	unimp
   1bc64:	30315043          	.insn	4, 0x30315043
   1bc68:	0032                	c.slli	zero,0xc
   1bc6a:	0000                	unimp
   1bc6c:	4954                	lw	a3,20(a0)
   1bc6e:	32360053          	.insn	4, 0x32360053
   1bc72:	0030                	add	a2,sp,8
   1bc74:	37385043          	.insn	4, 0x37385043
   1bc78:	0034                	add	a3,sp,8
   1bc7a:	0000                	unimp
   1bc7c:	434c                	lw	a1,4(a4)
   1bc7e:	415f 4c4c 0000      	.insn	6, 0x4c4c415f
   1bc84:	414c                	lw	a1,4(a0)
   1bc86:	474e                	lw	a4,208(sp)
   1bc88:	0000                	unimp
   1bc8a:	0000                	unimp
   1bc8c:	002e                	c.slli	zero,0xb
   1bc8e:	0000                	unimp
   1bc90:	434c                	lw	a1,4(a4)
   1bc92:	435f 4c4f 414c      	.insn	6, 0x414c4c4f435f
   1bc98:	4554                	lw	a3,12(a0)
   1bc9a:	0000                	unimp
   1bc9c:	434c                	lw	a1,4(a4)
   1bc9e:	435f 5954 4550      	.insn	6, 0x45505954435f
   1bca4:	0000                	unimp
   1bca6:	0000                	unimp
   1bca8:	434c                	lw	a1,4(a4)
   1bcaa:	4d5f 4e4f 5445      	.insn	6, 0x54454e4f4d5f
   1bcb0:	5241                	li	tp,-16
   1bcb2:	0059                	c.nop	22
   1bcb4:	434c                	lw	a1,4(a4)
   1bcb6:	4e5f 4d55 5245      	.insn	6, 0x52454d554e5f
   1bcbc:	4349                	li	t1,18
   1bcbe:	0000                	unimp
   1bcc0:	434c                	lw	a1,4(a4)
   1bcc2:	545f 4d49 0045      	.insn	6, 0x00454d49545f
   1bcc8:	434c                	lw	a1,4(a4)
   1bcca:	4d5f 5345 4153      	.insn	6, 0x415353454d5f
   1bcd0:	00534547          	.insn	4, 0x00534547
   1bcd4:	6e49                	lui	t3,0x12
   1bcd6:	6966                	.insn	2, 0x6966
   1bcd8:	696e                	.insn	2, 0x696e
   1bcda:	7974                	.insn	2, 0x7974
   1bcdc:	0000                	unimp
   1bcde:	0000                	unimp
   1bce0:	614e                	.insn	2, 0x614e
   1bce2:	004e                	c.slli	zero,0x13
   1bce4:	6142                	.insn	2, 0x6142
   1bce6:	6c6c                	.insn	2, 0x6c6c
   1bce8:	7320636f          	jal	t1,2241a <__BSS_END__+0x46d2>
   1bcec:	6375                	lui	t1,0x1d
   1bcee:	64656563          	bltu	a0,t1,1c338 <__C_locale+0x1c>
   1bcf2:	6465                	lui	s0,0x19
   1bcf4:	0000                	unimp
   1bcf6:	0000                	unimp
   1bcf8:	6573552f          	.insn	4, 0x6573552f
   1bcfc:	7372                	.insn	2, 0x7372
   1bcfe:	676c692f          	.insn	4, 0x676c692f
   1bd02:	7463612f          	.insn	4, 0x7463612f
   1bd06:	6f69                	lui	t5,0x1a
   1bd08:	736e                	.insn	2, 0x736e
   1bd0a:	722d                	lui	tp,0xfffeb
   1bd0c:	6e75                	lui	t3,0x1d
   1bd0e:	656e                	.insn	2, 0x656e
   1bd10:	7372                	.insn	2, 0x7372
   1bd12:	6170782f          	.insn	4, 0x6170782f
   1bd16:	642d6b63          	bltu	s10,sp,1c36c <__C_locale+0x50>
   1bd1a:	7665                	lui	a2,0xffff9
   1bd1c:	742d                	lui	s0,0xfffeb
   1bd1e:	736c6f6f          	jal	t5,e2454 <__BSS_END__+0xc470c>
   1bd22:	6f775f2f          	.insn	4, 0x6f775f2f
   1bd26:	6b72                	.insn	2, 0x6b72
   1bd28:	7369722f          	.insn	4, 0x7369722f
   1bd2c:	6e2d7663          	bgeu	s10,sp,1c418 <__C_locale+0xfc>
   1bd30:	2d656e6f          	jal	t3,72006 <__BSS_END__+0x542be>
   1bd34:	6c65                	lui	s8,0x19
   1bd36:	2d66                	.insn	2, 0x2d66
   1bd38:	2d636367          	.insn	4, 0x2d636367
   1bd3c:	7078                	.insn	2, 0x7078
   1bd3e:	6361                	lui	t1,0x18
   1bd40:	69722f6b          	.insn	4, 0x69722f6b
   1bd44:	2d766373          	.insn	4, 0x2d766373
   1bd48:	6f6e                	.insn	2, 0x6f6e
   1bd4a:	656e                	.insn	2, 0x656e
   1bd4c:	652d                	lui	a0,0xb
   1bd4e:	666c                	.insn	2, 0x666c
   1bd50:	672d                	lui	a4,0xb
   1bd52:	782d6363          	bltu	s10,sp,1c4d8 <_ctype_+0x34>
   1bd56:	6170                	.insn	2, 0x6170
   1bd58:	622f6b63          	bltu	t5,sp,1c38e <__C_locale+0x72>
   1bd5c:	6975                	lui	s2,0x1d
   1bd5e:	646c                	.insn	2, 0x646c
   1bd60:	7261642f          	.insn	4, 0x7261642f
   1bd64:	2d6e6977          	.insn	4, 0x2d6e6977
   1bd68:	7261                	lui	tp,0xffff8
   1bd6a:	366d                	jal	1b914 <__trunctfdf2+0xde>
   1bd6c:	2f34                	.insn	2, 0x2f34
   1bd6e:	72756f73          	.insn	4, 0x72756f73
   1bd72:	2f736563          	bltu	t1,s7,1c05c <__clzsi2+0x57c>
   1bd76:	656e                	.insn	2, 0x656e
   1bd78:	62696c77          	.insn	4, 0x62696c77
   1bd7c:	342d                	jal	1b7a6 <__floatsidf+0x4c>
   1bd7e:	332e                	.insn	2, 0x332e
   1bd80:	302e                	.insn	2, 0x302e
   1bd82:	322e                	.insn	2, 0x322e
   1bd84:	3230                	.insn	2, 0x3230
   1bd86:	32313033          	.insn	4, 0x32313033
   1bd8a:	2f30                	.insn	2, 0x2f30
   1bd8c:	656e                	.insn	2, 0x656e
   1bd8e:	62696c77          	.insn	4, 0x62696c77
   1bd92:	62696c2f          	.insn	4, 0x62696c2f
   1bd96:	74732f63          	.insn	4, 0x74732f63
   1bd9a:	6c64                	.insn	2, 0x6c64
   1bd9c:	6269                	lui	tp,0x1a
   1bd9e:	6f74642f          	.insn	4, 0x6f74642f
   1bda2:	2e61                	jal	1c13a <blanks.1+0x8e>
   1bda4:	00000063          	beqz	zero,1bda4 <__clzsi2+0x2c4>
   1bda8:	6573552f          	.insn	4, 0x6573552f
   1bdac:	7372                	.insn	2, 0x7372
   1bdae:	676c692f          	.insn	4, 0x676c692f
   1bdb2:	7463612f          	.insn	4, 0x7463612f
   1bdb6:	6f69                	lui	t5,0x1a
   1bdb8:	736e                	.insn	2, 0x736e
   1bdba:	722d                	lui	tp,0xfffeb
   1bdbc:	6e75                	lui	t3,0x1d
   1bdbe:	656e                	.insn	2, 0x656e
   1bdc0:	7372                	.insn	2, 0x7372
   1bdc2:	6170782f          	.insn	4, 0x6170782f
   1bdc6:	642d6b63          	bltu	s10,sp,1c41c <__C_locale+0x100>
   1bdca:	7665                	lui	a2,0xffff9
   1bdcc:	742d                	lui	s0,0xfffeb
   1bdce:	736c6f6f          	jal	t5,e2504 <__BSS_END__+0xc47bc>
   1bdd2:	6f775f2f          	.insn	4, 0x6f775f2f
   1bdd6:	6b72                	.insn	2, 0x6b72
   1bdd8:	7369722f          	.insn	4, 0x7369722f
   1bddc:	6e2d7663          	bgeu	s10,sp,1c4c8 <_ctype_+0x24>
   1bde0:	2d656e6f          	jal	t3,720b6 <__BSS_END__+0x5436e>
   1bde4:	6c65                	lui	s8,0x19
   1bde6:	2d66                	.insn	2, 0x2d66
   1bde8:	2d636367          	.insn	4, 0x2d636367
   1bdec:	7078                	.insn	2, 0x7078
   1bdee:	6361                	lui	t1,0x18
   1bdf0:	69722f6b          	.insn	4, 0x69722f6b
   1bdf4:	2d766373          	.insn	4, 0x2d766373
   1bdf8:	6f6e                	.insn	2, 0x6f6e
   1bdfa:	656e                	.insn	2, 0x656e
   1bdfc:	652d                	lui	a0,0xb
   1bdfe:	666c                	.insn	2, 0x666c
   1be00:	672d                	lui	a4,0xb
   1be02:	782d6363          	bltu	s10,sp,1c588 <_ctype_+0xe4>
   1be06:	6170                	.insn	2, 0x6170
   1be08:	622f6b63          	bltu	t5,sp,1c43e <__C_locale+0x122>
   1be0c:	6975                	lui	s2,0x1d
   1be0e:	646c                	.insn	2, 0x646c
   1be10:	7261642f          	.insn	4, 0x7261642f
   1be14:	2d6e6977          	.insn	4, 0x2d6e6977
   1be18:	7261                	lui	tp,0xffff8
   1be1a:	366d                	jal	1b9c4 <__trunctfdf2+0x18e>
   1be1c:	2f34                	.insn	2, 0x2f34
   1be1e:	72756f73          	.insn	4, 0x72756f73
   1be22:	2f736563          	bltu	t1,s7,1c10c <blanks.1+0x60>
   1be26:	656e                	.insn	2, 0x656e
   1be28:	62696c77          	.insn	4, 0x62696c77
   1be2c:	342d                	jal	1b856 <__trunctfdf2+0x20>
   1be2e:	332e                	.insn	2, 0x332e
   1be30:	302e                	.insn	2, 0x302e
   1be32:	322e                	.insn	2, 0x322e
   1be34:	3230                	.insn	2, 0x3230
   1be36:	32313033          	.insn	4, 0x32313033
   1be3a:	2f30                	.insn	2, 0x2f30
   1be3c:	656e                	.insn	2, 0x656e
   1be3e:	62696c77          	.insn	4, 0x62696c77
   1be42:	62696c2f          	.insn	4, 0x62696c2f
   1be46:	74732f63          	.insn	4, 0x74732f63
   1be4a:	6c64                	.insn	2, 0x6c64
   1be4c:	6269                	lui	tp,0x1a
   1be4e:	72706d2f          	.insn	4, 0x72706d2f
   1be52:	6365                	lui	t1,0x19
   1be54:	632e                	.insn	2, 0x632e
   1be56:	0000                	unimp
   1be58:	202c                	.insn	2, 0x202c
   1be5a:	7566                	.insn	2, 0x7566
   1be5c:	636e                	.insn	2, 0x636e
   1be5e:	6974                	.insn	2, 0x6974
   1be60:	203a6e6f          	jal	t3,c2862 <__BSS_END__+0xa4b1a>
   1be64:	0000                	unimp
   1be66:	0000                	unimp
   1be68:	7361                	lui	t1,0xffff8
   1be6a:	74726573          	.insn	4, 0x74726573
   1be6e:	6f69                	lui	t5,0x1a
   1be70:	206e                	.insn	2, 0x206e
   1be72:	2522                	.insn	2, 0x2522
   1be74:	66202273          	.insn	4, 0x66202273
   1be78:	6961                	lui	s2,0x18
   1be7a:	656c                	.insn	2, 0x656c
   1be7c:	3a64                	.insn	2, 0x3a64
   1be7e:	6620                	.insn	2, 0x6620
   1be80:	6c69                	lui	s8,0x1a
   1be82:	2065                	jal	1bf2a <__clzsi2+0x44a>
   1be84:	2522                	.insn	2, 0x2522
   1be86:	202c2273          	.insn	4, 0x202c2273
   1be8a:	696c                	.insn	2, 0x696c
   1be8c:	656e                	.insn	2, 0x656e
   1be8e:	2520                	.insn	2, 0x2520
   1be90:	2564                	.insn	2, 0x2564
   1be92:	0a732573          	.insn	4, 0x0a732573
   1be96:	0000                	unimp
   1be98:	4b92                	lw	s7,4(sp)
   1be9a:	ffff                	.insn	2, 0xffff
   1be9c:	457a                	lw	a0,156(sp)
   1be9e:	ffff                	.insn	2, 0xffff
   1bea0:	457a                	lw	a0,156(sp)
   1bea2:	ffff                	.insn	2, 0xffff
   1bea4:	4b88                	lw	a0,16(a5)
   1bea6:	ffff                	.insn	2, 0xffff
   1bea8:	457a                	lw	a0,156(sp)
   1beaa:	ffff                	.insn	2, 0xffff
   1beac:	457a                	lw	a0,156(sp)
   1beae:	ffff                	.insn	2, 0xffff
   1beb0:	457a                	lw	a0,156(sp)
   1beb2:	ffff                	.insn	2, 0xffff
   1beb4:	46b8                	lw	a4,72(a3)
   1beb6:	ffff                	.insn	2, 0xffff
   1beb8:	457a                	lw	a0,156(sp)
   1beba:	ffff                	.insn	2, 0xffff
   1bebc:	457a                	lw	a0,156(sp)
   1bebe:	ffff                	.insn	2, 0xffff
   1bec0:	4aec                	lw	a1,84(a3)
   1bec2:	ffff                	.insn	2, 0xffff
   1bec4:	4b2c                	lw	a1,80(a4)
   1bec6:	ffff                	.insn	2, 0xffff
   1bec8:	457a                	lw	a0,156(sp)
   1beca:	ffff                	.insn	2, 0xffff
   1becc:	4afe                	lw	s5,220(sp)
   1bece:	ffff                	.insn	2, 0xffff
   1bed0:	4b44                	lw	s1,20(a4)
   1bed2:	ffff                	.insn	2, 0xffff
   1bed4:	457a                	lw	a0,156(sp)
   1bed6:	ffff                	.insn	2, 0xffff
   1bed8:	4b3a                	lw	s6,140(sp)
   1beda:	ffff                	.insn	2, 0xffff
   1bedc:	4550                	lw	a2,12(a0)
   1bede:	ffff                	.insn	2, 0xffff
   1bee0:	4550                	lw	a2,12(a0)
   1bee2:	ffff                	.insn	2, 0xffff
   1bee4:	4550                	lw	a2,12(a0)
   1bee6:	ffff                	.insn	2, 0xffff
   1bee8:	4550                	lw	a2,12(a0)
   1beea:	ffff                	.insn	2, 0xffff
   1beec:	4550                	lw	a2,12(a0)
   1beee:	ffff                	.insn	2, 0xffff
   1bef0:	4550                	lw	a2,12(a0)
   1bef2:	ffff                	.insn	2, 0xffff
   1bef4:	4550                	lw	a2,12(a0)
   1bef6:	ffff                	.insn	2, 0xffff
   1bef8:	4550                	lw	a2,12(a0)
   1befa:	ffff                	.insn	2, 0xffff
   1befc:	4550                	lw	a2,12(a0)
   1befe:	ffff                	.insn	2, 0xffff
   1bf00:	457a                	lw	a0,156(sp)
   1bf02:	ffff                	.insn	2, 0xffff
   1bf04:	457a                	lw	a0,156(sp)
   1bf06:	ffff                	.insn	2, 0xffff
   1bf08:	457a                	lw	a0,156(sp)
   1bf0a:	ffff                	.insn	2, 0xffff
   1bf0c:	457a                	lw	a0,156(sp)
   1bf0e:	ffff                	.insn	2, 0xffff
   1bf10:	457a                	lw	a0,156(sp)
   1bf12:	ffff                	.insn	2, 0xffff
   1bf14:	457a                	lw	a0,156(sp)
   1bf16:	ffff                	.insn	2, 0xffff
   1bf18:	457a                	lw	a0,156(sp)
   1bf1a:	ffff                	.insn	2, 0xffff
   1bf1c:	47b4                	lw	a3,72(a5)
   1bf1e:	ffff                	.insn	2, 0xffff
   1bf20:	457a                	lw	a0,156(sp)
   1bf22:	ffff                	.insn	2, 0xffff
   1bf24:	4a36                	lw	s4,76(sp)
   1bf26:	ffff                	.insn	2, 0xffff
   1bf28:	4c50                	lw	a2,28(s0)
   1bf2a:	ffff                	.insn	2, 0xffff
   1bf2c:	47b4                	lw	a3,72(a5)
   1bf2e:	ffff                	.insn	2, 0xffff
   1bf30:	47b4                	lw	a3,72(a5)
   1bf32:	ffff                	.insn	2, 0xffff
   1bf34:	47b4                	lw	a3,72(a5)
   1bf36:	ffff                	.insn	2, 0xffff
   1bf38:	457a                	lw	a0,156(sp)
   1bf3a:	ffff                	.insn	2, 0xffff
   1bf3c:	457a                	lw	a0,156(sp)
   1bf3e:	ffff                	.insn	2, 0xffff
   1bf40:	457a                	lw	a0,156(sp)
   1bf42:	ffff                	.insn	2, 0xffff
   1bf44:	457a                	lw	a0,156(sp)
   1bf46:	ffff                	.insn	2, 0xffff
   1bf48:	4c46                	lw	s8,80(sp)
   1bf4a:	ffff                	.insn	2, 0xffff
   1bf4c:	457a                	lw	a0,156(sp)
   1bf4e:	ffff                	.insn	2, 0xffff
   1bf50:	457a                	lw	a0,156(sp)
   1bf52:	ffff                	.insn	2, 0xffff
   1bf54:	4ba8                	lw	a0,80(a5)
   1bf56:	ffff                	.insn	2, 0xffff
   1bf58:	457a                	lw	a0,156(sp)
   1bf5a:	ffff                	.insn	2, 0xffff
   1bf5c:	457a                	lw	a0,156(sp)
   1bf5e:	ffff                	.insn	2, 0xffff
   1bf60:	457a                	lw	a0,156(sp)
   1bf62:	ffff                	.insn	2, 0xffff
   1bf64:	4a74                	lw	a3,84(a2)
   1bf66:	ffff                	.insn	2, 0xffff
   1bf68:	457a                	lw	a0,156(sp)
   1bf6a:	ffff                	.insn	2, 0xffff
   1bf6c:	4c1a                	lw	s8,132(sp)
   1bf6e:	ffff                	.insn	2, 0xffff
   1bf70:	457a                	lw	a0,156(sp)
   1bf72:	ffff                	.insn	2, 0xffff
   1bf74:	457a                	lw	a0,156(sp)
   1bf76:	ffff                	.insn	2, 0xffff
   1bf78:	53e4                	lw	s1,100(a5)
   1bf7a:	ffff                	.insn	2, 0xffff
   1bf7c:	457a                	lw	a0,156(sp)
   1bf7e:	ffff                	.insn	2, 0xffff
   1bf80:	457a                	lw	a0,156(sp)
   1bf82:	ffff                	.insn	2, 0xffff
   1bf84:	457a                	lw	a0,156(sp)
   1bf86:	ffff                	.insn	2, 0xffff
   1bf88:	457a                	lw	a0,156(sp)
   1bf8a:	ffff                	.insn	2, 0xffff
   1bf8c:	457a                	lw	a0,156(sp)
   1bf8e:	ffff                	.insn	2, 0xffff
   1bf90:	457a                	lw	a0,156(sp)
   1bf92:	ffff                	.insn	2, 0xffff
   1bf94:	457a                	lw	a0,156(sp)
   1bf96:	ffff                	.insn	2, 0xffff
   1bf98:	457a                	lw	a0,156(sp)
   1bf9a:	ffff                	.insn	2, 0xffff
   1bf9c:	47b4                	lw	a3,72(a5)
   1bf9e:	ffff                	.insn	2, 0xffff
   1bfa0:	457a                	lw	a0,156(sp)
   1bfa2:	ffff                	.insn	2, 0xffff
   1bfa4:	4a36                	lw	s4,76(sp)
   1bfa6:	ffff                	.insn	2, 0xffff
   1bfa8:	52c2                	lw	t0,48(sp)
   1bfaa:	ffff                	.insn	2, 0xffff
   1bfac:	47b4                	lw	a3,72(a5)
   1bfae:	ffff                	.insn	2, 0xffff
   1bfb0:	47b4                	lw	a3,72(a5)
   1bfb2:	ffff                	.insn	2, 0xffff
   1bfb4:	47b4                	lw	a3,72(a5)
   1bfb6:	ffff                	.insn	2, 0xffff
   1bfb8:	4b1a                	lw	s6,132(sp)
   1bfba:	ffff                	.insn	2, 0xffff
   1bfbc:	52c2                	lw	t0,48(sp)
   1bfbe:	ffff                	.insn	2, 0xffff
   1bfc0:	4a2c                	lw	a1,80(a2)
   1bfc2:	ffff                	.insn	2, 0xffff
   1bfc4:	457a                	lw	a0,156(sp)
   1bfc6:	ffff                	.insn	2, 0xffff
   1bfc8:	4b08                	lw	a0,16(a4)
   1bfca:	ffff                	.insn	2, 0xffff
   1bfcc:	457a                	lw	a0,156(sp)
   1bfce:	ffff                	.insn	2, 0xffff
   1bfd0:	4ce8                	lw	a0,92(s1)
   1bfd2:	ffff                	.insn	2, 0xffff
   1bfd4:	5468                	lw	a0,108(s0)
   1bfd6:	ffff                	.insn	2, 0xffff
   1bfd8:	4cb8                	lw	a4,88(s1)
   1bfda:	ffff                	.insn	2, 0xffff
   1bfdc:	4a2c                	lw	a1,80(a2)
   1bfde:	ffff                	.insn	2, 0xffff
   1bfe0:	457a                	lw	a0,156(sp)
   1bfe2:	ffff                	.insn	2, 0xffff
   1bfe4:	4a74                	lw	a3,84(a2)
   1bfe6:	ffff                	.insn	2, 0xffff
   1bfe8:	46dc                	lw	a5,12(a3)
   1bfea:	ffff                	.insn	2, 0xffff
   1bfec:	53dc                	lw	a5,36(a5)
   1bfee:	ffff                	.insn	2, 0xffff
   1bff0:	457a                	lw	a0,156(sp)
   1bff2:	ffff                	.insn	2, 0xffff
   1bff4:	457a                	lw	a0,156(sp)
   1bff6:	ffff                	.insn	2, 0xffff
   1bff8:	5456                	lw	s0,116(sp)
   1bffa:	ffff                	.insn	2, 0xffff
   1bffc:	457a                	lw	a0,156(sp)
   1bffe:	ffff                	.insn	2, 0xffff
   1c000:	46dc                	lw	a5,12(a3)
   1c002:	ffff                	.insn	2, 0xffff
   1c004:	5ab2                	lw	s5,44(sp)
   1c006:	ffff                	.insn	2, 0xffff
   1c008:	581c                	lw	a5,48(s0)
   1c00a:	ffff                	.insn	2, 0xffff
   1c00c:	581c                	lw	a5,48(s0)
   1c00e:	ffff                	.insn	2, 0xffff
   1c010:	581c                	lw	a5,48(s0)
   1c012:	ffff                	.insn	2, 0xffff
   1c014:	59fe                	lw	s3,252(sp)
   1c016:	ffff                	.insn	2, 0xffff
   1c018:	5c40                	lw	s0,60(s0)
   1c01a:	ffff                	.insn	2, 0xffff
   1c01c:	581c                	lw	a5,48(s0)
   1c01e:	ffff                	.insn	2, 0xffff
   1c020:	581c                	lw	a5,48(s0)
   1c022:	ffff                	.insn	2, 0xffff
   1c024:	581c                	lw	a5,48(s0)
   1c026:	ffff                	.insn	2, 0xffff
   1c028:	581c                	lw	a5,48(s0)
   1c02a:	ffff                	.insn	2, 0xffff
   1c02c:	581c                	lw	a5,48(s0)
   1c02e:	ffff                	.insn	2, 0xffff
   1c030:	581c                	lw	a5,48(s0)
   1c032:	ffff                	.insn	2, 0xffff
   1c034:	581c                	lw	a5,48(s0)
   1c036:	ffff                	.insn	2, 0xffff
   1c038:	581c                	lw	a5,48(s0)
   1c03a:	ffff                	.insn	2, 0xffff
   1c03c:	581c                	lw	a5,48(s0)
   1c03e:	ffff                	.insn	2, 0xffff
   1c040:	581c                	lw	a5,48(s0)
   1c042:	ffff                	.insn	2, 0xffff
   1c044:	581c                	lw	a5,48(s0)
   1c046:	ffff                	.insn	2, 0xffff
   1c048:	581c                	lw	a5,48(s0)
   1c04a:	ffff                	.insn	2, 0xffff
   1c04c:	581c                	lw	a5,48(s0)
   1c04e:	ffff                	.insn	2, 0xffff
   1c050:	581c                	lw	a5,48(s0)
   1c052:	ffff                	.insn	2, 0xffff
   1c054:	581c                	lw	a5,48(s0)
   1c056:	ffff                	.insn	2, 0xffff
   1c058:	581c                	lw	a5,48(s0)
   1c05a:	ffff                	.insn	2, 0xffff
   1c05c:	581c                	lw	a5,48(s0)
   1c05e:	ffff                	.insn	2, 0xffff
   1c060:	581c                	lw	a5,48(s0)
   1c062:	ffff                	.insn	2, 0xffff
   1c064:	581c                	lw	a5,48(s0)
   1c066:	ffff                	.insn	2, 0xffff
   1c068:	581c                	lw	a5,48(s0)
   1c06a:	ffff                	.insn	2, 0xffff
   1c06c:	581c                	lw	a5,48(s0)
   1c06e:	ffff                	.insn	2, 0xffff
   1c070:	581c                	lw	a5,48(s0)
   1c072:	ffff                	.insn	2, 0xffff
   1c074:	581c                	lw	a5,48(s0)
   1c076:	ffff                	.insn	2, 0xffff
   1c078:	581c                	lw	a5,48(s0)
   1c07a:	ffff                	.insn	2, 0xffff
   1c07c:	581c                	lw	a5,48(s0)
   1c07e:	ffff                	.insn	2, 0xffff
   1c080:	581c                	lw	a5,48(s0)
   1c082:	ffff                	.insn	2, 0xffff
   1c084:	5ab2                	lw	s5,44(sp)
   1c086:	ffff                	.insn	2, 0xffff
   1c088:	581c                	lw	a5,48(s0)
   1c08a:	ffff                	.insn	2, 0xffff
   1c08c:	581c                	lw	a5,48(s0)
   1c08e:	ffff                	.insn	2, 0xffff
   1c090:	581c                	lw	a5,48(s0)
   1c092:	ffff                	.insn	2, 0xffff
   1c094:	59fe                	lw	s3,252(sp)
   1c096:	ffff                	.insn	2, 0xffff
   1c098:	5c40                	lw	s0,60(s0)
   1c09a:	ffff                	.insn	2, 0xffff

0001c09c <zeroes.0>:
   1c09c:	3030                	.insn	2, 0x3030
   1c09e:	3030                	.insn	2, 0x3030
   1c0a0:	3030                	.insn	2, 0x3030
   1c0a2:	3030                	.insn	2, 0x3030
   1c0a4:	3030                	.insn	2, 0x3030
   1c0a6:	3030                	.insn	2, 0x3030
   1c0a8:	3030                	.insn	2, 0x3030
   1c0aa:	3030                	.insn	2, 0x3030

0001c0ac <blanks.1>:
   1c0ac:	2020                	.insn	2, 0x2020
   1c0ae:	2020                	.insn	2, 0x2020
   1c0b0:	2020                	.insn	2, 0x2020
   1c0b2:	2020                	.insn	2, 0x2020
   1c0b4:	2020                	.insn	2, 0x2020
   1c0b6:	2020                	.insn	2, 0x2020
   1c0b8:	2020                	.insn	2, 0x2020
   1c0ba:	2020                	.insn	2, 0x2020
   1c0bc:	6a06                	.insn	2, 0x6a06
   1c0be:	ffff                	.insn	2, 0xffff
   1c0c0:	64bc                	.insn	2, 0x64bc
   1c0c2:	ffff                	.insn	2, 0xffff
   1c0c4:	64bc                	.insn	2, 0x64bc
   1c0c6:	ffff                	.insn	2, 0xffff
   1c0c8:	69fc                	.insn	2, 0x69fc
   1c0ca:	ffff                	.insn	2, 0xffff
   1c0cc:	64bc                	.insn	2, 0x64bc
   1c0ce:	ffff                	.insn	2, 0xffff
   1c0d0:	64bc                	.insn	2, 0x64bc
   1c0d2:	ffff                	.insn	2, 0xffff
   1c0d4:	64bc                	.insn	2, 0x64bc
   1c0d6:	ffff                	.insn	2, 0xffff
   1c0d8:	69b8                	.insn	2, 0x69b8
   1c0da:	ffff                	.insn	2, 0xffff
   1c0dc:	64bc                	.insn	2, 0x64bc
   1c0de:	ffff                	.insn	2, 0xffff
   1c0e0:	64bc                	.insn	2, 0x64bc
   1c0e2:	ffff                	.insn	2, 0xffff
   1c0e4:	6628                	.insn	2, 0x6628
   1c0e6:	ffff                	.insn	2, 0xffff
   1c0e8:	6962                	.insn	2, 0x6962
   1c0ea:	ffff                	.insn	2, 0xffff
   1c0ec:	64bc                	.insn	2, 0x64bc
   1c0ee:	ffff                	.insn	2, 0xffff
   1c0f0:	6958                	.insn	2, 0x6958
   1c0f2:	ffff                	.insn	2, 0xffff
   1c0f4:	697a                	.insn	2, 0x697a
   1c0f6:	ffff                	.insn	2, 0xffff
   1c0f8:	64bc                	.insn	2, 0x64bc
   1c0fa:	ffff                	.insn	2, 0xffff
   1c0fc:	6970                	.insn	2, 0x6970
   1c0fe:	ffff                	.insn	2, 0xffff
   1c100:	6494                	.insn	2, 0x6494
   1c102:	ffff                	.insn	2, 0xffff
   1c104:	6494                	.insn	2, 0x6494
   1c106:	ffff                	.insn	2, 0xffff
   1c108:	6494                	.insn	2, 0x6494
   1c10a:	ffff                	.insn	2, 0xffff
   1c10c:	6494                	.insn	2, 0x6494
   1c10e:	ffff                	.insn	2, 0xffff
   1c110:	6494                	.insn	2, 0x6494
   1c112:	ffff                	.insn	2, 0xffff
   1c114:	6494                	.insn	2, 0x6494
   1c116:	ffff                	.insn	2, 0xffff
   1c118:	6494                	.insn	2, 0x6494
   1c11a:	ffff                	.insn	2, 0xffff
   1c11c:	6494                	.insn	2, 0x6494
   1c11e:	ffff                	.insn	2, 0xffff
   1c120:	6494                	.insn	2, 0x6494
   1c122:	ffff                	.insn	2, 0xffff
   1c124:	64bc                	.insn	2, 0x64bc
   1c126:	ffff                	.insn	2, 0xffff
   1c128:	64bc                	.insn	2, 0x64bc
   1c12a:	ffff                	.insn	2, 0xffff
   1c12c:	64bc                	.insn	2, 0x64bc
   1c12e:	ffff                	.insn	2, 0xffff
   1c130:	64bc                	.insn	2, 0x64bc
   1c132:	ffff                	.insn	2, 0xffff
   1c134:	64bc                	.insn	2, 0x64bc
   1c136:	ffff                	.insn	2, 0xffff
   1c138:	64bc                	.insn	2, 0x64bc
   1c13a:	ffff                	.insn	2, 0xffff
   1c13c:	64bc                	.insn	2, 0x64bc
   1c13e:	ffff                	.insn	2, 0xffff
   1c140:	64bc                	.insn	2, 0x64bc
   1c142:	ffff                	.insn	2, 0xffff
   1c144:	64bc                	.insn	2, 0x64bc
   1c146:	ffff                	.insn	2, 0xffff
   1c148:	68fa                	.insn	2, 0x68fa
   1c14a:	ffff                	.insn	2, 0xffff
   1c14c:	6642                	.insn	2, 0x6642
   1c14e:	ffff                	.insn	2, 0xffff
   1c150:	64bc                	.insn	2, 0x64bc
   1c152:	ffff                	.insn	2, 0xffff
   1c154:	64bc                	.insn	2, 0x64bc
   1c156:	ffff                	.insn	2, 0xffff
   1c158:	64bc                	.insn	2, 0x64bc
   1c15a:	ffff                	.insn	2, 0xffff
   1c15c:	64bc                	.insn	2, 0x64bc
   1c15e:	ffff                	.insn	2, 0xffff
   1c160:	64bc                	.insn	2, 0x64bc
   1c162:	ffff                	.insn	2, 0xffff
   1c164:	64bc                	.insn	2, 0x64bc
   1c166:	ffff                	.insn	2, 0xffff
   1c168:	64bc                	.insn	2, 0x64bc
   1c16a:	ffff                	.insn	2, 0xffff
   1c16c:	64bc                	.insn	2, 0x64bc
   1c16e:	ffff                	.insn	2, 0xffff
   1c170:	64bc                	.insn	2, 0x64bc
   1c172:	ffff                	.insn	2, 0xffff
   1c174:	64bc                	.insn	2, 0x64bc
   1c176:	ffff                	.insn	2, 0xffff
   1c178:	6a1c                	.insn	2, 0x6a1c
   1c17a:	ffff                	.insn	2, 0xffff
   1c17c:	64bc                	.insn	2, 0x64bc
   1c17e:	ffff                	.insn	2, 0xffff
   1c180:	64bc                	.insn	2, 0x64bc
   1c182:	ffff                	.insn	2, 0xffff
   1c184:	64bc                	.insn	2, 0x64bc
   1c186:	ffff                	.insn	2, 0xffff
   1c188:	68a2                	.insn	2, 0x68a2
   1c18a:	ffff                	.insn	2, 0xffff
   1c18c:	64bc                	.insn	2, 0x64bc
   1c18e:	ffff                	.insn	2, 0xffff
   1c190:	6a9a                	.insn	2, 0x6a9a
   1c192:	ffff                	.insn	2, 0xffff
   1c194:	64bc                	.insn	2, 0x64bc
   1c196:	ffff                	.insn	2, 0xffff
   1c198:	64bc                	.insn	2, 0x64bc
   1c19a:	ffff                	.insn	2, 0xffff
   1c19c:	6f96                	.insn	2, 0x6f96
   1c19e:	ffff                	.insn	2, 0xffff
   1c1a0:	64bc                	.insn	2, 0x64bc
   1c1a2:	ffff                	.insn	2, 0xffff
   1c1a4:	64bc                	.insn	2, 0x64bc
   1c1a6:	ffff                	.insn	2, 0xffff
   1c1a8:	64bc                	.insn	2, 0x64bc
   1c1aa:	ffff                	.insn	2, 0xffff
   1c1ac:	64bc                	.insn	2, 0x64bc
   1c1ae:	ffff                	.insn	2, 0xffff
   1c1b0:	64bc                	.insn	2, 0x64bc
   1c1b2:	ffff                	.insn	2, 0xffff
   1c1b4:	64bc                	.insn	2, 0x64bc
   1c1b6:	ffff                	.insn	2, 0xffff
   1c1b8:	64bc                	.insn	2, 0x64bc
   1c1ba:	ffff                	.insn	2, 0xffff
   1c1bc:	64bc                	.insn	2, 0x64bc
   1c1be:	ffff                	.insn	2, 0xffff
   1c1c0:	64bc                	.insn	2, 0x64bc
   1c1c2:	ffff                	.insn	2, 0xffff
   1c1c4:	64bc                	.insn	2, 0x64bc
   1c1c6:	ffff                	.insn	2, 0xffff
   1c1c8:	68fa                	.insn	2, 0x68fa
   1c1ca:	ffff                	.insn	2, 0xffff
   1c1cc:	6646                	.insn	2, 0x6646
   1c1ce:	ffff                	.insn	2, 0xffff
   1c1d0:	64bc                	.insn	2, 0x64bc
   1c1d2:	ffff                	.insn	2, 0xffff
   1c1d4:	64bc                	.insn	2, 0x64bc
   1c1d6:	ffff                	.insn	2, 0xffff
   1c1d8:	64bc                	.insn	2, 0x64bc
   1c1da:	ffff                	.insn	2, 0xffff
   1c1dc:	6a88                	.insn	2, 0x6a88
   1c1de:	ffff                	.insn	2, 0xffff
   1c1e0:	6646                	.insn	2, 0x6646
   1c1e2:	ffff                	.insn	2, 0xffff
   1c1e4:	6638                	.insn	2, 0x6638
   1c1e6:	ffff                	.insn	2, 0xffff
   1c1e8:	64bc                	.insn	2, 0x64bc
   1c1ea:	ffff                	.insn	2, 0xffff
   1c1ec:	6a76                	.insn	2, 0x6a76
   1c1ee:	ffff                	.insn	2, 0xffff
   1c1f0:	64bc                	.insn	2, 0x64bc
   1c1f2:	ffff                	.insn	2, 0xffff
   1c1f4:	6b68                	.insn	2, 0x6b68
   1c1f6:	ffff                	.insn	2, 0xffff
   1c1f8:	6fda                	.insn	2, 0x6fda
   1c1fa:	ffff                	.insn	2, 0xffff
   1c1fc:	6b2c                	.insn	2, 0x6b2c
   1c1fe:	ffff                	.insn	2, 0xffff
   1c200:	6638                	.insn	2, 0x6638
   1c202:	ffff                	.insn	2, 0xffff
   1c204:	64bc                	.insn	2, 0x64bc
   1c206:	ffff                	.insn	2, 0xffff
   1c208:	68a2                	.insn	2, 0x68a2
   1c20a:	ffff                	.insn	2, 0xffff
   1c20c:	6632                	.insn	2, 0x6632
   1c20e:	ffff                	.insn	2, 0xffff
   1c210:	6f92                	.insn	2, 0x6f92
   1c212:	ffff                	.insn	2, 0xffff
   1c214:	64bc                	.insn	2, 0x64bc
   1c216:	ffff                	.insn	2, 0xffff
   1c218:	64bc                	.insn	2, 0x64bc
   1c21a:	ffff                	.insn	2, 0xffff
   1c21c:	6fde                	.insn	2, 0x6fde
   1c21e:	ffff                	.insn	2, 0xffff
   1c220:	64bc                	.insn	2, 0x64bc
   1c222:	ffff                	.insn	2, 0xffff
   1c224:	6632                	.insn	2, 0x6632
   1c226:	ffff                	.insn	2, 0xffff

0001c228 <zeroes.0>:
   1c228:	3030                	.insn	2, 0x3030
   1c22a:	3030                	.insn	2, 0x3030
   1c22c:	3030                	.insn	2, 0x3030
   1c22e:	3030                	.insn	2, 0x3030
   1c230:	3030                	.insn	2, 0x3030
   1c232:	3030                	.insn	2, 0x3030
   1c234:	3030                	.insn	2, 0x3030
   1c236:	3030                	.insn	2, 0x3030

0001c238 <blanks.1>:
   1c238:	2020                	.insn	2, 0x2020
   1c23a:	2020                	.insn	2, 0x2020
   1c23c:	2020                	.insn	2, 0x2020
   1c23e:	2020                	.insn	2, 0x2020
   1c240:	2020                	.insn	2, 0x2020
   1c242:	2020                	.insn	2, 0x2020
   1c244:	2020                	.insn	2, 0x2020
   1c246:	2020                	.insn	2, 0x2020
   1c248:	86ce                	mv	a3,s3
   1c24a:	ffff                	.insn	2, 0xffff
   1c24c:	8312                	mv	t1,tp
   1c24e:	ffff                	.insn	2, 0xffff
   1c250:	82ae                	mv	t0,a1
   1c252:	ffff                	.insn	2, 0xffff
   1c254:	8312                	mv	t1,tp
   1c256:	ffff                	.insn	2, 0xffff
   1c258:	8672                	mv	a2,t3
   1c25a:	ffff                	.insn	2, 0xffff
   1c25c:	8312                	mv	t1,tp
   1c25e:	ffff                	.insn	2, 0xffff
   1c260:	8628                	.insn	2, 0x8628
   1c262:	ffff                	.insn	2, 0xffff
   1c264:	8312                	mv	t1,tp
   1c266:	ffff                	.insn	2, 0xffff
   1c268:	857e                	mv	a0,t6
   1c26a:	ffff                	.insn	2, 0xffff
   1c26c:	854a                	mv	a0,s2
   1c26e:	ffff                	.insn	2, 0xffff
   1c270:	8502                	jr	a0
   1c272:	ffff                	.insn	2, 0xffff
   1c274:	8312                	mv	t1,tp
   1c276:	ffff                	.insn	2, 0xffff
   1c278:	8312                	mv	t1,tp
   1c27a:	ffff                	.insn	2, 0xffff
   1c27c:	8312                	mv	t1,tp
   1c27e:	ffff                	.insn	2, 0xffff
   1c280:	8312                	mv	t1,tp
   1c282:	ffff                	.insn	2, 0xffff
   1c284:	84e0                	.insn	2, 0x84e0
   1c286:	ffff                	.insn	2, 0xffff
   1c288:	8312                	mv	t1,tp
   1c28a:	ffff                	.insn	2, 0xffff
   1c28c:	8312                	mv	t1,tp
   1c28e:	ffff                	.insn	2, 0xffff
   1c290:	84ac                	.insn	2, 0x84ac
   1c292:	ffff                	.insn	2, 0xffff
   1c294:	8450                	.insn	2, 0x8450
   1c296:	ffff                	.insn	2, 0xffff
   1c298:	83d2                	mv	t2,s4
   1c29a:	ffff                	.insn	2, 0xffff
   1c29c:	8312                	mv	t1,tp
   1c29e:	ffff                	.insn	2, 0xffff
   1c2a0:	8312                	mv	t1,tp
   1c2a2:	ffff                	.insn	2, 0xffff
   1c2a4:	8312                	mv	t1,tp
   1c2a6:	ffff                	.insn	2, 0xffff
   1c2a8:	8312                	mv	t1,tp
   1c2aa:	ffff                	.insn	2, 0xffff
   1c2ac:	8312                	mv	t1,tp
   1c2ae:	ffff                	.insn	2, 0xffff
   1c2b0:	8312                	mv	t1,tp
   1c2b2:	ffff                	.insn	2, 0xffff
   1c2b4:	8312                	mv	t1,tp
   1c2b6:	ffff                	.insn	2, 0xffff
   1c2b8:	8312                	mv	t1,tp
   1c2ba:	ffff                	.insn	2, 0xffff
   1c2bc:	8312                	mv	t1,tp
   1c2be:	ffff                	.insn	2, 0xffff
   1c2c0:	8312                	mv	t1,tp
   1c2c2:	ffff                	.insn	2, 0xffff
   1c2c4:	8312                	mv	t1,tp
   1c2c6:	ffff                	.insn	2, 0xffff
   1c2c8:	86ce                	mv	a3,s3
   1c2ca:	ffff                	.insn	2, 0xffff
   1c2cc:	8312                	mv	t1,tp
   1c2ce:	ffff                	.insn	2, 0xffff
   1c2d0:	82ae                	mv	t0,a1
   1c2d2:	ffff                	.insn	2, 0xffff
   1c2d4:	8312                	mv	t1,tp
   1c2d6:	ffff                	.insn	2, 0xffff
   1c2d8:	8672                	mv	a2,t3
   1c2da:	ffff                	.insn	2, 0xffff
   1c2dc:	8312                	mv	t1,tp
   1c2de:	ffff                	.insn	2, 0xffff
   1c2e0:	8628                	.insn	2, 0x8628
   1c2e2:	ffff                	.insn	2, 0xffff
   1c2e4:	8312                	mv	t1,tp
   1c2e6:	ffff                	.insn	2, 0xffff
   1c2e8:	857e                	mv	a0,t6
   1c2ea:	ffff                	.insn	2, 0xffff
   1c2ec:	854a                	mv	a0,s2
   1c2ee:	ffff                	.insn	2, 0xffff
   1c2f0:	8502                	jr	a0
   1c2f2:	ffff                	.insn	2, 0xffff
   1c2f4:	8312                	mv	t1,tp
   1c2f6:	ffff                	.insn	2, 0xffff
   1c2f8:	8312                	mv	t1,tp
   1c2fa:	ffff                	.insn	2, 0xffff
   1c2fc:	8312                	mv	t1,tp
   1c2fe:	ffff                	.insn	2, 0xffff
   1c300:	8312                	mv	t1,tp
   1c302:	ffff                	.insn	2, 0xffff
   1c304:	84e0                	.insn	2, 0x84e0
   1c306:	ffff                	.insn	2, 0xffff
   1c308:	8312                	mv	t1,tp
   1c30a:	ffff                	.insn	2, 0xffff
   1c30c:	8312                	mv	t1,tp
   1c30e:	ffff                	.insn	2, 0xffff
   1c310:	84ac                	.insn	2, 0x84ac
   1c312:	ffff                	.insn	2, 0xffff
   1c314:	8450                	.insn	2, 0x8450
   1c316:	ffff                	.insn	2, 0xffff
   1c318:	83d2                	mv	t2,s4
   1c31a:	ffff                	.insn	2, 0xffff

0001c31c <__C_locale>:
   1c31c:	00000043          	.insn	4, 0x0043
	...
   1c33c:	00000043          	.insn	4, 0x0043
	...
   1c35c:	00000043          	.insn	4, 0x0043
	...
   1c37c:	00000043          	.insn	4, 0x0043
	...
   1c39c:	00000043          	.insn	4, 0x0043
	...
   1c3bc:	00000043          	.insn	4, 0x0043
	...
   1c3dc:	00000043          	.insn	4, 0x0043
	...
   1c3fc:	8b36                	mv	s6,a3
   1c3fe:	0001                	nop
   1c400:	6f86                	.insn	2, 0x6f86
   1c402:	0001                	nop
   1c404:	0000                	unimp
   1c406:	0000                	unimp
   1c408:	c4a4                	sw	s1,72(s1)
   1c40a:	0001                	nop
   1c40c:	bc8c                	.insn	2, 0xbc8c
   1c40e:	0001                	nop
   1c410:	be64                	.insn	2, 0xbe64
   1c412:	0001                	nop
   1c414:	be64                	.insn	2, 0xbe64
   1c416:	0001                	nop
   1c418:	be64                	.insn	2, 0xbe64
   1c41a:	0001                	nop
   1c41c:	be64                	.insn	2, 0xbe64
   1c41e:	0001                	nop
   1c420:	be64                	.insn	2, 0xbe64
   1c422:	0001                	nop
   1c424:	be64                	.insn	2, 0xbe64
   1c426:	0001                	nop
   1c428:	be64                	.insn	2, 0xbe64
   1c42a:	0001                	nop
   1c42c:	be64                	.insn	2, 0xbe64
   1c42e:	0001                	nop
   1c430:	be64                	.insn	2, 0xbe64
   1c432:	0001                	nop
   1c434:	ffff                	.insn	2, 0xffff
   1c436:	ffff                	.insn	2, 0xffff
   1c438:	ffff                	.insn	2, 0xffff
   1c43a:	ffff                	.insn	2, 0xffff
   1c43c:	ffff                	.insn	2, 0xffff
   1c43e:	ffff                	.insn	2, 0xffff
   1c440:	ffff                	.insn	2, 0xffff
   1c442:	0000                	unimp
   1c444:	0001                	nop
   1c446:	5341                	li	t1,-16
   1c448:	00494943          	.insn	4, 0x00494943
	...
   1c464:	0000                	unimp
   1c466:	5341                	li	t1,-16
   1c468:	00494943          	.insn	4, 0x00494943
	...

0001c488 <categories>:
   1c488:	bc7c                	.insn	2, 0xbc7c
   1c48a:	0001                	nop
   1c48c:	bc90                	.insn	2, 0xbc90
   1c48e:	0001                	nop
   1c490:	bc9c                	.insn	2, 0xbc9c
   1c492:	0001                	nop
   1c494:	bca8                	.insn	2, 0xbca8
   1c496:	0001                	nop
   1c498:	bcb4                	.insn	2, 0xbcb4
   1c49a:	0001                	nop
   1c49c:	bcc0                	.insn	2, 0xbcc0
   1c49e:	0001                	nop
   1c4a0:	bcc8                	.insn	2, 0xbcc8
   1c4a2:	0001                	nop

0001c4a4 <_ctype_>:
   1c4a4:	2000                	.insn	2, 0x2000
   1c4a6:	2020                	.insn	2, 0x2020
   1c4a8:	2020                	.insn	2, 0x2020
   1c4aa:	2020                	.insn	2, 0x2020
   1c4ac:	2020                	.insn	2, 0x2020
   1c4ae:	2828                	.insn	2, 0x2828
   1c4b0:	2828                	.insn	2, 0x2828
   1c4b2:	2028                	.insn	2, 0x2028
   1c4b4:	2020                	.insn	2, 0x2020
   1c4b6:	2020                	.insn	2, 0x2020
   1c4b8:	2020                	.insn	2, 0x2020
   1c4ba:	2020                	.insn	2, 0x2020
   1c4bc:	2020                	.insn	2, 0x2020
   1c4be:	2020                	.insn	2, 0x2020
   1c4c0:	2020                	.insn	2, 0x2020
   1c4c2:	2020                	.insn	2, 0x2020
   1c4c4:	8820                	.insn	2, 0x8820
   1c4c6:	1010                	add	a2,sp,32
   1c4c8:	1010                	add	a2,sp,32
   1c4ca:	1010                	add	a2,sp,32
   1c4cc:	1010                	add	a2,sp,32
   1c4ce:	1010                	add	a2,sp,32
   1c4d0:	1010                	add	a2,sp,32
   1c4d2:	1010                	add	a2,sp,32
   1c4d4:	0410                	add	a2,sp,512
   1c4d6:	0404                	add	s1,sp,512
   1c4d8:	0404                	add	s1,sp,512
   1c4da:	0404                	add	s1,sp,512
   1c4dc:	0404                	add	s1,sp,512
   1c4de:	1004                	add	s1,sp,32
   1c4e0:	1010                	add	a2,sp,32
   1c4e2:	1010                	add	a2,sp,32
   1c4e4:	1010                	add	a2,sp,32
   1c4e6:	4141                	li	sp,16
   1c4e8:	4141                	li	sp,16
   1c4ea:	4141                	li	sp,16
   1c4ec:	0101                	add	sp,sp,0
   1c4ee:	0101                	add	sp,sp,0
   1c4f0:	0101                	add	sp,sp,0
   1c4f2:	0101                	add	sp,sp,0
   1c4f4:	0101                	add	sp,sp,0
   1c4f6:	0101                	add	sp,sp,0
   1c4f8:	0101                	add	sp,sp,0
   1c4fa:	0101                	add	sp,sp,0
   1c4fc:	0101                	add	sp,sp,0
   1c4fe:	0101                	add	sp,sp,0
   1c500:	1010                	add	a2,sp,32
   1c502:	1010                	add	a2,sp,32
   1c504:	1010                	add	a2,sp,32
   1c506:	4242                	lw	tp,16(sp)
   1c508:	4242                	lw	tp,16(sp)
   1c50a:	4242                	lw	tp,16(sp)
   1c50c:	0202                	c.slli64	tp
   1c50e:	0202                	c.slli64	tp
   1c510:	0202                	c.slli64	tp
   1c512:	0202                	c.slli64	tp
   1c514:	0202                	c.slli64	tp
   1c516:	0202                	c.slli64	tp
   1c518:	0202                	c.slli64	tp
   1c51a:	0202                	c.slli64	tp
   1c51c:	0202                	c.slli64	tp
   1c51e:	0202                	c.slli64	tp
   1c520:	1010                	add	a2,sp,32
   1c522:	1010                	add	a2,sp,32
   1c524:	0020                	add	s0,sp,8
	...
   1c5a6:	0000                	unimp
   1c5a8:	b048                	.insn	2, 0xb048
   1c5aa:	ffff                	.insn	2, 0xffff
   1c5ac:	af86                	.insn	2, 0xaf86
   1c5ae:	ffff                	.insn	2, 0xffff
   1c5b0:	af86                	.insn	2, 0xaf86
   1c5b2:	ffff                	.insn	2, 0xffff
   1c5b4:	af86                	.insn	2, 0xaf86
   1c5b6:	ffff                	.insn	2, 0xffff
   1c5b8:	af86                	.insn	2, 0xaf86
   1c5ba:	ffff                	.insn	2, 0xffff
   1c5bc:	af86                	.insn	2, 0xaf86
   1c5be:	ffff                	.insn	2, 0xffff
   1c5c0:	af86                	.insn	2, 0xaf86
   1c5c2:	ffff                	.insn	2, 0xffff
   1c5c4:	af86                	.insn	2, 0xaf86
   1c5c6:	ffff                	.insn	2, 0xffff
   1c5c8:	af86                	.insn	2, 0xaf86
   1c5ca:	ffff                	.insn	2, 0xffff
   1c5cc:	b044                	.insn	2, 0xb044
   1c5ce:	ffff                	.insn	2, 0xffff
   1c5d0:	af86                	.insn	2, 0xaf86
   1c5d2:	ffff                	.insn	2, 0xffff
   1c5d4:	af86                	.insn	2, 0xaf86
   1c5d6:	ffff                	.insn	2, 0xffff
   1c5d8:	af86                	.insn	2, 0xaf86
   1c5da:	ffff                	.insn	2, 0xffff
   1c5dc:	b020                	.insn	2, 0xb020
   1c5de:	ffff                	.insn	2, 0xffff
   1c5e0:	af86                	.insn	2, 0xaf86
   1c5e2:	ffff                	.insn	2, 0xffff
   1c5e4:	af86                	.insn	2, 0xaf86
   1c5e6:	ffff                	.insn	2, 0xffff
   1c5e8:	af86                	.insn	2, 0xaf86
   1c5ea:	ffff                	.insn	2, 0xffff
   1c5ec:	af86                	.insn	2, 0xaf86
   1c5ee:	ffff                	.insn	2, 0xffff
   1c5f0:	af86                	.insn	2, 0xaf86
   1c5f2:	ffff                	.insn	2, 0xffff
   1c5f4:	af86                	.insn	2, 0xaf86
   1c5f6:	ffff                	.insn	2, 0xffff
   1c5f8:	af86                	.insn	2, 0xaf86
   1c5fa:	ffff                	.insn	2, 0xffff
   1c5fc:	af86                	.insn	2, 0xaf86
   1c5fe:	ffff                	.insn	2, 0xffff
   1c600:	af86                	.insn	2, 0xaf86
   1c602:	ffff                	.insn	2, 0xffff
   1c604:	af86                	.insn	2, 0xaf86
   1c606:	ffff                	.insn	2, 0xffff
   1c608:	af86                	.insn	2, 0xaf86
   1c60a:	ffff                	.insn	2, 0xffff
   1c60c:	af86                	.insn	2, 0xaf86
   1c60e:	ffff                	.insn	2, 0xffff
   1c610:	af86                	.insn	2, 0xaf86
   1c612:	ffff                	.insn	2, 0xffff
   1c614:	af86                	.insn	2, 0xaf86
   1c616:	ffff                	.insn	2, 0xffff
   1c618:	af86                	.insn	2, 0xaf86
   1c61a:	ffff                	.insn	2, 0xffff
   1c61c:	af86                	.insn	2, 0xaf86
   1c61e:	ffff                	.insn	2, 0xffff
   1c620:	af86                	.insn	2, 0xaf86
   1c622:	ffff                	.insn	2, 0xffff
   1c624:	af86                	.insn	2, 0xaf86
   1c626:	ffff                	.insn	2, 0xffff
   1c628:	af86                	.insn	2, 0xaf86
   1c62a:	ffff                	.insn	2, 0xffff
   1c62c:	af86                	.insn	2, 0xaf86
   1c62e:	ffff                	.insn	2, 0xffff
   1c630:	af86                	.insn	2, 0xaf86
   1c632:	ffff                	.insn	2, 0xffff
   1c634:	af86                	.insn	2, 0xaf86
   1c636:	ffff                	.insn	2, 0xffff
   1c638:	af86                	.insn	2, 0xaf86
   1c63a:	ffff                	.insn	2, 0xffff
   1c63c:	b024                	.insn	2, 0xb024
   1c63e:	ffff                	.insn	2, 0xffff
   1c640:	af86                	.insn	2, 0xaf86
   1c642:	ffff                	.insn	2, 0xffff
   1c644:	b028                	.insn	2, 0xb028
   1c646:	ffff                	.insn	2, 0xffff
   1c648:	af86                	.insn	2, 0xaf86
   1c64a:	ffff                	.insn	2, 0xffff
   1c64c:	af86                	.insn	2, 0xaf86
   1c64e:	ffff                	.insn	2, 0xffff
   1c650:	af86                	.insn	2, 0xaf86
   1c652:	ffff                	.insn	2, 0xffff
   1c654:	af86                	.insn	2, 0xaf86
   1c656:	ffff                	.insn	2, 0xffff
   1c658:	af86                	.insn	2, 0xaf86
   1c65a:	ffff                	.insn	2, 0xffff
   1c65c:	af86                	.insn	2, 0xaf86
   1c65e:	ffff                	.insn	2, 0xffff
   1c660:	af86                	.insn	2, 0xaf86
   1c662:	ffff                	.insn	2, 0xffff
   1c664:	b02c                	.insn	2, 0xb02c
   1c666:	ffff                	.insn	2, 0xffff
   1c668:	af3e                	.insn	2, 0xaf3e
   1c66a:	ffff                	.insn	2, 0xffff
   1c66c:	aefc                	.insn	2, 0xaefc
   1c66e:	ffff                	.insn	2, 0xffff
   1c670:	af1e                	.insn	2, 0xaf1e
   1c672:	ffff                	.insn	2, 0xffff
   1c674:	af18                	.insn	2, 0xaf18
   1c676:	ffff                	.insn	2, 0xffff
   1c678:	af00                	.insn	2, 0xaf00
   1c67a:	ffff                	.insn	2, 0xffff
   1c67c:	af4a                	.insn	2, 0xaf4a
   1c67e:	ffff                	.insn	2, 0xffff

0001c680 <JIS_action_table>:
   1c680:	0004                	.insn	2, 0x0004
   1c682:	0000                	unimp
   1c684:	0000                	unimp
   1c686:	0005                	c.nop	1
   1c688:	0400                	add	s0,sp,512
   1c68a:	0101                	add	sp,sp,0
   1c68c:	0101                	add	sp,sp,0
   1c68e:	0601                	add	a2,a2,0 # ffff9000 <__BSS_END__+0xfffdb2b8>
   1c690:	0601                	add	a2,a2,0
   1c692:	0400                	add	s0,sp,512
	...
   1c69c:	0000                	unimp
   1c69e:	0404                	add	s1,sp,512
   1c6a0:	0000                	unimp
   1c6a2:	0000                	unimp
   1c6a4:	0206                	sll	tp,tp,0x1
   1c6a6:	0202                	c.slli64	tp
   1c6a8:	0202                	c.slli64	tp
   1c6aa:	0206                	sll	tp,tp,0x1
   1c6ac:	0606                	sll	a2,a2,0x1
   1c6ae:	0406                	sll	s0,s0,0x1
   1c6b0:	0606                	sll	a2,a2,0x1
   1c6b2:	0606                	sll	a2,a2,0x1
   1c6b4:	0606                	sll	a2,a2,0x1
   1c6b6:	0606                	sll	a2,a2,0x1
   1c6b8:	0606                	sll	a2,a2,0x1
   1c6ba:	06060303          	lb	t1,96(a2)
   1c6be:	0006                	c.slli	zero,0x1
	...

0001c6c8 <JIS_state_table>:
   1c6c8:	0002                	c.slli64	zero
   1c6ca:	0000                	unimp
   1c6cc:	0000                	unimp
   1c6ce:	0000                	unimp
   1c6d0:	0500                	add	s0,sp,640
   1c6d2:	0404                	add	s1,sp,512
   1c6d4:	0404                	add	s1,sp,512
   1c6d6:	0704                	add	s1,sp,896
   1c6d8:	0704                	add	s1,sp,896
   1c6da:	0300                	add	s0,sp,384
	...
   1c6e4:	0000                	unimp
   1c6e6:	0101                	add	sp,sp,0
   1c6e8:	0000                	unimp
   1c6ea:	0000                	unimp
   1c6ec:	01010107          	.insn	4, 0x01010107
   1c6f0:	0101                	add	sp,sp,0
   1c6f2:	07070107          	.insn	4, 0x07070107
   1c6f6:	07070607          	.insn	4, 0x07070607
   1c6fa:	07070707          	.insn	4, 0x07070707
   1c6fe:	07070707          	.insn	4, 0x07070707
   1c702:	0000                	unimp
   1c704:	00070707          	.insn	4, 0x00070707
	...

0001c710 <p05.0>:
   1c710:	0005                	c.nop	1
   1c712:	0000                	unimp
   1c714:	0019                	c.nop	6
   1c716:	0000                	unimp
   1c718:	007d                	c.nop	31
   1c71a:	0000                	unimp
   1c71c:	0000                	unimp
	...

0001c720 <__mprec_tinytens>:
   1c720:	89bc                	.insn	2, 0x89bc
   1c722:	97d8                	.insn	2, 0x97d8
   1c724:	d2b2                	sw	a2,100(sp)
   1c726:	3c9c                	.insn	2, 0x3c9c
   1c728:	d5a8a733          	.insn	4, 0xd5a8a733
   1c72c:	3949f623          	.insn	4, 0x3949f623
   1c730:	a73d                	j	1ce5e <__clz_tab+0x5e6>
   1c732:	44f4                	lw	a3,76(s1)
   1c734:	0ffd                	add	t6,t6,31
   1c736:	32a5                	jal	1c09e <zeroes.0+0x2>
   1c738:	979d                	sra	a5,a5,0x27
   1c73a:	cf8c                	sw	a1,24(a5)
   1c73c:	ba08                	.insn	2, 0xba08
   1c73e:	6f43255b          	.insn	4, 0x6f43255b
   1c742:	64ac                	.insn	2, 0x64ac
   1c744:	0628                	add	a0,sp,776
   1c746:	0ac8                	add	a0,sp,340

0001c748 <__mprec_bigtens>:
   1c748:	8000                	.insn	2, 0x8000
   1c74a:	37e0                	.insn	2, 0x37e0
   1c74c:	c379                	beqz	a4,1c812 <__mprec_tens+0xa2>
   1c74e:	4341                	li	t1,16
   1c750:	b5056e17          	auipc	t3,0xb5056
   1c754:	b8b5                	j	1bfd0 <__clzsi2+0x4f0>
   1c756:	f9f54693          	xor	a3,a0,-97
   1c75a:	4f03e93f 1d324d38 	.insn	8, 0x1d324d384f03e93f
   1c762:	f930                	.insn	2, 0xf930
   1c764:	7748                	.insn	2, 0x7748
   1c766:	5a82                	lw	s5,32(sp)
   1c768:	bf3c                	.insn	2, 0xbf3c
   1c76a:	4fdd7f73          	.insn	4, 0x4fdd7f73
   1c76e:	7515                	lui	a0,0xfffe5

0001c770 <__mprec_tens>:
   1c770:	0000                	unimp
   1c772:	0000                	unimp
   1c774:	0000                	unimp
   1c776:	3ff0                	.insn	2, 0x3ff0
   1c778:	0000                	unimp
   1c77a:	0000                	unimp
   1c77c:	0000                	unimp
   1c77e:	4024                	lw	s1,64(s0)
   1c780:	0000                	unimp
   1c782:	0000                	unimp
   1c784:	0000                	unimp
   1c786:	4059                	c.li	zero,22
   1c788:	0000                	unimp
   1c78a:	0000                	unimp
   1c78c:	4000                	lw	s0,0(s0)
   1c78e:	0000408f          	.insn	4, 0x408f
   1c792:	0000                	unimp
   1c794:	8800                	.insn	2, 0x8800
   1c796:	000040c3          	.insn	4, 0x40c3
   1c79a:	0000                	unimp
   1c79c:	6a00                	.insn	2, 0x6a00
   1c79e:	40f8                	lw	a4,68(s1)
   1c7a0:	0000                	unimp
   1c7a2:	0000                	unimp
   1c7a4:	8480                	.insn	2, 0x8480
   1c7a6:	412e                	lw	sp,200(sp)
   1c7a8:	0000                	unimp
   1c7aa:	0000                	unimp
   1c7ac:	12d0                	add	a2,sp,356
   1c7ae:	00004163          	bltz	zero,1c7b0 <__mprec_tens+0x40>
   1c7b2:	0000                	unimp
   1c7b4:	d784                	sw	s1,40(a5)
   1c7b6:	00004197          	auipc	gp,0x4
   1c7ba:	0000                	unimp
   1c7bc:	cd65                	beqz	a0,1c8b4 <__clz_tab+0x3c>
   1c7be:	41cd                	li	gp,19
   1c7c0:	0000                	unimp
   1c7c2:	2000                	.insn	2, 0x2000
   1c7c4:	a05f 4202 0000      	.insn	6, 0x4202a05f
   1c7ca:	e800                	.insn	2, 0xe800
   1c7cc:	4876                	lw	a6,92(sp)
   1c7ce:	00004237          	lui	tp,0x4
   1c7d2:	a200                	.insn	2, 0xa200
   1c7d4:	1a94                	add	a3,sp,368
   1c7d6:	426d                	li	tp,27
   1c7d8:	0000                	unimp
   1c7da:	e540                	.insn	2, 0xe540
   1c7dc:	309c                	.insn	2, 0x309c
   1c7de:	42a2                	lw	t0,8(sp)
   1c7e0:	0000                	unimp
   1c7e2:	1e90                	add	a2,sp,880
   1c7e4:	bcc4                	.insn	2, 0xbcc4
   1c7e6:	42d6                	lw	t0,84(sp)
   1c7e8:	0000                	unimp
   1c7ea:	2634                	.insn	2, 0x2634
   1c7ec:	6bf5                	lui	s7,0x1d
   1c7ee:	430c                	lw	a1,0(a4)
   1c7f0:	8000                	.insn	2, 0x8000
   1c7f2:	37e0                	.insn	2, 0x37e0
   1c7f4:	c379                	beqz	a4,1c8ba <__clz_tab+0x42>
   1c7f6:	4341                	li	t1,16
   1c7f8:	a000                	.insn	2, 0xa000
   1c7fa:	85d8                	.insn	2, 0x85d8
   1c7fc:	43763457          	.insn	4, 0x43763457
   1c800:	c800                	sw	s0,16(s0)
   1c802:	674e                	.insn	2, 0x674e
   1c804:	c16d                	beqz	a0,1c8e6 <__clz_tab+0x6e>
   1c806:	3d0043ab          	.insn	4, 0x3d0043ab
   1c80a:	6091                	lui	ra,0x4
   1c80c:	58e4                	lw	s1,116(s1)
   1c80e:	43e1                	li	t2,24
   1c810:	8c40                	.insn	2, 0x8c40
   1c812:	78b5                	lui	a7,0xfffed
   1c814:	af1d                	j	1cf4a <__clz_tab+0x6d2>
   1c816:	4415                	li	s0,5
   1c818:	ef50                	.insn	2, 0xef50
   1c81a:	d6e2                	sw	s8,108(sp)
   1c81c:	1ae4                	add	s1,sp,380
   1c81e:	d592444b          	.insn	4, 0xd592444b
   1c822:	064d                	add	a2,a2,19
   1c824:	4480f0cf          	.insn	4, 0x4480f0cf
   1c828:	4af6                	lw	s5,92(sp)
   1c82a:	c7e1                	beqz	a5,1c8f2 <__clz_tab+0x7a>
   1c82c:	2d02                	.insn	2, 0x2d02
   1c82e:	44b5                	li	s1,13
   1c830:	9db4                	.insn	2, 0x9db4
   1c832:	79d9                	lui	s3,0xffff6
   1c834:	44ea7843          	.insn	4, 0x44ea7843
   1c838:	dc9e                	sw	t2,120(sp)
   1c83a:	ffff                	.insn	2, 0xffff
   1c83c:	dba4                	sw	s1,112(a5)
   1c83e:	ffff                	.insn	2, 0xffff
   1c840:	db7a                	sw	t5,180(sp)
   1c842:	ffff                	.insn	2, 0xffff
   1c844:	dc6e                	sw	s11,56(sp)
   1c846:	ffff                	.insn	2, 0xffff
   1c848:	db7a                	sw	t5,180(sp)
   1c84a:	ffff                	.insn	2, 0xffff
   1c84c:	dbae                	sw	a1,244(sp)
   1c84e:	ffff                	.insn	2, 0xffff
   1c850:	db7a                	sw	t5,180(sp)
   1c852:	ffff                	.insn	2, 0xffff
   1c854:	dc6e                	sw	s11,56(sp)
   1c856:	ffff                	.insn	2, 0xffff
   1c858:	dba4                	sw	s1,112(a5)
   1c85a:	ffff                	.insn	2, 0xffff
   1c85c:	dba4                	sw	s1,112(a5)
   1c85e:	ffff                	.insn	2, 0xffff
   1c860:	dbae                	sw	a1,244(sp)
   1c862:	ffff                	.insn	2, 0xffff
   1c864:	dc6e                	sw	s11,56(sp)
   1c866:	ffff                	.insn	2, 0xffff
   1c868:	dc10                	sw	a2,56(s0)
   1c86a:	ffff                	.insn	2, 0xffff
   1c86c:	dc10                	sw	a2,56(s0)
   1c86e:	ffff                	.insn	2, 0xffff
   1c870:	dc10                	sw	a2,56(s0)
   1c872:	ffff                	.insn	2, 0xffff
   1c874:	dbae                	sw	a1,244(sp)
   1c876:	ffff                	.insn	2, 0xffff

0001c878 <__clz_tab>:
   1c878:	0100                	add	s0,sp,128
   1c87a:	0202                	c.slli64	tp
   1c87c:	03030303          	lb	t1,48(t1) # ffff8030 <__BSS_END__+0xfffda2e8>
   1c880:	0404                	add	s1,sp,512
   1c882:	0404                	add	s1,sp,512
   1c884:	0404                	add	s1,sp,512
   1c886:	0404                	add	s1,sp,512
   1c888:	0505                	add	a0,a0,1 # fffe5001 <__BSS_END__+0xfffc72b9>
   1c88a:	0505                	add	a0,a0,1
   1c88c:	0505                	add	a0,a0,1
   1c88e:	0505                	add	a0,a0,1
   1c890:	0505                	add	a0,a0,1
   1c892:	0505                	add	a0,a0,1
   1c894:	0505                	add	a0,a0,1
   1c896:	0505                	add	a0,a0,1
   1c898:	0606                	sll	a2,a2,0x1
   1c89a:	0606                	sll	a2,a2,0x1
   1c89c:	0606                	sll	a2,a2,0x1
   1c89e:	0606                	sll	a2,a2,0x1
   1c8a0:	0606                	sll	a2,a2,0x1
   1c8a2:	0606                	sll	a2,a2,0x1
   1c8a4:	0606                	sll	a2,a2,0x1
   1c8a6:	0606                	sll	a2,a2,0x1
   1c8a8:	0606                	sll	a2,a2,0x1
   1c8aa:	0606                	sll	a2,a2,0x1
   1c8ac:	0606                	sll	a2,a2,0x1
   1c8ae:	0606                	sll	a2,a2,0x1
   1c8b0:	0606                	sll	a2,a2,0x1
   1c8b2:	0606                	sll	a2,a2,0x1
   1c8b4:	0606                	sll	a2,a2,0x1
   1c8b6:	0606                	sll	a2,a2,0x1
   1c8b8:	07070707          	.insn	4, 0x07070707
   1c8bc:	07070707          	.insn	4, 0x07070707
   1c8c0:	07070707          	.insn	4, 0x07070707
   1c8c4:	07070707          	.insn	4, 0x07070707
   1c8c8:	07070707          	.insn	4, 0x07070707
   1c8cc:	07070707          	.insn	4, 0x07070707
   1c8d0:	07070707          	.insn	4, 0x07070707
   1c8d4:	07070707          	.insn	4, 0x07070707
   1c8d8:	07070707          	.insn	4, 0x07070707
   1c8dc:	07070707          	.insn	4, 0x07070707
   1c8e0:	07070707          	.insn	4, 0x07070707
   1c8e4:	07070707          	.insn	4, 0x07070707
   1c8e8:	07070707          	.insn	4, 0x07070707
   1c8ec:	07070707          	.insn	4, 0x07070707
   1c8f0:	07070707          	.insn	4, 0x07070707
   1c8f4:	07070707          	.insn	4, 0x07070707
   1c8f8:	0808                	add	a0,sp,16
   1c8fa:	0808                	add	a0,sp,16
   1c8fc:	0808                	add	a0,sp,16
   1c8fe:	0808                	add	a0,sp,16
   1c900:	0808                	add	a0,sp,16
   1c902:	0808                	add	a0,sp,16
   1c904:	0808                	add	a0,sp,16
   1c906:	0808                	add	a0,sp,16
   1c908:	0808                	add	a0,sp,16
   1c90a:	0808                	add	a0,sp,16
   1c90c:	0808                	add	a0,sp,16
   1c90e:	0808                	add	a0,sp,16
   1c910:	0808                	add	a0,sp,16
   1c912:	0808                	add	a0,sp,16
   1c914:	0808                	add	a0,sp,16
   1c916:	0808                	add	a0,sp,16
   1c918:	0808                	add	a0,sp,16
   1c91a:	0808                	add	a0,sp,16
   1c91c:	0808                	add	a0,sp,16
   1c91e:	0808                	add	a0,sp,16
   1c920:	0808                	add	a0,sp,16
   1c922:	0808                	add	a0,sp,16
   1c924:	0808                	add	a0,sp,16
   1c926:	0808                	add	a0,sp,16
   1c928:	0808                	add	a0,sp,16
   1c92a:	0808                	add	a0,sp,16
   1c92c:	0808                	add	a0,sp,16
   1c92e:	0808                	add	a0,sp,16
   1c930:	0808                	add	a0,sp,16
   1c932:	0808                	add	a0,sp,16
   1c934:	0808                	add	a0,sp,16
   1c936:	0808                	add	a0,sp,16
   1c938:	0808                	add	a0,sp,16
   1c93a:	0808                	add	a0,sp,16
   1c93c:	0808                	add	a0,sp,16
   1c93e:	0808                	add	a0,sp,16
   1c940:	0808                	add	a0,sp,16
   1c942:	0808                	add	a0,sp,16
   1c944:	0808                	add	a0,sp,16
   1c946:	0808                	add	a0,sp,16
   1c948:	0808                	add	a0,sp,16
   1c94a:	0808                	add	a0,sp,16
   1c94c:	0808                	add	a0,sp,16
   1c94e:	0808                	add	a0,sp,16
   1c950:	0808                	add	a0,sp,16
   1c952:	0808                	add	a0,sp,16
   1c954:	0808                	add	a0,sp,16
   1c956:	0808                	add	a0,sp,16
   1c958:	0808                	add	a0,sp,16
   1c95a:	0808                	add	a0,sp,16
   1c95c:	0808                	add	a0,sp,16
   1c95e:	0808                	add	a0,sp,16
   1c960:	0808                	add	a0,sp,16
   1c962:	0808                	add	a0,sp,16
   1c964:	0808                	add	a0,sp,16
   1c966:	0808                	add	a0,sp,16
   1c968:	0808                	add	a0,sp,16
   1c96a:	0808                	add	a0,sp,16
   1c96c:	0808                	add	a0,sp,16
   1c96e:	0808                	add	a0,sp,16
   1c970:	0808                	add	a0,sp,16
   1c972:	0808                	add	a0,sp,16
   1c974:	0808                	add	a0,sp,16
   1c976:	0808                	add	a0,sp,16

Disassembly of section .eh_frame:

0001d000 <__EH_FRAME_BEGIN__>:
   1d000:	0000                	unimp
	...

Disassembly of section .init_array:

0001d004 <__init_array_start>:
   1d004:	0140                	add	s0,sp,132
   1d006:	0001                	nop

0001d008 <__frame_dummy_init_array_entry>:
   1d008:	01b6                	sll	gp,gp,0xd
   1d00a:	0001                	nop

Disassembly of section .fini_array:

0001d00c <__do_global_dtors_aux_fini_array_entry>:
   1d00c:	0182                	c.slli64	gp
   1d00e:	0001                	nop

Disassembly of section .data:

0001d010 <__sglue>:
   1d010:	0000                	unimp
   1d012:	0000                	unimp
   1d014:	00000003          	lb	zero,0(zero) # 0 <exit-0x10094>
   1d018:	d7b0                	sw	a2,104(a5)
   1d01a:	0001                	nop

0001d01c <__global_locale>:
   1d01c:	00000043          	.insn	4, 0x0043
	...
   1d03c:	00000043          	.insn	4, 0x0043
	...
   1d05c:	00000043          	.insn	4, 0x0043
	...
   1d07c:	00000043          	.insn	4, 0x0043
	...
   1d09c:	00000043          	.insn	4, 0x0043
	...
   1d0bc:	00000043          	.insn	4, 0x0043
	...
   1d0dc:	00000043          	.insn	4, 0x0043
	...
   1d0fc:	8b36                	mv	s6,a3
   1d0fe:	0001                	nop
   1d100:	6f86                	.insn	2, 0x6f86
   1d102:	0001                	nop
   1d104:	0000                	unimp
   1d106:	0000                	unimp
   1d108:	c4a4                	sw	s1,72(s1)
   1d10a:	0001                	nop
   1d10c:	bc8c                	.insn	2, 0xbc8c
   1d10e:	0001                	nop
   1d110:	be64                	.insn	2, 0xbe64
   1d112:	0001                	nop
   1d114:	be64                	.insn	2, 0xbe64
   1d116:	0001                	nop
   1d118:	be64                	.insn	2, 0xbe64
   1d11a:	0001                	nop
   1d11c:	be64                	.insn	2, 0xbe64
   1d11e:	0001                	nop
   1d120:	be64                	.insn	2, 0xbe64
   1d122:	0001                	nop
   1d124:	be64                	.insn	2, 0xbe64
   1d126:	0001                	nop
   1d128:	be64                	.insn	2, 0xbe64
   1d12a:	0001                	nop
   1d12c:	be64                	.insn	2, 0xbe64
   1d12e:	0001                	nop
   1d130:	be64                	.insn	2, 0xbe64
   1d132:	0001                	nop
   1d134:	ffff                	.insn	2, 0xffff
   1d136:	ffff                	.insn	2, 0xffff
   1d138:	ffff                	.insn	2, 0xffff
   1d13a:	ffff                	.insn	2, 0xffff
   1d13c:	ffff                	.insn	2, 0xffff
   1d13e:	ffff                	.insn	2, 0xffff
   1d140:	ffff                	.insn	2, 0xffff
   1d142:	0000                	unimp
   1d144:	0001                	nop
   1d146:	5341                	li	t1,-16
   1d148:	00494943          	.insn	4, 0x00494943
	...
   1d164:	0000                	unimp
   1d166:	5341                	li	t1,-16
   1d168:	00494943          	.insn	4, 0x00494943
	...

0001d188 <__default_locale>:
   1d188:	00000043          	.insn	4, 0x0043
	...

0001d1a8 <_impure_data>:
   1d1a8:	0000                	unimp
   1d1aa:	0000                	unimp
   1d1ac:	d7b0                	sw	a2,104(a5)
   1d1ae:	0001                	nop
   1d1b0:	d818                	sw	a4,48(s0)
   1d1b2:	0001                	nop
   1d1b4:	d880                	sw	s0,48(s1)
   1d1b6:	0001                	nop
	...
   1d240:	0001                	nop
   1d242:	0000                	unimp
   1d244:	0000                	unimp
   1d246:	0000                	unimp
   1d248:	330e                	.insn	2, 0x330e
   1d24a:	abcd                	j	1d83c <__global_pointer$+0x2c>
   1d24c:	1234                	add	a3,sp,296
   1d24e:	e66d                	bnez	a2,1d338 <__malloc_av_+0x70>
   1d250:	deec                	sw	a1,124(a3)
   1d252:	0005                	c.nop	1
   1d254:	0000000b          	.insn	4, 0x000b
	...

0001d2c8 <__malloc_av_>:
	...
   1d2d0:	d2c8                	sw	a0,36(a3)
   1d2d2:	0001                	nop
   1d2d4:	d2c8                	sw	a0,36(a3)
   1d2d6:	0001                	nop
   1d2d8:	d2d0                	sw	a2,36(a3)
   1d2da:	0001                	nop
   1d2dc:	d2d0                	sw	a2,36(a3)
   1d2de:	0001                	nop
   1d2e0:	d2d8                	sw	a4,36(a3)
   1d2e2:	0001                	nop
   1d2e4:	d2d8                	sw	a4,36(a3)
   1d2e6:	0001                	nop
   1d2e8:	d2e0                	sw	s0,100(a3)
   1d2ea:	0001                	nop
   1d2ec:	d2e0                	sw	s0,100(a3)
   1d2ee:	0001                	nop
   1d2f0:	d2e8                	sw	a0,100(a3)
   1d2f2:	0001                	nop
   1d2f4:	d2e8                	sw	a0,100(a3)
   1d2f6:	0001                	nop
   1d2f8:	d2f0                	sw	a2,100(a3)
   1d2fa:	0001                	nop
   1d2fc:	d2f0                	sw	a2,100(a3)
   1d2fe:	0001                	nop
   1d300:	d2f8                	sw	a4,100(a3)
   1d302:	0001                	nop
   1d304:	d2f8                	sw	a4,100(a3)
   1d306:	0001                	nop
   1d308:	d300                	sw	s0,32(a4)
   1d30a:	0001                	nop
   1d30c:	d300                	sw	s0,32(a4)
   1d30e:	0001                	nop
   1d310:	d308                	sw	a0,32(a4)
   1d312:	0001                	nop
   1d314:	d308                	sw	a0,32(a4)
   1d316:	0001                	nop
   1d318:	d310                	sw	a2,32(a4)
   1d31a:	0001                	nop
   1d31c:	d310                	sw	a2,32(a4)
   1d31e:	0001                	nop
   1d320:	d318                	sw	a4,32(a4)
   1d322:	0001                	nop
   1d324:	d318                	sw	a4,32(a4)
   1d326:	0001                	nop
   1d328:	d320                	sw	s0,96(a4)
   1d32a:	0001                	nop
   1d32c:	d320                	sw	s0,96(a4)
   1d32e:	0001                	nop
   1d330:	d328                	sw	a0,96(a4)
   1d332:	0001                	nop
   1d334:	d328                	sw	a0,96(a4)
   1d336:	0001                	nop
   1d338:	d330                	sw	a2,96(a4)
   1d33a:	0001                	nop
   1d33c:	d330                	sw	a2,96(a4)
   1d33e:	0001                	nop
   1d340:	d338                	sw	a4,96(a4)
   1d342:	0001                	nop
   1d344:	d338                	sw	a4,96(a4)
   1d346:	0001                	nop
   1d348:	d340                	sw	s0,36(a4)
   1d34a:	0001                	nop
   1d34c:	d340                	sw	s0,36(a4)
   1d34e:	0001                	nop
   1d350:	d348                	sw	a0,36(a4)
   1d352:	0001                	nop
   1d354:	d348                	sw	a0,36(a4)
   1d356:	0001                	nop
   1d358:	d350                	sw	a2,36(a4)
   1d35a:	0001                	nop
   1d35c:	d350                	sw	a2,36(a4)
   1d35e:	0001                	nop
   1d360:	d358                	sw	a4,36(a4)
   1d362:	0001                	nop
   1d364:	d358                	sw	a4,36(a4)
   1d366:	0001                	nop
   1d368:	d360                	sw	s0,100(a4)
   1d36a:	0001                	nop
   1d36c:	d360                	sw	s0,100(a4)
   1d36e:	0001                	nop
   1d370:	d368                	sw	a0,100(a4)
   1d372:	0001                	nop
   1d374:	d368                	sw	a0,100(a4)
   1d376:	0001                	nop
   1d378:	d370                	sw	a2,100(a4)
   1d37a:	0001                	nop
   1d37c:	d370                	sw	a2,100(a4)
   1d37e:	0001                	nop
   1d380:	d378                	sw	a4,100(a4)
   1d382:	0001                	nop
   1d384:	d378                	sw	a4,100(a4)
   1d386:	0001                	nop
   1d388:	d380                	sw	s0,32(a5)
   1d38a:	0001                	nop
   1d38c:	d380                	sw	s0,32(a5)
   1d38e:	0001                	nop
   1d390:	d388                	sw	a0,32(a5)
   1d392:	0001                	nop
   1d394:	d388                	sw	a0,32(a5)
   1d396:	0001                	nop
   1d398:	d390                	sw	a2,32(a5)
   1d39a:	0001                	nop
   1d39c:	d390                	sw	a2,32(a5)
   1d39e:	0001                	nop
   1d3a0:	d398                	sw	a4,32(a5)
   1d3a2:	0001                	nop
   1d3a4:	d398                	sw	a4,32(a5)
   1d3a6:	0001                	nop
   1d3a8:	d3a0                	sw	s0,96(a5)
   1d3aa:	0001                	nop
   1d3ac:	d3a0                	sw	s0,96(a5)
   1d3ae:	0001                	nop
   1d3b0:	d3a8                	sw	a0,96(a5)
   1d3b2:	0001                	nop
   1d3b4:	d3a8                	sw	a0,96(a5)
   1d3b6:	0001                	nop
   1d3b8:	d3b0                	sw	a2,96(a5)
   1d3ba:	0001                	nop
   1d3bc:	d3b0                	sw	a2,96(a5)
   1d3be:	0001                	nop
   1d3c0:	d3b8                	sw	a4,96(a5)
   1d3c2:	0001                	nop
   1d3c4:	d3b8                	sw	a4,96(a5)
   1d3c6:	0001                	nop
   1d3c8:	d3c0                	sw	s0,36(a5)
   1d3ca:	0001                	nop
   1d3cc:	d3c0                	sw	s0,36(a5)
   1d3ce:	0001                	nop
   1d3d0:	d3c8                	sw	a0,36(a5)
   1d3d2:	0001                	nop
   1d3d4:	d3c8                	sw	a0,36(a5)
   1d3d6:	0001                	nop
   1d3d8:	d3d0                	sw	a2,36(a5)
   1d3da:	0001                	nop
   1d3dc:	d3d0                	sw	a2,36(a5)
   1d3de:	0001                	nop
   1d3e0:	d3d8                	sw	a4,36(a5)
   1d3e2:	0001                	nop
   1d3e4:	d3d8                	sw	a4,36(a5)
   1d3e6:	0001                	nop
   1d3e8:	d3e0                	sw	s0,100(a5)
   1d3ea:	0001                	nop
   1d3ec:	d3e0                	sw	s0,100(a5)
   1d3ee:	0001                	nop
   1d3f0:	d3e8                	sw	a0,100(a5)
   1d3f2:	0001                	nop
   1d3f4:	d3e8                	sw	a0,100(a5)
   1d3f6:	0001                	nop
   1d3f8:	d3f0                	sw	a2,100(a5)
   1d3fa:	0001                	nop
   1d3fc:	d3f0                	sw	a2,100(a5)
   1d3fe:	0001                	nop
   1d400:	d3f8                	sw	a4,100(a5)
   1d402:	0001                	nop
   1d404:	d3f8                	sw	a4,100(a5)
   1d406:	0001                	nop
   1d408:	d400                	sw	s0,40(s0)
   1d40a:	0001                	nop
   1d40c:	d400                	sw	s0,40(s0)
   1d40e:	0001                	nop
   1d410:	d408                	sw	a0,40(s0)
   1d412:	0001                	nop
   1d414:	d408                	sw	a0,40(s0)
   1d416:	0001                	nop
   1d418:	d410                	sw	a2,40(s0)
   1d41a:	0001                	nop
   1d41c:	d410                	sw	a2,40(s0)
   1d41e:	0001                	nop
   1d420:	d418                	sw	a4,40(s0)
   1d422:	0001                	nop
   1d424:	d418                	sw	a4,40(s0)
   1d426:	0001                	nop
   1d428:	d420                	sw	s0,104(s0)
   1d42a:	0001                	nop
   1d42c:	d420                	sw	s0,104(s0)
   1d42e:	0001                	nop
   1d430:	d428                	sw	a0,104(s0)
   1d432:	0001                	nop
   1d434:	d428                	sw	a0,104(s0)
   1d436:	0001                	nop
   1d438:	d430                	sw	a2,104(s0)
   1d43a:	0001                	nop
   1d43c:	d430                	sw	a2,104(s0)
   1d43e:	0001                	nop
   1d440:	d438                	sw	a4,104(s0)
   1d442:	0001                	nop
   1d444:	d438                	sw	a4,104(s0)
   1d446:	0001                	nop
   1d448:	d440                	sw	s0,44(s0)
   1d44a:	0001                	nop
   1d44c:	d440                	sw	s0,44(s0)
   1d44e:	0001                	nop
   1d450:	d448                	sw	a0,44(s0)
   1d452:	0001                	nop
   1d454:	d448                	sw	a0,44(s0)
   1d456:	0001                	nop
   1d458:	d450                	sw	a2,44(s0)
   1d45a:	0001                	nop
   1d45c:	d450                	sw	a2,44(s0)
   1d45e:	0001                	nop
   1d460:	d458                	sw	a4,44(s0)
   1d462:	0001                	nop
   1d464:	d458                	sw	a4,44(s0)
   1d466:	0001                	nop
   1d468:	d460                	sw	s0,108(s0)
   1d46a:	0001                	nop
   1d46c:	d460                	sw	s0,108(s0)
   1d46e:	0001                	nop
   1d470:	d468                	sw	a0,108(s0)
   1d472:	0001                	nop
   1d474:	d468                	sw	a0,108(s0)
   1d476:	0001                	nop
   1d478:	d470                	sw	a2,108(s0)
   1d47a:	0001                	nop
   1d47c:	d470                	sw	a2,108(s0)
   1d47e:	0001                	nop
   1d480:	d478                	sw	a4,108(s0)
   1d482:	0001                	nop
   1d484:	d478                	sw	a4,108(s0)
   1d486:	0001                	nop
   1d488:	d480                	sw	s0,40(s1)
   1d48a:	0001                	nop
   1d48c:	d480                	sw	s0,40(s1)
   1d48e:	0001                	nop
   1d490:	d488                	sw	a0,40(s1)
   1d492:	0001                	nop
   1d494:	d488                	sw	a0,40(s1)
   1d496:	0001                	nop
   1d498:	d490                	sw	a2,40(s1)
   1d49a:	0001                	nop
   1d49c:	d490                	sw	a2,40(s1)
   1d49e:	0001                	nop
   1d4a0:	d498                	sw	a4,40(s1)
   1d4a2:	0001                	nop
   1d4a4:	d498                	sw	a4,40(s1)
   1d4a6:	0001                	nop
   1d4a8:	d4a0                	sw	s0,104(s1)
   1d4aa:	0001                	nop
   1d4ac:	d4a0                	sw	s0,104(s1)
   1d4ae:	0001                	nop
   1d4b0:	d4a8                	sw	a0,104(s1)
   1d4b2:	0001                	nop
   1d4b4:	d4a8                	sw	a0,104(s1)
   1d4b6:	0001                	nop
   1d4b8:	d4b0                	sw	a2,104(s1)
   1d4ba:	0001                	nop
   1d4bc:	d4b0                	sw	a2,104(s1)
   1d4be:	0001                	nop
   1d4c0:	d4b8                	sw	a4,104(s1)
   1d4c2:	0001                	nop
   1d4c4:	d4b8                	sw	a4,104(s1)
   1d4c6:	0001                	nop
   1d4c8:	d4c0                	sw	s0,44(s1)
   1d4ca:	0001                	nop
   1d4cc:	d4c0                	sw	s0,44(s1)
   1d4ce:	0001                	nop
   1d4d0:	d4c8                	sw	a0,44(s1)
   1d4d2:	0001                	nop
   1d4d4:	d4c8                	sw	a0,44(s1)
   1d4d6:	0001                	nop
   1d4d8:	d4d0                	sw	a2,44(s1)
   1d4da:	0001                	nop
   1d4dc:	d4d0                	sw	a2,44(s1)
   1d4de:	0001                	nop
   1d4e0:	d4d8                	sw	a4,44(s1)
   1d4e2:	0001                	nop
   1d4e4:	d4d8                	sw	a4,44(s1)
   1d4e6:	0001                	nop
   1d4e8:	d4e0                	sw	s0,108(s1)
   1d4ea:	0001                	nop
   1d4ec:	d4e0                	sw	s0,108(s1)
   1d4ee:	0001                	nop
   1d4f0:	d4e8                	sw	a0,108(s1)
   1d4f2:	0001                	nop
   1d4f4:	d4e8                	sw	a0,108(s1)
   1d4f6:	0001                	nop
   1d4f8:	d4f0                	sw	a2,108(s1)
   1d4fa:	0001                	nop
   1d4fc:	d4f0                	sw	a2,108(s1)
   1d4fe:	0001                	nop
   1d500:	d4f8                	sw	a4,108(s1)
   1d502:	0001                	nop
   1d504:	d4f8                	sw	a4,108(s1)
   1d506:	0001                	nop
   1d508:	d500                	sw	s0,40(a0)
   1d50a:	0001                	nop
   1d50c:	d500                	sw	s0,40(a0)
   1d50e:	0001                	nop
   1d510:	d508                	sw	a0,40(a0)
   1d512:	0001                	nop
   1d514:	d508                	sw	a0,40(a0)
   1d516:	0001                	nop
   1d518:	d510                	sw	a2,40(a0)
   1d51a:	0001                	nop
   1d51c:	d510                	sw	a2,40(a0)
   1d51e:	0001                	nop
   1d520:	d518                	sw	a4,40(a0)
   1d522:	0001                	nop
   1d524:	d518                	sw	a4,40(a0)
   1d526:	0001                	nop
   1d528:	d520                	sw	s0,104(a0)
   1d52a:	0001                	nop
   1d52c:	d520                	sw	s0,104(a0)
   1d52e:	0001                	nop
   1d530:	d528                	sw	a0,104(a0)
   1d532:	0001                	nop
   1d534:	d528                	sw	a0,104(a0)
   1d536:	0001                	nop
   1d538:	d530                	sw	a2,104(a0)
   1d53a:	0001                	nop
   1d53c:	d530                	sw	a2,104(a0)
   1d53e:	0001                	nop
   1d540:	d538                	sw	a4,104(a0)
   1d542:	0001                	nop
   1d544:	d538                	sw	a4,104(a0)
   1d546:	0001                	nop
   1d548:	d540                	sw	s0,44(a0)
   1d54a:	0001                	nop
   1d54c:	d540                	sw	s0,44(a0)
   1d54e:	0001                	nop
   1d550:	d548                	sw	a0,44(a0)
   1d552:	0001                	nop
   1d554:	d548                	sw	a0,44(a0)
   1d556:	0001                	nop
   1d558:	d550                	sw	a2,44(a0)
   1d55a:	0001                	nop
   1d55c:	d550                	sw	a2,44(a0)
   1d55e:	0001                	nop
   1d560:	d558                	sw	a4,44(a0)
   1d562:	0001                	nop
   1d564:	d558                	sw	a4,44(a0)
   1d566:	0001                	nop
   1d568:	d560                	sw	s0,108(a0)
   1d56a:	0001                	nop
   1d56c:	d560                	sw	s0,108(a0)
   1d56e:	0001                	nop
   1d570:	d568                	sw	a0,108(a0)
   1d572:	0001                	nop
   1d574:	d568                	sw	a0,108(a0)
   1d576:	0001                	nop
   1d578:	d570                	sw	a2,108(a0)
   1d57a:	0001                	nop
   1d57c:	d570                	sw	a2,108(a0)
   1d57e:	0001                	nop
   1d580:	d578                	sw	a4,108(a0)
   1d582:	0001                	nop
   1d584:	d578                	sw	a4,108(a0)
   1d586:	0001                	nop
   1d588:	d580                	sw	s0,40(a1)
   1d58a:	0001                	nop
   1d58c:	d580                	sw	s0,40(a1)
   1d58e:	0001                	nop
   1d590:	d588                	sw	a0,40(a1)
   1d592:	0001                	nop
   1d594:	d588                	sw	a0,40(a1)
   1d596:	0001                	nop
   1d598:	d590                	sw	a2,40(a1)
   1d59a:	0001                	nop
   1d59c:	d590                	sw	a2,40(a1)
   1d59e:	0001                	nop
   1d5a0:	d598                	sw	a4,40(a1)
   1d5a2:	0001                	nop
   1d5a4:	d598                	sw	a4,40(a1)
   1d5a6:	0001                	nop
   1d5a8:	d5a0                	sw	s0,104(a1)
   1d5aa:	0001                	nop
   1d5ac:	d5a0                	sw	s0,104(a1)
   1d5ae:	0001                	nop
   1d5b0:	d5a8                	sw	a0,104(a1)
   1d5b2:	0001                	nop
   1d5b4:	d5a8                	sw	a0,104(a1)
   1d5b6:	0001                	nop
   1d5b8:	d5b0                	sw	a2,104(a1)
   1d5ba:	0001                	nop
   1d5bc:	d5b0                	sw	a2,104(a1)
   1d5be:	0001                	nop
   1d5c0:	d5b8                	sw	a4,104(a1)
   1d5c2:	0001                	nop
   1d5c4:	d5b8                	sw	a4,104(a1)
   1d5c6:	0001                	nop
   1d5c8:	d5c0                	sw	s0,44(a1)
   1d5ca:	0001                	nop
   1d5cc:	d5c0                	sw	s0,44(a1)
   1d5ce:	0001                	nop
   1d5d0:	d5c8                	sw	a0,44(a1)
   1d5d2:	0001                	nop
   1d5d4:	d5c8                	sw	a0,44(a1)
   1d5d6:	0001                	nop
   1d5d8:	d5d0                	sw	a2,44(a1)
   1d5da:	0001                	nop
   1d5dc:	d5d0                	sw	a2,44(a1)
   1d5de:	0001                	nop
   1d5e0:	d5d8                	sw	a4,44(a1)
   1d5e2:	0001                	nop
   1d5e4:	d5d8                	sw	a4,44(a1)
   1d5e6:	0001                	nop
   1d5e8:	d5e0                	sw	s0,108(a1)
   1d5ea:	0001                	nop
   1d5ec:	d5e0                	sw	s0,108(a1)
   1d5ee:	0001                	nop
   1d5f0:	d5e8                	sw	a0,108(a1)
   1d5f2:	0001                	nop
   1d5f4:	d5e8                	sw	a0,108(a1)
   1d5f6:	0001                	nop
   1d5f8:	d5f0                	sw	a2,108(a1)
   1d5fa:	0001                	nop
   1d5fc:	d5f0                	sw	a2,108(a1)
   1d5fe:	0001                	nop
   1d600:	d5f8                	sw	a4,108(a1)
   1d602:	0001                	nop
   1d604:	d5f8                	sw	a4,108(a1)
   1d606:	0001                	nop
   1d608:	d600                	sw	s0,40(a2)
   1d60a:	0001                	nop
   1d60c:	d600                	sw	s0,40(a2)
   1d60e:	0001                	nop
   1d610:	d608                	sw	a0,40(a2)
   1d612:	0001                	nop
   1d614:	d608                	sw	a0,40(a2)
   1d616:	0001                	nop
   1d618:	d610                	sw	a2,40(a2)
   1d61a:	0001                	nop
   1d61c:	d610                	sw	a2,40(a2)
   1d61e:	0001                	nop
   1d620:	d618                	sw	a4,40(a2)
   1d622:	0001                	nop
   1d624:	d618                	sw	a4,40(a2)
   1d626:	0001                	nop
   1d628:	d620                	sw	s0,104(a2)
   1d62a:	0001                	nop
   1d62c:	d620                	sw	s0,104(a2)
   1d62e:	0001                	nop
   1d630:	d628                	sw	a0,104(a2)
   1d632:	0001                	nop
   1d634:	d628                	sw	a0,104(a2)
   1d636:	0001                	nop
   1d638:	d630                	sw	a2,104(a2)
   1d63a:	0001                	nop
   1d63c:	d630                	sw	a2,104(a2)
   1d63e:	0001                	nop
   1d640:	d638                	sw	a4,104(a2)
   1d642:	0001                	nop
   1d644:	d638                	sw	a4,104(a2)
   1d646:	0001                	nop
   1d648:	d640                	sw	s0,44(a2)
   1d64a:	0001                	nop
   1d64c:	d640                	sw	s0,44(a2)
   1d64e:	0001                	nop
   1d650:	d648                	sw	a0,44(a2)
   1d652:	0001                	nop
   1d654:	d648                	sw	a0,44(a2)
   1d656:	0001                	nop
   1d658:	d650                	sw	a2,44(a2)
   1d65a:	0001                	nop
   1d65c:	d650                	sw	a2,44(a2)
   1d65e:	0001                	nop
   1d660:	d658                	sw	a4,44(a2)
   1d662:	0001                	nop
   1d664:	d658                	sw	a4,44(a2)
   1d666:	0001                	nop
   1d668:	d660                	sw	s0,108(a2)
   1d66a:	0001                	nop
   1d66c:	d660                	sw	s0,108(a2)
   1d66e:	0001                	nop
   1d670:	d668                	sw	a0,108(a2)
   1d672:	0001                	nop
   1d674:	d668                	sw	a0,108(a2)
   1d676:	0001                	nop
   1d678:	d670                	sw	a2,108(a2)
   1d67a:	0001                	nop
   1d67c:	d670                	sw	a2,108(a2)
   1d67e:	0001                	nop
   1d680:	d678                	sw	a4,108(a2)
   1d682:	0001                	nop
   1d684:	d678                	sw	a4,108(a2)
   1d686:	0001                	nop
   1d688:	d680                	sw	s0,40(a3)
   1d68a:	0001                	nop
   1d68c:	d680                	sw	s0,40(a3)
   1d68e:	0001                	nop
   1d690:	d688                	sw	a0,40(a3)
   1d692:	0001                	nop
   1d694:	d688                	sw	a0,40(a3)
   1d696:	0001                	nop
   1d698:	d690                	sw	a2,40(a3)
   1d69a:	0001                	nop
   1d69c:	d690                	sw	a2,40(a3)
   1d69e:	0001                	nop
   1d6a0:	d698                	sw	a4,40(a3)
   1d6a2:	0001                	nop
   1d6a4:	d698                	sw	a4,40(a3)
   1d6a6:	0001                	nop
   1d6a8:	d6a0                	sw	s0,104(a3)
   1d6aa:	0001                	nop
   1d6ac:	d6a0                	sw	s0,104(a3)
   1d6ae:	0001                	nop
   1d6b0:	d6a8                	sw	a0,104(a3)
   1d6b2:	0001                	nop
   1d6b4:	d6a8                	sw	a0,104(a3)
   1d6b6:	0001                	nop
   1d6b8:	d6b0                	sw	a2,104(a3)
   1d6ba:	0001                	nop
   1d6bc:	d6b0                	sw	a2,104(a3)
   1d6be:	0001                	nop
   1d6c0:	d6b8                	sw	a4,104(a3)
   1d6c2:	0001                	nop
   1d6c4:	d6b8                	sw	a4,104(a3)
   1d6c6:	0001                	nop
   1d6c8:	d6c0                	sw	s0,44(a3)
   1d6ca:	0001                	nop
   1d6cc:	d6c0                	sw	s0,44(a3)
   1d6ce:	0001                	nop

Disassembly of section .sdata:

0001d6d0 <__SDATA_BEGIN__>:
   1d6d0:	ffff                	.insn	2, 0xffff
   1d6d2:	ffff                	.insn	2, 0xffff
   1d6d4:	ffff                	.insn	2, 0xffff
   1d6d6:	00007fef          	jal	t6,246d6 <__BSS_END__+0x698e>
   1d6da:	0000                	unimp
   1d6dc:	0000                	unimp
   1d6de:	3fc0                	.insn	2, 0x3fc0
   1d6e0:	0000                	unimp
   1d6e2:	0000                	unimp
   1d6e4:	0000                	unimp
   1d6e6:	4030                	lw	a2,64(s0)
   1d6e8:	0000                	unimp
   1d6ea:	0000                	unimp
   1d6ec:	0000                	unimp
   1d6ee:	3fe0                	.insn	2, 0x3fe0
   1d6f0:	0000                	unimp
   1d6f2:	0000                	unimp
   1d6f4:	0000                	unimp
   1d6f6:	4350                	lw	a2,4(a4)
   1d6f8:	0000                	unimp
   1d6fa:	0000                	unimp
   1d6fc:	0000                	unimp
   1d6fe:	3ff8                	.insn	2, 0x3ff8
   1d700:	4361                	li	t1,24
   1d702:	87a7636f          	jal	t1,fff9377c <__BSS_END__+0xfff75a34>
   1d706:	3fd2                	.insn	2, 0x3fd2
   1d708:	8b60c8b3          	.insn	4, 0x8b60c8b3
   1d70c:	8a28                	.insn	2, 0x8a28
   1d70e:	3fc6                	.insn	2, 0x3fc6
   1d710:	509f79fb          	.insn	4, 0x509f79fb
   1d714:	3fd34413          	xor	s0,t1,1021
   1d718:	0000                	unimp
   1d71a:	0000                	unimp
   1d71c:	0000                	unimp
   1d71e:	3ff0                	.insn	2, 0x3ff0
   1d720:	0000                	unimp
   1d722:	0000                	unimp
   1d724:	0000                	unimp
   1d726:	4024                	lw	s1,64(s0)
   1d728:	0000                	unimp
   1d72a:	0000                	unimp
   1d72c:	0000                	unimp
   1d72e:	401c                	lw	a5,0(s0)
   1d730:	0000                	unimp
   1d732:	0000                	unimp
   1d734:	0000                	unimp
   1d736:	4014                	lw	a3,0(s0)

0001d738 <__dso_handle>:
   1d738:	0000                	unimp
	...

0001d73c <_impure_ptr>:
   1d73c:	d1a8                	sw	a0,96(a1)
   1d73e:	0001                	nop

0001d740 <__atexit_recursive_mutex>:
   1d740:	d774                	sw	a3,108(a4)
   1d742:	0001                	nop

0001d744 <__malloc_sbrk_base>:
   1d744:	ffff                	.insn	2, 0xffff
   1d746:	ffff                	.insn	2, 0xffff

0001d748 <__malloc_trim_threshold>:
   1d748:	0000                	unimp
   1d74a:	0002                	c.slli64	zero

0001d74c <environ>:
   1d74c:	d790                	sw	a2,40(a5)
   1d74e:	0001                	nop

Disassembly of section .comment:

00000000 <.comment>:
   0:	3a434347          	.insn	4, 0x3a434347
   4:	2820                	.insn	2, 0x2820
   6:	5078                	lw	a4,100(s0)
   8:	6361                	lui	t1,0x18
   a:	4e47206b          	.insn	4, 0x4e47206b
   e:	2055                	jal	b2 <exit-0xffe2>
  10:	4952                	lw	s2,20(sp)
  12:	562d4353          	.insn	4, 0x562d4353
  16:	4520                	lw	s0,72(a0)
  18:	626d                	lui	tp,0x1b
  1a:	6465                	lui	s0,0x19
  1c:	6564                	.insn	2, 0x6564
  1e:	2064                	.insn	2, 0x2064
  20:	20434347          	.insn	4, 0x20434347
  24:	7261                	lui	tp,0xffff8
  26:	366d                	jal	fffffbd0 <__BSS_END__+0xfffe1e88>
  28:	2934                	.insn	2, 0x2934
  2a:	3120                	.insn	2, 0x3120
  2c:	2e322e33          	.insn	4, 0x2e322e33
  30:	0030                	add	a2,sp,8

Disassembly of section .riscv.attributes:

00000000 <.riscv.attributes>:
   0:	4c41                	li	s8,16
   2:	0000                	unimp
   4:	7200                	.insn	2, 0x7200
   6:	7369                	lui	t1,0xffffa
   8:	01007663          	bgeu	zero,a6,14 <exit-0x10080>
   c:	0042                	c.slli	zero,0x10
   e:	0000                	unimp
  10:	1004                	add	s1,sp,32
  12:	7205                	lui	tp,0xfffe1
  14:	3376                	.insn	2, 0x3376
  16:	6932                	.insn	2, 0x6932
  18:	7032                	.insn	2, 0x7032
  1a:	5f31                	li	t5,-20
  1c:	326d                	jal	fffff9c6 <__BSS_END__+0xfffe1c7e>
  1e:	3070                	.insn	2, 0x3070
  20:	615f 7032 5f31      	.insn	6, 0x5f317032615f
  26:	30703263          	.insn	4, 0x30703263
  2a:	7a5f 6369 7273      	.insn	6, 0x727363697a5f
  30:	7032                	.insn	2, 0x7032
  32:	5f30                	lw	a2,120(a4)
  34:	697a                	.insn	2, 0x697a
  36:	6566                	.insn	2, 0x6566
  38:	636e                	.insn	2, 0x636e
  3a:	6965                	lui	s2,0x19
  3c:	7032                	.insn	2, 0x7032
  3e:	5f30                	lw	a2,120(a4)
  40:	6d7a                	.insn	2, 0x6d7a
  42:	756d                	lui	a0,0xffffb
  44:	316c                	.insn	2, 0x316c
  46:	3070                	.insn	2, 0x3070
  48:	0800                	add	s0,sp,16
  4a:	0a01                	add	s4,s4,0
  4c:	Address 0x4c is out of bounds.

